(i__main__
annealpoint
p0
(dp1
S'ccode'
p2
(dp3
S'552'
p4
S'q'
p5
sS'1'
p6
S'e'
p7
sS'RvuaO'
p8
S'j'
p9
sS'0'
p10
S'v'
p11
sS'3'
p12
S'm'
p13
sS'2'
p14
S's'
p15
sS'5'
p16
S'i'
p17
sS'4'
p18
S't'
p19
sS'7'
p20
S'l'
p21
sS'6'
p22
S'a'
p23
sS'9'
p24
S'g'
p25
sS'8'
p26
S'f'
p27
sS'MKXSj'
p28
S'y'
p29
sS'WFrSX'
p30
S'b'
p31
sS'gEufk'
p32
S'o'
p33
sS'iJOXq'
p34
S'u'
p35
sS'Atghl'
p36
S'w'
p37
sS'hUMAA'
p38
S'n'
p39
sS'11'
p40
S'z'
p41
sS'13'
p42
S'd'
p43
sS'12'
p44
S'r'
p45
sS'15'
p46
S'k'
p47
sS'17'
p48
S'x'
p49
sS'AfOEM'
p50
S'h'
p51
sS'55'
p52
S'p'
p53
sS'LVucs'
p54
S'c'
p55
ssS'cset'
p56
c__builtin__
set
p57
((lp58
g40
ag42
ag44
ag46
ag48
ag52
ag4
ag6
ag10
ag12
ag14
ag16
ag18
ag20
ag22
ag24
ag26
atp59
Rp60
sS'annealevel'
p61
F0.1
sS'strng'
p62
(lp63
g6
ag6
ag14
ag6
ag6
ag6
ag20
ag14
ag24
ag16
ag14
ag10
ag10
ag6
ag18
ag10
ag6
ag6
ag20
ag6
ag6
ag6
ag6
ag6
ag6
ag18
ag26
ag6
ag6
ag20
ag16
ag18
ag16
ag6
ag12
ag6
ag24
ag22
ag18
ag6
ag24
ag18
ag14
ag14
ag16
ag6
ag6
ag6
ag16
ag14
ag6
ag6
ag6
ag6
ag6
ag6
ag12
ag6
ag16
ag6
ag16
ag16
ag14
ag16
ag16
ag6
ag6
ag12
ag6
ag6
ag6
ag24
ag16
ag14
ag10
ag6
ag12
asS'csplit'
p64
(lp65
I0
aI1
aI0
aI1
aI0
aI1
aI0
aI1
aI0
aI1
aI0
aI1
aI0
aI1
aI0
aI1
aI1
aI0
aI1
aI1
aI1
aI0
aI1
aI1
aI1
aI1
aI1
aI1
aI1
aI1
aI1
aI1
aI1
aI1
aI1
aI1
aI1
aI1
aI1
aI1
aI1
aI1
aI1
aI1
aI1
aI1
aI1
aI0
aI1
aI1
aI1
aI1
aI0
aI1
aI1
aI0
aI1
aI1
aI1
aI1
aI0
aI0
aI1
aI0
aI1
aI1
aI1
aI1
aI1
aI0
aI1
aI1
aI1
aI1
aI1
aI1
asS'spl'
p66
(lp67
g6
ag44
ag6
ag6
ag6
ag20
ag14
ag24
ag16
ag14
ag10
ag10
ag6
ag18
ag10
ag6
ag48
ag6
ag6
ag40
ag6
ag6
ag18
ag26
ag6
ag6
ag20
ag16
ag18
ag16
ag6
ag12
ag6
ag24
ag22
ag18
ag6
ag24
ag18
ag14
ag14
ag16
ag6
ag6
ag46
ag14
ag6
ag6
aS'11'
p68
ag6
ag42
ag6
ag16
ag6
ag4
ag52
ag6
ag6
ag12
ag6
aS'11'
p69
ag24
ag16
ag14
ag10
ag6
asS'ls'
p70
I76
sS'cscore'
p71
F0.37445563695563694
sb.
(i__main__
annealpoint
p0
(dp1
S'ccode'
p2
(dp3
S'VOhDv'
p4
S'q'
p5
sS'jgzRR'
p6
S'm'
p7
sS'20'
p8
S'z'
p9
sS'3'
p10
S'h'
p11
sS'1'
p12
S'o'
p13
sS'0'
p14
S'i'
p15
sS'UfyBK'
p16
S'g'
p17
sS'2'
p18
S'e'
p19
sS'5'
p20
S'l'
p21
sS'4'
p22
S'n'
p23
sS'7'
p24
S's'
p25
sS'BgEmo'
p26
S'v'
p27
sS'9'
p28
S'a'
p29
sS'8'
p30
S'b'
p31
sS'djImM'
p32
S'f'
p33
sS'HAgPq'
p34
S'k'
p35
sS'75'
p36
S'd'
p37
sS'vGPno'
p38
S'y'
p39
sS'axmWx'
p40
S'c'
p41
sS'cjWIN'
p42
S't'
p43
sS'AHDht'
p44
S'j'
p45
sS'YZpTH'
p46
S'u'
p47
sS'96'
p48
S'w'
p49
sS'11'
p50
S'r'
p51
sS'orPYw'
p52
S'p'
p53
sS'51'
p54
S'x'
p55
ssS'cset'
p56
c__builtin__
set
p57
((lp58
g50
ag8
ag54
ag10
ag12
ag14
ag36
ag18
ag20
ag22
ag24
ag28
ag30
ag48
atp59
Rp60
sS'annealevel'
p61
F0.2
sS'strng'
p62
(lp63
g12
ag12
ag18
ag12
ag12
ag12
ag24
ag18
ag28
ag20
ag18
ag14
ag14
ag12
ag22
ag14
ag12
ag12
ag24
ag12
ag12
ag12
ag12
ag12
ag12
ag22
ag30
ag12
ag12
ag24
ag20
ag22
ag20
ag12
ag10
ag12
ag28
aS'6'
p64
ag22
ag12
ag28
ag22
ag18
ag18
ag20
ag12
ag12
ag12
ag20
ag18
ag12
ag12
ag12
ag12
ag12
ag12
ag10
ag12
ag20
ag12
ag20
ag20
ag18
ag20
ag20
ag12
ag12
ag10
ag12
ag12
ag12
ag28
ag20
ag18
ag14
ag12
ag10
asS'csplit'
p65
(lp66
I0
aI1
aI0
aI1
aI0
aI1
aI0
aI1
aI0
aI1
aI0
aI1
aI0
aI1
aI0
aI1
aI1
aI1
aI1
aI1
aI1
aI1
aI1
aI1
aI1
aI1
aI1
aI1
aI1
aI0
aI1
aI1
aI1
aI1
aI1
aI1
aI0
aI1
aI1
aI1
aI1
aI1
aI1
aI1
aI1
aI1
aI1
aI1
aI1
aI1
aI1
aI1
aI1
aI1
aI1
aI1
aI1
aI1
aI0
aI1
aI1
aI1
aI1
aI1
aI0
aI1
aI1
aI1
aI1
aI1
aI1
aI1
aI1
aI1
aI1
aI1
asS'spl'
p67
(lp68
g50
ag18
aS'11'
p69
ag12
ag24
ag18
ag28
ag20
ag8
ag14
ag12
ag22
ag14
ag12
ag12
ag24
ag12
ag12
ag12
ag12
ag12
ag12
ag22
ag30
ag12
ag12
ag36
ag22
ag20
ag12
ag10
ag12
ag48
ag22
ag12
ag28
ag22
ag18
ag18
ag20
ag12
ag12
ag12
ag20
ag18
ag12
ag12
ag12
ag12
ag12
ag12
ag10
ag12
ag54
ag20
ag20
ag18
ag20
aS'51'
p70
ag12
ag10
ag12
ag12
ag12
ag28
ag20
ag18
ag14
ag12
asS'ls'
p71
I76
sS'cscore'
p72
F0.4268482715541539
sb.
(i__main__
annealpoint
p0
(dp1
S'ccode'
p2
(dp3
S'OqFgq'
p4
S'p'
p5
sS'bUhUG'
p6
S'q'
p7
sS'zAoFv'
p8
S'x'
p9
sS'wehCb'
p10
S'w'
p11
sS'pQMPr'
p12
S'g'
p13
sS'eTEnI'
p14
S'd'
p15
sS'01'
p16
S'b'
p17
sS'21'
p18
S'o'
p19
sS'tYwIK'
p20
S'e'
p21
sS'1'
p22
S's'
p23
sS'0'
p24
S'i'
p25
sS'3'
p26
S't'
p27
sS'2'
p28
S'u'
p29
sS'5'
p30
S'a'
p31
sS'4'
p32
S'l'
p33
sS'7'
p34
S'n'
p35
sS'6'
p36
S'j'
p37
sS'9'
p38
S'h'
p39
sS'8'
p40
S'm'
p41
sS'72'
p42
S'c'
p43
sS'11'
p44
S'r'
p45
sS'13'
p46
S'v'
p47
sS'52'
p48
S'k'
p49
sS'Zepix'
p50
S'f'
p51
sS'CFhYp'
p52
S'z'
p53
sS'zgpbS'
p54
S'y'
p55
ssS'cset'
p56
c__builtin__
set
p57
((lp58
g44
ag46
ag16
ag18
ag48
ag22
ag24
ag26
ag28
ag30
ag42
ag34
ag36
ag38
ag40
ag32
atp59
Rp60
sS'annealevel'
p61
F21.90000000000004
sS'strng'
p62
(lp63
g22
ag22
ag28
ag22
ag22
ag22
ag34
ag28
ag38
ag30
ag28
ag24
ag24
ag22
ag32
ag24
ag22
ag22
ag34
ag22
ag22
ag22
ag22
ag22
ag22
ag32
ag40
ag22
ag22
ag34
ag30
ag32
ag30
ag22
ag26
ag22
ag38
ag36
ag32
ag22
ag38
ag32
ag28
ag28
ag30
ag22
ag22
ag22
ag30
ag28
ag22
ag22
ag22
ag22
ag22
ag22
ag26
ag22
ag30
ag22
ag30
ag30
ag28
ag30
ag30
ag22
ag22
ag26
ag22
ag22
ag22
ag38
ag30
ag28
ag24
ag22
ag26
asS'csplit'
p64
(lp65
I0
aI1
aI0
aI1
aI0
aI1
aI0
aI1
aI0
aI1
aI0
aI1
aI0
aI1
aI0
aI1
aI1
aI1
aI1
aI0
aI1
aI1
aI1
aI1
aI1
aI1
aI1
aI1
aI1
aI1
aI1
aI1
aI1
aI1
aI1
aI1
aI1
aI1
aI1
aI1
aI1
aI1
aI1
aI1
aI1
aI1
aI1
aI1
aI1
aI1
aI0
aI1
aI1
aI1
aI1
aI1
aI1
aI1
aI1
aI1
aI1
aI0
aI1
aI1
aI1
aI1
aI0
aI1
aI1
aI1
aI1
aI1
aI0
aI1
aI1
aI0
asS'spl'
p66
(lp67
g44
ag18
ag22
ag22
ag42
ag38
ag30
ag28
ag24
ag24
ag22
ag32
ag16
ag22
ag34
aS'11'
p68
ag22
ag22
ag22
ag22
ag32
ag40
ag22
ag22
ag34
ag30
ag32
ag30
ag22
ag26
ag22
ag38
ag36
ag32
ag22
ag38
ag32
ag28
ag28
ag30
ag22
ag22
ag22
ag30
ag28
aS'11'
p69
ag22
ag22
ag22
ag22
ag26
ag22
ag30
ag22
ag30
ag48
ag30
ag30
ag22
ag46
ag22
ag22
ag22
ag38
aS'52'
p70
ag24
asS'ls'
p71
I76
sS'cscore'
p72
F0.4555667480667481
sb.
(i__main__
annealpoint
p0
(dp1
S'ccode'
p2
(dp3
S'lPuiE'
p4
S'd'
p5
sS'rSfCr'
p6
S'k'
p7
sS'VCUUa'
p8
S'q'
p9
sS'ZKddO'
p10
S'b'
p11
sS'0'
p12
S'i'
p13
sS'42'
p14
S'v'
p15
sS'1'
p16
S'o'
p17
sS'mQOer'
p18
S'j'
p19
sS'3'
p20
S'w'
p21
sS'2'
p22
S'e'
p23
sS'5'
p24
S's'
p25
sS'4'
p26
S'y'
p27
sS'7'
p28
S'n'
p29
sS'6'
p30
S'l'
p31
sS'9'
p32
S'u'
p33
sS'811'
p34
S't'
p35
sS'dYLqb'
p36
S'm'
p37
sS'iGvVp'
p38
S'f'
p39
sS'Umvwk'
p40
S'x'
p41
sS'mgAQA'
p42
S'a'
p43
sS'vWQLd'
p44
S'z'
p45
sS'yfWDc'
p46
S'r'
p47
sS'11'
p48
S'h'
p49
sS'15'
p50
S'c'
p51
sS'54'
p52
S'g'
p53
sS'31'
p54
S'p'
p55
ssS'cset'
p56
c__builtin__
set
p57
((lp58
g48
ag50
ag52
ag54
ag14
ag16
ag12
ag20
ag22
ag24
ag26
ag28
ag30
ag32
ag34
atp59
Rp60
sS'annealevel'
p61
F29.200000000000145
sS'strng'
p62
(lp63
g16
ag16
ag22
ag16
ag16
ag16
ag28
ag22
ag32
ag24
ag22
ag12
ag12
ag16
ag26
ag12
ag16
ag16
ag28
ag16
ag16
ag16
ag16
ag16
ag16
ag26
aS'8'
p64
ag16
ag16
ag28
ag24
ag26
ag24
ag16
ag20
ag16
ag32
ag30
ag26
ag16
ag32
ag26
ag22
ag22
ag24
ag16
ag16
ag16
ag24
ag22
ag16
ag16
ag16
ag16
ag16
ag16
ag20
ag16
ag24
ag16
ag24
ag24
ag22
ag24
ag24
ag16
ag16
ag20
ag16
ag16
ag16
ag32
ag24
ag22
ag12
ag16
ag20
asS'csplit'
p65
(lp66
I0
aI1
aI0
aI1
aI0
aI1
aI0
aI1
aI0
aI1
aI0
aI1
aI0
aI1
aI0
aI1
aI1
aI1
aI1
aI1
aI1
aI1
aI1
aI1
aI1
aI1
aI0
aI0
aI1
aI1
aI0
aI1
aI1
aI1
aI1
aI1
aI1
aI1
aI1
aI1
aI1
aI0
aI1
aI1
aI1
aI1
aI1
aI1
aI1
aI1
aI1
aI1
aI0
aI1
aI1
aI1
aI0
aI1
aI1
aI0
aI1
aI1
aI1
aI1
aI1
aI1
aI1
aI1
aI0
aI1
aI1
aI1
aI1
aI1
aI1
aI1
asS'spl'
p67
(lp68
g16
ag16
ag22
ag16
ag16
ag16
ag28
ag22
ag32
ag24
ag22
ag12
ag12
ag16
ag26
ag12
ag16
ag16
ag28
ag16
ag16
ag16
ag16
ag16
ag16
ag26
ag34
ag28
ag52
ag24
ag16
ag20
ag16
ag32
ag30
ag26
ag16
ag32
ag14
ag22
ag24
ag16
ag16
ag16
ag24
ag22
ag16
ag16
ag48
ag16
ag16
ag54
ag24
ag50
ag24
ag22
ag24
ag24
ag16
ag16
ag20
aS'11'
p69
ag16
ag32
ag24
ag22
ag12
ag16
asS'ls'
p70
I76
sS'cscore'
p71
F0.49823879823879824
sb.
(i__main__
annealpoint
p0
(dp1
S'ccode'
p2
(dp3
S'wPomr'
p4
S'n'
p5
sS'vuiRB'
p6
S'v'
p7
sS'vnTpn'
p8
S'b'
p9
sS'172'
p10
S't'
p11
sS'25'
p12
S'y'
p13
sS'yMIKX'
p14
S'z'
p15
sS'tmeui'
p16
S'i'
p17
sS'45'
p18
S'c'
p19
sS'1'
p20
S'r'
p21
sS'0'
p22
S'k'
p23
sS'3'
p24
S'o'
p25
sS'2'
p26
S's'
p27
sS'5'
p28
S'e'
p29
sS'4'
p30
S'h'
p31
sS'7'
p32
S'g'
p33
sS'6'
p34
S'x'
p35
sS'9'
p36
S'l'
p37
sS'8'
p38
S'j'
p39
sS'guYlr'
p40
S'd'
p41
sS'NLJaz'
p42
S'q'
p43
sS'11'
p44
S'p'
p45
sS'12'
p46
S'a'
p47
sS'15'
p48
S'm'
p49
sS'17'
p50
S'f'
p51
sS'31'
p52
S'w'
p53
sS'CsOJJ'
p54
S'u'
p55
ssS'cset'
p56
c__builtin__
set
p57
((lp58
g44
ag12
ag46
ag48
ag50
ag52
ag18
ag20
ag22
ag24
ag26
ag28
ag30
ag32
ag34
ag36
ag38
ag10
atp59
Rp60
sS'annealevel'
p61
F34.40000000000022
sS'strng'
p62
(lp63
g20
ag20
ag26
ag20
ag20
ag20
ag32
ag26
ag36
ag28
ag26
ag22
ag22
ag20
ag30
ag22
ag20
ag20
ag32
ag20
ag20
ag20
ag20
ag20
ag20
ag30
ag38
ag20
ag20
ag32
ag28
ag30
ag28
ag20
ag24
ag20
ag36
ag34
ag30
ag20
ag36
ag30
ag26
ag26
ag28
ag20
ag20
ag20
ag28
ag26
ag20
ag20
ag20
ag20
ag20
ag20
ag24
ag20
ag28
ag20
ag28
ag28
ag26
ag28
ag28
ag20
ag20
ag24
ag20
ag20
ag20
ag36
ag28
ag26
ag22
ag20
ag24
asS'csplit'
p64
(lp65
I0
aI1
aI0
aI1
aI0
aI1
aI0
aI1
aI0
aI1
aI0
aI1
aI0
aI1
aI0
aI1
aI1
aI0
aI1
aI1
aI1
aI1
aI1
aI1
aI1
aI1
aI1
aI1
aI1
aI1
aI1
aI0
aI1
aI1
aI1
aI1
aI1
aI1
aI1
aI1
aI1
aI1
aI1
aI1
aI1
aI0
aI1
aI0
aI1
aI1
aI1
aI1
aI1
aI1
aI1
aI1
aI0
aI1
aI1
aI1
aI1
aI1
aI0
aI1
aI1
aI1
aI1
aI1
aI1
aI1
aI1
aI1
aI1
aI1
aI1
aI1
asS'spl'
p66
(lp67
g20
ag46
ag20
ag20
ag10
ag36
ag28
ag26
ag22
ag22
ag20
ag30
ag22
ag20
ag50
ag20
ag20
ag20
ag20
ag20
ag20
ag30
ag38
ag20
ag20
ag32
ag28
ag18
ag20
ag24
ag20
ag36
ag34
ag30
ag20
ag36
ag30
ag26
ag26
ag28
ag44
ag48
ag26
ag20
ag20
ag20
ag20
ag20
ag20
ag52
ag28
ag20
ag28
ag28
ag12
ag28
ag20
ag20
ag24
ag20
ag20
ag20
ag36
ag28
ag26
ag22
ag20
asS'ls'
p68
I76
sS'cscore'
p69
F0.5203643270309937
sb.
(i__main__
annealpoint
p0
(dp1
S'ccode'
p2
(dp3
S'OqFgq'
p4
S'b'
p5
sS'bUhUG'
p6
S'f'
p7
sS'zAoFv'
p8
S'd'
p9
sS'wehCb'
p10
S'u'
p11
sS'pQMPr'
p12
S'h'
p13
sS'eTEnI'
p14
S'c'
p15
sS'01'
p16
S'm'
p17
sS'21'
p18
S'g'
p19
sS'tYwIK'
p20
S'v'
p21
sS'1'
p22
S'e'
p23
sS'0'
p24
S'p'
p25
sS'3'
p26
S'y'
p27
sS'2'
p28
S'a'
p29
sS'5'
p30
S's'
p31
sS'4'
p32
S'l'
p33
sS'7'
p34
S'n'
p35
sS'6'
p36
S'o'
p37
sS'9'
p38
S't'
p39
sS'8'
p40
S'w'
p41
sS'72'
p42
S'i'
p43
sS'11'
p44
S'r'
p45
sS'13'
p46
S'x'
p47
sS'52'
p48
S'z'
p49
sS'Zepix'
p50
S'j'
p51
sS'CFhYp'
p52
S'k'
p53
sS'zgpbS'
p54
S'q'
p55
ssS'cset'
p56
c__builtin__
set
p57
((lp58
g44
ag46
ag16
ag18
ag48
ag22
ag24
ag26
ag28
ag30
ag42
ag34
ag36
ag38
ag40
ag32
atp59
Rp60
sS'annealevel'
p61
F42.20000000000033
sS'strng'
p62
(lp63
g22
ag22
ag28
ag22
ag22
ag22
ag34
ag28
ag38
ag30
ag28
ag24
ag24
ag22
ag32
ag24
ag22
ag22
ag34
ag22
ag22
ag22
ag22
ag22
ag22
ag32
ag40
ag22
ag22
ag34
ag30
ag32
ag30
ag22
ag26
ag22
ag38
ag36
ag32
ag22
ag38
ag32
ag28
ag28
ag30
ag22
ag22
ag22
ag30
ag28
ag22
ag22
ag22
ag22
ag22
ag22
ag26
ag22
ag30
ag22
ag30
ag30
ag28
ag30
ag30
ag22
ag22
ag26
ag22
ag22
ag22
ag38
ag30
ag28
ag24
ag22
ag26
asS'csplit'
p64
(lp65
I0
aI1
aI0
aI1
aI0
aI1
aI0
aI1
aI0
aI1
aI0
aI1
aI0
aI1
aI0
aI1
aI1
aI1
aI1
aI0
aI1
aI1
aI1
aI1
aI1
aI1
aI1
aI1
aI1
aI1
aI1
aI1
aI1
aI1
aI1
aI1
aI1
aI1
aI1
aI1
aI1
aI1
aI1
aI1
aI1
aI1
aI1
aI1
aI1
aI1
aI0
aI1
aI1
aI1
aI1
aI1
aI1
aI1
aI1
aI1
aI1
aI0
aI1
aI1
aI1
aI1
aI0
aI1
aI1
aI1
aI1
aI1
aI0
aI1
aI1
aI0
asS'spl'
p66
(lp67
g44
ag18
ag22
ag22
ag42
ag38
ag30
ag28
ag24
ag24
ag22
ag32
ag16
ag22
ag34
aS'11'
p68
ag22
ag22
ag22
ag22
ag32
ag40
ag22
ag22
ag34
ag30
ag32
ag30
ag22
ag26
ag22
ag38
ag36
ag32
ag22
ag38
ag32
ag28
ag28
ag30
ag22
ag22
ag22
ag30
ag28
aS'11'
p69
ag22
ag22
ag22
ag22
ag26
ag22
ag30
ag22
ag30
ag48
ag30
ag30
ag22
ag46
ag22
ag22
ag22
ag38
aS'52'
p70
ag24
asS'ls'
p71
I76
sS'cscore'
p72
F0.522096052096052
sb.
(i__main__
annealpoint
p0
(dp1
S'ccode'
p2
(dp3
S'OqFgq'
p4
S'f'
p5
sS'bUhUG'
p6
S'b'
p7
sS'zAoFv'
p8
S'i'
p9
sS'wehCb'
p10
S'c'
p11
sS'pQMPr'
p12
S'q'
p13
sS'eTEnI'
p14
S'z'
p15
sS'01'
p16
S'm'
p17
sS'21'
p18
S'a'
p19
sS'tYwIK'
p20
S'v'
p21
sS'1'
p22
S'e'
p23
sS'0'
p24
S'p'
p25
sS'3'
p26
S'y'
p27
sS'2'
p28
S'o'
p29
sS'5'
p30
S's'
p31
sS'4'
p32
S'l'
p33
sS'7'
p34
S'n'
p35
sS'6'
p36
S'g'
p37
sS'9'
p38
S't'
p39
sS'8'
p40
S'k'
p41
sS'72'
p42
S'd'
p43
sS'11'
p44
S'r'
p45
sS'13'
p46
S'x'
p47
sS'52'
p48
S'h'
p49
sS'Zepix'
p50
S'j'
p51
sS'CFhYp'
p52
S'u'
p53
sS'zgpbS'
p54
S'w'
p55
ssS'cset'
p56
c__builtin__
set
p57
((lp58
g44
ag46
ag16
ag18
ag48
ag22
ag24
ag26
ag28
ag30
ag42
ag34
ag36
ag38
ag40
ag32
atp59
Rp60
sS'annealevel'
p61
F42.30000000000033
sS'strng'
p62
(lp63
g22
ag22
ag28
ag22
ag22
ag22
ag34
ag28
ag38
ag30
ag28
ag24
ag24
ag22
ag32
ag24
ag22
ag22
ag34
ag22
ag22
ag22
ag22
ag22
ag22
ag32
ag40
ag22
ag22
ag34
ag30
ag32
ag30
ag22
ag26
ag22
ag38
ag36
ag32
ag22
ag38
ag32
ag28
ag28
ag30
ag22
ag22
ag22
ag30
ag28
ag22
ag22
ag22
ag22
ag22
ag22
ag26
ag22
ag30
ag22
ag30
ag30
ag28
ag30
ag30
ag22
ag22
ag26
ag22
ag22
ag22
ag38
ag30
ag28
ag24
ag22
ag26
asS'csplit'
p64
(lp65
I0
aI1
aI0
aI1
aI0
aI1
aI0
aI1
aI0
aI1
aI0
aI1
aI0
aI1
aI0
aI1
aI1
aI1
aI1
aI0
aI1
aI1
aI1
aI1
aI1
aI1
aI1
aI1
aI1
aI1
aI1
aI1
aI1
aI1
aI1
aI1
aI1
aI1
aI1
aI1
aI1
aI1
aI1
aI1
aI1
aI1
aI1
aI1
aI1
aI1
aI0
aI1
aI1
aI1
aI1
aI1
aI1
aI1
aI1
aI1
aI1
aI0
aI1
aI1
aI1
aI1
aI0
aI1
aI1
aI1
aI1
aI1
aI0
aI1
aI1
aI0
asS'spl'
p66
(lp67
g44
ag18
ag22
ag22
ag42
ag38
ag30
ag28
ag24
ag24
ag22
ag32
ag16
ag22
ag34
aS'11'
p68
ag22
ag22
ag22
ag22
ag32
ag40
ag22
ag22
ag34
ag30
ag32
ag30
ag22
ag26
ag22
ag38
ag36
ag32
ag22
ag38
ag32
ag28
ag28
ag30
ag22
ag22
ag22
ag30
ag28
aS'11'
p69
ag22
ag22
ag22
ag22
ag26
ag22
ag30
ag22
ag30
ag48
ag30
ag30
ag22
ag46
ag22
ag22
ag22
ag38
aS'52'
p70
ag24
asS'ls'
p71
I76
sS'cscore'
p72
F0.573903133903134
sb.
(i__main__
annealpoint
p0
(dp1
S'ccode'
p2
(dp3
S'wPomr'
p4
S'p'
p5
sS'vuiRB'
p6
S'c'
p7
sS'vnTpn'
p8
S'l'
p9
sS'172'
p10
S'z'
p11
sS'25'
p12
S'd'
p13
sS'yMIKX'
p14
S'j'
p15
sS'tmeui'
p16
S'u'
p17
sS'45'
p18
S'b'
p19
sS'1'
p20
S'r'
p21
sS'0'
p22
S't'
p23
sS'3'
p24
S'o'
p25
sS'2'
p26
S'n'
p27
sS'5'
p28
S'e'
p29
sS'4'
p30
S'i'
p31
sS'7'
p32
S'g'
p33
sS'6'
p34
S's'
p35
sS'9'
p36
S'f'
p37
sS'8'
p38
S'm'
p39
sS'guYlr'
p40
S'w'
p41
sS'NLJaz'
p42
S'q'
p43
sS'11'
p44
S'x'
p45
sS'12'
p46
S'a'
p47
sS'15'
p48
S'v'
p49
sS'17'
p50
S'y'
p51
sS'31'
p52
S'h'
p53
sS'CsOJJ'
p54
S'k'
p55
ssS'cset'
p56
c__builtin__
set
p57
((lp58
g44
ag12
ag46
ag48
ag50
ag52
ag18
ag20
ag22
ag24
ag26
ag28
ag30
ag32
ag34
ag36
ag38
ag10
atp59
Rp60
sS'annealevel'
p61
F57.20000000000054
sS'strng'
p62
(lp63
g20
ag20
ag26
ag20
ag20
ag20
ag32
ag26
ag36
ag28
ag26
ag22
ag22
ag20
ag30
ag22
ag20
ag20
ag32
ag20
ag20
ag20
ag20
ag20
ag20
ag30
ag38
ag20
ag20
ag32
ag28
ag30
ag28
ag20
ag24
ag20
ag36
ag34
ag30
ag20
ag36
ag30
ag26
ag26
ag28
ag20
ag20
ag20
ag28
ag26
ag20
ag20
ag20
ag20
ag20
ag20
ag24
ag20
ag28
ag20
ag28
ag28
ag26
ag28
ag28
ag20
ag20
ag24
ag20
ag20
ag20
ag36
ag28
ag26
ag22
ag20
ag24
asS'csplit'
p64
(lp65
I0
aI1
aI0
aI1
aI0
aI1
aI0
aI1
aI0
aI1
aI0
aI1
aI0
aI1
aI0
aI1
aI1
aI0
aI1
aI1
aI1
aI1
aI1
aI1
aI1
aI1
aI1
aI1
aI1
aI1
aI1
aI0
aI1
aI1
aI1
aI1
aI1
aI1
aI1
aI1
aI1
aI1
aI1
aI1
aI1
aI0
aI1
aI0
aI1
aI1
aI1
aI1
aI1
aI1
aI1
aI1
aI0
aI1
aI1
aI1
aI1
aI1
aI0
aI1
aI1
aI1
aI1
aI1
aI1
aI1
aI1
aI1
aI1
aI1
aI1
aI1
asS'spl'
p66
(lp67
g20
ag46
ag20
ag20
ag10
ag36
ag28
ag26
ag22
ag22
ag20
ag30
ag22
ag20
ag50
ag20
ag20
ag20
ag20
ag20
ag20
ag30
ag38
ag20
ag20
ag32
ag28
ag18
ag20
ag24
ag20
ag36
ag34
ag30
ag20
ag36
ag30
ag26
ag26
ag28
ag44
ag48
ag26
ag20
ag20
ag20
ag20
ag20
ag20
ag52
ag28
ag20
ag28
ag28
ag12
ag28
ag20
ag20
ag24
ag20
ag20
ag20
ag36
ag28
ag26
ag22
ag20
asS'ls'
p68
I76
sS'cscore'
p69
F0.6095596995596996
sb.
(i__main__
annealpoint
p0
(dp1
S'ccode'
p2
(dp3
S'UOOOs'
p4
S'p'
p5
sS'sTLAC'
p6
S'g'
p7
sS'bfwRt'
p8
S'u'
p9
sS'25'
p10
S'o'
p11
sS'01'
p12
S'h'
p13
sS'1'
p14
S'e'
p15
sS'0'
p16
S'c'
p17
sS'3'
p18
S'v'
p19
sS'2'
p20
S'a'
p21
sS'5'
p22
S'n'
p23
sS'4'
p24
S's'
p25
sS'7'
p26
S'w'
p27
sS'9'
p28
S'i'
p29
sS'8'
p30
S'f'
p31
sS'pTDFo'
p32
S't'
p33
sS'AoXCI'
p34
S'q'
p35
sS'YKyxr'
p36
S'x'
p37
sS'75'
p38
S'm'
p39
sS'JwbVD'
p40
S'j'
p41
sS'96'
p42
S'r'
p43
sS'11'
p44
S'd'
p45
sS'13'
p46
S'b'
p47
sS'15'
p48
S'l'
p49
sS'JxtLx'
p50
S'z'
p51
sS'cVSec'
p52
S'k'
p53
sS'UlCzH'
p54
S'y'
p55
ssS'cset'
p56
c__builtin__
set
p57
((lp58
g44
ag10
ag46
ag12
ag48
ag18
ag14
ag16
ag38
ag20
ag22
ag24
ag26
ag28
ag30
ag42
atp59
Rp60
sS'annealevel'
p61
F70.10000000000029
sS'strng'
p62
(lp63
g14
ag14
ag20
ag14
ag14
ag14
ag26
ag20
ag28
ag22
ag20
ag16
ag16
ag14
ag24
ag16
ag14
ag14
ag26
ag14
ag14
ag14
ag14
ag14
ag14
ag24
ag30
ag14
ag14
ag26
ag22
ag24
ag22
ag14
ag18
ag14
ag28
aS'6'
p64
ag24
ag14
ag28
ag24
ag20
ag20
ag22
ag14
ag14
ag14
ag22
ag20
ag14
ag14
ag14
ag14
ag14
ag14
ag18
ag14
ag22
ag14
ag22
ag22
ag20
ag22
ag22
ag14
ag14
ag18
ag14
ag14
ag14
ag28
ag22
ag20
ag16
ag14
ag18
asS'csplit'
p65
(lp66
I0
aI1
aI0
aI1
aI0
aI1
aI0
aI1
aI0
aI1
aI0
aI1
aI0
aI1
aI0
aI1
aI1
aI1
aI1
aI1
aI1
aI1
aI1
aI0
aI1
aI1
aI1
aI1
aI1
aI0
aI1
aI1
aI1
aI1
aI1
aI1
aI0
aI1
aI1
aI1
aI1
aI1
aI1
aI1
aI1
aI1
aI1
aI0
aI1
aI1
aI1
aI1
aI1
aI1
aI1
aI1
aI1
aI1
aI1
aI1
aI1
aI1
aI0
aI1
aI1
aI1
aI0
aI1
aI1
aI0
aI1
aI1
aI1
aI1
aI0
aI1
asS'spl'
p67
(lp68
g14
ag14
ag20
ag44
ag14
ag26
ag20
ag28
ag22
ag20
ag16
ag16
ag14
ag24
ag16
ag14
ag14
ag26
ag14
ag14
ag14
ag14
aS'11'
p69
ag24
ag30
ag14
ag14
ag38
ag24
ag22
ag14
ag18
ag14
ag42
ag24
ag14
ag28
ag24
ag20
ag20
ag22
ag14
ag14
ag48
ag20
ag14
ag14
ag14
ag14
ag14
ag14
ag18
ag14
ag22
ag14
ag22
ag22
ag10
ag22
ag14
ag46
ag14
aS'11'
p70
ag28
ag22
ag20
ag12
asS'ls'
p71
I76
sS'cscore'
p72
F0.6235172235172235
sb.
(i__main__
annealpoint
p0
(dp1
S'ccode'
p2
(dp3
S'UOOOs'
p4
S'f'
p5
sS'sTLAC'
p6
S'y'
p7
sS'bfwRt'
p8
S'b'
p9
sS'25'
p10
S'o'
p11
sS'01'
p12
S'j'
p13
sS'1'
p14
S'e'
p15
sS'0'
p16
S'c'
p17
sS'3'
p18
S'v'
p19
sS'2'
p20
S'a'
p21
sS'5'
p22
S'n'
p23
sS'4'
p24
S's'
p25
sS'7'
p26
S't'
p27
sS'9'
p28
S'i'
p29
sS'8'
p30
S'l'
p31
sS'pTDFo'
p32
S'k'
p33
sS'AoXCI'
p34
S'm'
p35
sS'YKyxr'
p36
S'u'
p37
sS'75'
p38
S'h'
p39
sS'JwbVD'
p40
S'z'
p41
sS'96'
p42
S'r'
p43
sS'11'
p44
S'd'
p45
sS'13'
p46
S'g'
p47
sS'15'
p48
S'x'
p49
sS'JxtLx'
p50
S'w'
p51
sS'cVSec'
p52
S'p'
p53
sS'UlCzH'
p54
S'q'
p55
ssS'cset'
p56
c__builtin__
set
p57
((lp58
g44
ag10
ag46
ag12
ag48
ag18
ag14
ag16
ag38
ag20
ag22
ag24
ag26
ag28
ag30
ag42
atp59
Rp60
sS'annealevel'
p61
F70.30000000000028
sS'strng'
p62
(lp63
g14
ag14
ag20
ag14
ag14
ag14
ag26
ag20
ag28
ag22
ag20
ag16
ag16
ag14
ag24
ag16
ag14
ag14
ag26
ag14
ag14
ag14
ag14
ag14
ag14
ag24
ag30
ag14
ag14
ag26
ag22
ag24
ag22
ag14
ag18
ag14
ag28
aS'6'
p64
ag24
ag14
ag28
ag24
ag20
ag20
ag22
ag14
ag14
ag14
ag22
ag20
ag14
ag14
ag14
ag14
ag14
ag14
ag18
ag14
ag22
ag14
ag22
ag22
ag20
ag22
ag22
ag14
ag14
ag18
ag14
ag14
ag14
ag28
ag22
ag20
ag16
ag14
ag18
asS'csplit'
p65
(lp66
I0
aI1
aI0
aI1
aI0
aI1
aI0
aI1
aI0
aI1
aI0
aI1
aI0
aI1
aI0
aI1
aI1
aI1
aI1
aI1
aI1
aI1
aI1
aI0
aI1
aI1
aI1
aI1
aI1
aI0
aI1
aI1
aI1
aI1
aI1
aI1
aI0
aI1
aI1
aI1
aI1
aI1
aI1
aI1
aI1
aI1
aI1
aI0
aI1
aI1
aI1
aI1
aI1
aI1
aI1
aI1
aI1
aI1
aI1
aI1
aI1
aI1
aI0
aI1
aI1
aI1
aI0
aI1
aI1
aI0
aI1
aI1
aI1
aI1
aI0
aI1
asS'spl'
p67
(lp68
g14
ag14
ag20
ag44
ag14
ag26
ag20
ag28
ag22
ag20
ag16
ag16
ag14
ag24
ag16
ag14
ag14
ag26
ag14
ag14
ag14
ag14
aS'11'
p69
ag24
ag30
ag14
ag14
ag38
ag24
ag22
ag14
ag18
ag14
ag42
ag24
ag14
ag28
ag24
ag20
ag20
ag22
ag14
ag14
ag48
ag20
ag14
ag14
ag14
ag14
ag14
ag14
ag18
ag14
ag22
ag14
ag22
ag22
ag10
ag22
ag14
ag46
ag14
aS'11'
p70
ag28
ag22
ag20
ag12
asS'ls'
p71
I76
sS'cscore'
p72
F0.6391867391867392
sb.
(i__main__
annealpoint
p0
(dp1
S'ccode'
p2
(dp3
S'UOOOs'
p4
S'f'
p5
sS'sTLAC'
p6
S'y'
p7
sS'bfwRt'
p8
S'm'
p9
sS'25'
p10
S'o'
p11
sS'01'
p12
S'u'
p13
sS'1'
p14
S'e'
p15
sS'0'
p16
S'c'
p17
sS'3'
p18
S'v'
p19
sS'2'
p20
S'a'
p21
sS'5'
p22
S'n'
p23
sS'4'
p24
S's'
p25
sS'7'
p26
S'p'
p27
sS'9'
p28
S'i'
p29
sS'8'
p30
S'l'
p31
sS'pTDFo'
p32
S'w'
p33
sS'AoXCI'
p34
S'x'
p35
sS'YKyxr'
p36
S'j'
p37
sS'75'
p38
S'k'
p39
sS'JwbVD'
p40
S'z'
p41
sS'96'
p42
S'r'
p43
sS'11'
p44
S'd'
p45
sS'13'
p46
S'g'
p47
sS'15'
p48
S'h'
p49
sS'JxtLx'
p50
S'q'
p51
sS'cVSec'
p52
S't'
p53
sS'UlCzH'
p54
S'b'
p55
ssS'cset'
p56
c__builtin__
set
p57
((lp58
g44
ag10
ag46
ag12
ag48
ag18
ag14
ag16
ag38
ag20
ag22
ag24
ag26
ag28
ag30
ag42
atp59
Rp60
sS'annealevel'
p61
F70.40000000000028
sS'strng'
p62
(lp63
g14
ag14
ag20
ag14
ag14
ag14
ag26
ag20
ag28
ag22
ag20
ag16
ag16
ag14
ag24
ag16
ag14
ag14
ag26
ag14
ag14
ag14
ag14
ag14
ag14
ag24
ag30
ag14
ag14
ag26
ag22
ag24
ag22
ag14
ag18
ag14
ag28
aS'6'
p64
ag24
ag14
ag28
ag24
ag20
ag20
ag22
ag14
ag14
ag14
ag22
ag20
ag14
ag14
ag14
ag14
ag14
ag14
ag18
ag14
ag22
ag14
ag22
ag22
ag20
ag22
ag22
ag14
ag14
ag18
ag14
ag14
ag14
ag28
ag22
ag20
ag16
ag14
ag18
asS'csplit'
p65
(lp66
I0
aI1
aI0
aI1
aI0
aI1
aI0
aI1
aI0
aI1
aI0
aI1
aI0
aI1
aI0
aI1
aI1
aI1
aI1
aI1
aI1
aI1
aI1
aI0
aI1
aI1
aI1
aI1
aI1
aI0
aI1
aI1
aI1
aI1
aI1
aI1
aI0
aI1
aI1
aI1
aI1
aI1
aI1
aI1
aI1
aI1
aI1
aI0
aI1
aI1
aI1
aI1
aI1
aI1
aI1
aI1
aI1
aI1
aI1
aI1
aI1
aI1
aI0
aI1
aI1
aI1
aI0
aI1
aI1
aI0
aI1
aI1
aI1
aI1
aI0
aI1
asS'spl'
p67
(lp68
g14
ag14
ag20
ag44
ag14
ag26
ag20
ag28
ag22
ag20
ag16
ag16
ag14
ag24
ag16
ag14
ag14
ag26
ag14
ag14
ag14
ag14
aS'11'
p69
ag24
ag30
ag14
ag14
ag38
ag24
ag22
ag14
ag18
ag14
ag42
ag24
ag14
ag28
ag24
ag20
ag20
ag22
ag14
ag14
ag48
ag20
ag14
ag14
ag14
ag14
ag14
ag14
ag18
ag14
ag22
ag14
ag22
ag22
ag10
ag22
ag14
ag46
ag14
aS'11'
p70
ag28
ag22
ag20
ag12
asS'ls'
p71
I76
sS'cscore'
p72
F0.6651126651126651
sb.
(i__main__
annealpoint
p0
(dp1
S'ccode'
p2
(dp3
S'wPomr'
p4
S'x'
p5
sS'vuiRB'
p6
S'j'
p7
sS'vnTpn'
p8
S'l'
p9
sS'172'
p10
S'z'
p11
sS'25'
p12
S'v'
p13
sS'yMIKX'
p14
S'n'
p15
sS'tmeui'
p16
S'k'
p17
sS'45'
p18
S'f'
p19
sS'1'
p20
S'r'
p21
sS'0'
p22
S't'
p23
sS'3'
p24
S'o'
p25
sS'2'
p26
S's'
p27
sS'5'
p28
S'e'
p29
sS'4'
p30
S'y'
p31
sS'7'
p32
S'c'
p33
sS'6'
p34
S'd'
p35
sS'9'
p36
S'i'
p37
sS'8'
p38
S'p'
p39
sS'guYlr'
p40
S'g'
p41
sS'NLJaz'
p42
S'h'
p43
sS'11'
p44
S'm'
p45
sS'12'
p46
S'a'
p47
sS'15'
p48
S'b'
p49
sS'17'
p50
S'u'
p51
sS'31'
p52
S'w'
p53
sS'CsOJJ'
p54
S'q'
p55
ssS'cset'
p56
c__builtin__
set
p57
((lp58
g44
ag12
ag46
ag48
ag50
ag52
ag18
ag20
ag22
ag24
ag26
ag28
ag30
ag32
ag34
ag36
ag38
ag10
atp59
Rp60
sS'annealevel'
p61
F83.39999999999954
sS'strng'
p62
(lp63
g20
ag20
ag26
ag20
ag20
ag20
ag32
ag26
ag36
ag28
ag26
ag22
ag22
ag20
ag30
ag22
ag20
ag20
ag32
ag20
ag20
ag20
ag20
ag20
ag20
ag30
ag38
ag20
ag20
ag32
ag28
ag30
ag28
ag20
ag24
ag20
ag36
ag34
ag30
ag20
ag36
ag30
ag26
ag26
ag28
ag20
ag20
ag20
ag28
ag26
ag20
ag20
ag20
ag20
ag20
ag20
ag24
ag20
ag28
ag20
ag28
ag28
ag26
ag28
ag28
ag20
ag20
ag24
ag20
ag20
ag20
ag36
ag28
ag26
ag22
ag20
ag24
asS'csplit'
p64
(lp65
I0
aI1
aI0
aI1
aI0
aI1
aI0
aI1
aI0
aI1
aI0
aI1
aI0
aI1
aI0
aI1
aI1
aI0
aI1
aI1
aI1
aI1
aI1
aI1
aI1
aI1
aI1
aI1
aI1
aI1
aI1
aI0
aI1
aI1
aI1
aI1
aI1
aI1
aI1
aI1
aI1
aI1
aI1
aI1
aI1
aI0
aI1
aI0
aI1
aI1
aI1
aI1
aI1
aI1
aI1
aI1
aI0
aI1
aI1
aI1
aI1
aI1
aI0
aI1
aI1
aI1
aI1
aI1
aI1
aI1
aI1
aI1
aI1
aI1
aI1
aI1
asS'spl'
p66
(lp67
g20
ag46
ag20
ag20
ag10
ag36
ag28
ag26
ag22
ag22
ag20
ag30
ag22
ag20
ag50
ag20
ag20
ag20
ag20
ag20
ag20
ag30
ag38
ag20
ag20
ag32
ag28
ag18
ag20
ag24
ag20
ag36
ag34
ag30
ag20
ag36
ag30
ag26
ag26
ag28
ag44
ag48
ag26
ag20
ag20
ag20
ag20
ag20
ag20
ag52
ag28
ag20
ag28
ag28
ag12
ag28
ag20
ag20
ag24
ag20
ag20
ag20
ag36
ag28
ag26
ag22
ag20
asS'ls'
p68
I76
sS'cscore'
p69
F0.691895881895882
sb.
(i__main__
annealpoint
p0
(dp1
S'ccode'
p2
(dp3
S'OqFgq'
p4
S'z'
p5
sS'bUhUG'
p6
S'x'
p7
sS'zAoFv'
p8
S'q'
p9
sS'wehCb'
p10
S'f'
p11
sS'pQMPr'
p12
S'u'
p13
sS'eTEnI'
p14
S'v'
p15
sS'01'
p16
S'p'
p17
sS'21'
p18
S'a'
p19
sS'tYwIK'
p20
S'j'
p21
sS'1'
p22
S'o'
p23
sS'0'
p24
S'd'
p25
sS'3'
p26
S'l'
p27
sS'2'
p28
S'e'
p29
sS'5'
p30
S'n'
p31
sS'4'
p32
S's'
p33
sS'7'
p34
S't'
p35
sS'6'
p36
S'y'
p37
sS'9'
p38
S'g'
p39
sS'8'
p40
S'm'
p41
sS'72'
p42
S'b'
p43
sS'11'
p44
S'r'
p45
sS'13'
p46
S'c'
p47
sS'52'
p48
S'i'
p49
sS'Zepix'
p50
S'h'
p51
sS'CFhYp'
p52
S'k'
p53
sS'zgpbS'
p54
S'w'
p55
ssS'cset'
p56
c__builtin__
set
p57
((lp58
g44
ag46
ag16
ag18
ag48
ag22
ag24
ag26
ag28
ag30
ag42
ag34
ag36
ag38
ag40
ag32
atp59
Rp60
sS'annealevel'
p61
F89.69999999999918
sS'strng'
p62
(lp63
g22
ag22
ag28
ag22
ag22
ag22
ag34
ag28
ag38
ag30
ag28
ag24
ag24
ag22
ag32
ag24
ag22
ag22
ag34
ag22
ag22
ag22
ag22
ag22
ag22
ag32
ag40
ag22
ag22
ag34
ag30
ag32
ag30
ag22
ag26
ag22
ag38
ag36
ag32
ag22
ag38
ag32
ag28
ag28
ag30
ag22
ag22
ag22
ag30
ag28
ag22
ag22
ag22
ag22
ag22
ag22
ag26
ag22
ag30
ag22
ag30
ag30
ag28
ag30
ag30
ag22
ag22
ag26
ag22
ag22
ag22
ag38
ag30
ag28
ag24
ag22
ag26
asS'csplit'
p64
(lp65
I0
aI1
aI0
aI1
aI0
aI1
aI0
aI1
aI0
aI1
aI0
aI1
aI0
aI1
aI0
aI1
aI1
aI1
aI1
aI0
aI1
aI1
aI1
aI1
aI1
aI1
aI1
aI1
aI1
aI1
aI1
aI1
aI1
aI1
aI1
aI1
aI1
aI1
aI1
aI1
aI1
aI1
aI1
aI1
aI1
aI1
aI1
aI1
aI1
aI1
aI0
aI1
aI1
aI1
aI1
aI1
aI1
aI1
aI1
aI1
aI1
aI0
aI1
aI1
aI1
aI1
aI0
aI1
aI1
aI1
aI1
aI1
aI0
aI1
aI1
aI0
asS'spl'
p66
(lp67
g44
ag18
ag22
ag22
ag42
ag38
ag30
ag28
ag24
ag24
ag22
ag32
ag16
ag22
ag34
aS'11'
p68
ag22
ag22
ag22
ag22
ag32
ag40
ag22
ag22
ag34
ag30
ag32
ag30
ag22
ag26
ag22
ag38
ag36
ag32
ag22
ag38
ag32
ag28
ag28
ag30
ag22
ag22
ag22
ag30
ag28
aS'11'
p69
ag22
ag22
ag22
ag22
ag26
ag22
ag30
ag22
ag30
ag48
ag30
ag30
ag22
ag46
ag22
ag22
ag22
ag38
aS'52'
p70
ag24
asS'ls'
p71
I76
sS'cscore'
p72
F0.6921367521367522
sb.
(i__main__
annealpoint
p0
(dp1
S'ccode'
p2
(dp3
S'wPomr'
p4
S'd'
p5
sS'vuiRB'
p6
S'j'
p7
sS'vnTpn'
p8
S'f'
p9
sS'172'
p10
S'k'
p11
sS'25'
p12
S'y'
p13
sS'yMIKX'
p14
S'x'
p15
sS'tmeui'
p16
S'b'
p17
sS'45'
p18
S'c'
p19
sS'1'
p20
S'r'
p21
sS'0'
p22
S'o'
p23
sS'3'
p24
S'u'
p25
sS'2'
p26
S's'
p27
sS'5'
p28
S'e'
p29
sS'4'
p30
S't'
p31
sS'7'
p32
S'v'
p33
sS'6'
p34
S'n'
p35
sS'9'
p36
S'i'
p37
sS'8'
p38
S'p'
p39
sS'guYlr'
p40
S'h'
p41
sS'NLJaz'
p42
S'z'
p43
sS'11'
p44
S'g'
p45
sS'12'
p46
S'a'
p47
sS'15'
p48
S'm'
p49
sS'17'
p50
S'l'
p51
sS'31'
p52
S'w'
p53
sS'CsOJJ'
p54
S'q'
p55
ssS'cset'
p56
c__builtin__
set
p57
((lp58
g44
ag12
ag46
ag48
ag50
ag52
ag18
ag20
ag22
ag24
ag26
ag28
ag30
ag32
ag34
ag36
ag38
ag10
atp59
Rp60
sS'annealevel'
p61
F99.9999999999986
sS'strng'
p62
(lp63
g20
ag20
ag26
ag20
ag20
ag20
ag32
ag26
ag36
ag28
ag26
ag22
ag22
ag20
ag30
ag22
ag20
ag20
ag32
ag20
ag20
ag20
ag20
ag20
ag20
ag30
ag38
ag20
ag20
ag32
ag28
ag30
ag28
ag20
ag24
ag20
ag36
ag34
ag30
ag20
ag36
ag30
ag26
ag26
ag28
ag20
ag20
ag20
ag28
ag26
ag20
ag20
ag20
ag20
ag20
ag20
ag24
ag20
ag28
ag20
ag28
ag28
ag26
ag28
ag28
ag20
ag20
ag24
ag20
ag20
ag20
ag36
ag28
ag26
ag22
ag20
ag24
asS'csplit'
p64
(lp65
I0
aI1
aI0
aI1
aI0
aI1
aI0
aI1
aI0
aI1
aI0
aI1
aI0
aI1
aI0
aI1
aI1
aI0
aI1
aI1
aI1
aI1
aI1
aI1
aI1
aI1
aI1
aI1
aI1
aI1
aI1
aI0
aI1
aI1
aI1
aI1
aI1
aI1
aI1
aI1
aI1
aI1
aI1
aI1
aI1
aI0
aI1
aI0
aI1
aI1
aI1
aI1
aI1
aI1
aI1
aI1
aI0
aI1
aI1
aI1
aI1
aI1
aI0
aI1
aI1
aI1
aI1
aI1
aI1
aI1
aI1
aI1
aI1
aI1
aI1
aI1
asS'spl'
p66
(lp67
g20
ag46
ag20
ag20
ag10
ag36
ag28
ag26
ag22
ag22
ag20
ag30
ag22
ag20
ag50
ag20
ag20
ag20
ag20
ag20
ag20
ag30
ag38
ag20
ag20
ag32
ag28
ag18
ag20
ag24
ag20
ag36
ag34
ag30
ag20
ag36
ag30
ag26
ag26
ag28
ag44
ag48
ag26
ag20
ag20
ag20
ag20
ag20
ag20
ag52
ag28
ag20
ag28
ag28
ag12
ag28
ag20
ag20
ag24
ag20
ag20
ag20
ag36
ag28
ag26
ag22
ag20
asS'ls'
p68
I76
sS'cscore'
p69
F0.6964542864542865
sb.
(i__main__
annealpoint
p0
(dp1
S'ccode'
p2
(dp3
S'OqFgq'
p4
S'w'
p5
sS'bUhUG'
p6
S'l'
p7
sS'zAoFv'
p8
S'q'
p9
sS'wehCb'
p10
S'z'
p11
sS'pQMPr'
p12
S'c'
p13
sS'eTEnI'
p14
S'x'
p15
sS'01'
p16
S't'
p17
sS'21'
p18
S'a'
p19
sS'tYwIK'
p20
S'k'
p21
sS'1'
p22
S'o'
p23
sS'0'
p24
S'm'
p25
sS'3'
p26
S'b'
p27
sS'2'
p28
S'e'
p29
sS'5'
p30
S'n'
p31
sS'4'
p32
S's'
p33
sS'7'
p34
S'f'
p35
sS'6'
p36
S'p'
p37
sS'9'
p38
S'u'
p39
sS'8'
p40
S'g'
p41
sS'72'
p42
S'h'
p43
sS'11'
p44
S'r'
p45
sS'13'
p46
S'd'
p47
sS'52'
p48
S'i'
p49
sS'Zepix'
p50
S'v'
p51
sS'CFhYp'
p52
S'j'
p53
sS'zgpbS'
p54
S'y'
p55
ssS'cset'
p56
c__builtin__
set
p57
((lp58
g44
ag46
ag16
ag18
ag48
ag22
ag24
ag26
ag28
ag30
ag42
ag34
ag36
ag38
ag40
ag32
atp59
Rp60
sS'annealevel'
p61
F107.19999999999818
sS'strng'
p62
(lp63
g22
ag22
ag28
ag22
ag22
ag22
ag34
ag28
ag38
ag30
ag28
ag24
ag24
ag22
ag32
ag24
ag22
ag22
ag34
ag22
ag22
ag22
ag22
ag22
ag22
ag32
ag40
ag22
ag22
ag34
ag30
ag32
ag30
ag22
ag26
ag22
ag38
ag36
ag32
ag22
ag38
ag32
ag28
ag28
ag30
ag22
ag22
ag22
ag30
ag28
ag22
ag22
ag22
ag22
ag22
ag22
ag26
ag22
ag30
ag22
ag30
ag30
ag28
ag30
ag30
ag22
ag22
ag26
ag22
ag22
ag22
ag38
ag30
ag28
ag24
ag22
ag26
asS'csplit'
p64
(lp65
I0
aI1
aI0
aI1
aI0
aI1
aI0
aI1
aI0
aI1
aI0
aI1
aI0
aI1
aI0
aI1
aI1
aI1
aI1
aI0
aI1
aI1
aI1
aI1
aI1
aI1
aI1
aI1
aI1
aI1
aI1
aI1
aI1
aI1
aI1
aI1
aI1
aI1
aI1
aI1
aI1
aI1
aI1
aI1
aI1
aI1
aI1
aI1
aI1
aI1
aI0
aI1
aI1
aI1
aI1
aI1
aI1
aI1
aI1
aI1
aI1
aI0
aI1
aI1
aI1
aI1
aI0
aI1
aI1
aI1
aI1
aI1
aI0
aI1
aI1
aI0
asS'spl'
p66
(lp67
g44
ag18
ag22
ag22
ag42
ag38
ag30
ag28
ag24
ag24
ag22
ag32
ag16
ag22
ag34
aS'11'
p68
ag22
ag22
ag22
ag22
ag32
ag40
ag22
ag22
ag34
ag30
ag32
ag30
ag22
ag26
ag22
ag38
ag36
ag32
ag22
ag38
ag32
ag28
ag28
ag30
ag22
ag22
ag22
ag30
ag28
aS'11'
p69
ag22
ag22
ag22
ag22
ag26
ag22
ag30
ag22
ag30
ag48
ag30
ag30
ag22
ag46
ag22
ag22
ag22
ag38
aS'52'
p70
ag24
asS'ls'
p71
I76
sS'cscore'
p72
F0.702922262922263
sb.
(i__main__
annealpoint
p0
(dp1
S'ccode'
p2
(dp3
S'oTkkr'
p4
S'j'
p5
sS'DZxuN'
p6
S'w'
p7
sS'20'
p8
S'q'
p9
sS'48'
p10
S'k'
p11
sS'LgQMb'
p12
S'f'
p13
sS'xNOkc'
p14
S'y'
p15
sS'1'
p16
S'e'
p17
sS'0'
p18
S't'
p19
sS'3'
p20
S'p'
p21
sS'2'
p22
S'a'
p23
sS'5'
p24
S'd'
p25
sS'4'
p26
S's'
p27
sS'7'
p28
S'l'
p29
sS'6'
p30
S'o'
p31
sS'9'
p32
S'u'
p33
sS'WDucF'
p34
S'b'
p35
sS'eAcXj'
p36
S'i'
p37
sS'YFkFv'
p38
S'x'
p39
sS'95'
p40
S'n'
p41
sS'11'
p42
S'r'
p43
sS'19'
p44
S'h'
p45
sS'aHYJp'
p46
S'm'
p47
sS'ZnMvb'
p48
S'g'
p49
sS'keCzS'
p50
S'z'
p51
sS'wMlet'
p52
S'c'
p53
sS'NOnDl'
p54
S'v'
p55
ssS'cset'
p56
c__builtin__
set
p57
((lp58
g42
ag8
ag10
ag44
ag16
ag18
ag20
ag22
ag24
ag26
ag28
ag30
ag32
ag40
atp59
Rp60
sS'annealevel'
p61
F83.49999999999953
sS'strng'
p62
(lp63
g16
ag16
ag22
ag16
ag16
ag16
ag28
ag22
ag32
ag24
ag22
ag18
ag18
ag16
ag26
ag18
ag16
ag16
ag28
ag16
ag16
ag16
ag16
ag16
ag16
ag26
aS'8'
p64
ag16
ag16
ag28
ag24
ag26
ag24
ag16
ag20
ag16
ag32
ag30
ag26
ag16
ag32
ag26
ag22
ag22
ag24
ag16
ag16
ag16
ag24
ag22
ag16
ag16
ag16
ag16
ag16
ag16
ag20
ag16
ag24
ag16
ag24
ag24
ag22
ag24
ag24
ag16
ag16
ag20
ag16
ag16
ag16
ag32
ag24
ag22
ag18
ag16
ag20
asS'csplit'
p65
(lp66
I0
aI1
aI0
aI1
aI0
aI1
aI0
aI1
aI0
aI1
aI0
aI1
aI0
aI1
aI0
aI1
aI1
aI1
aI1
aI0
aI1
aI1
aI1
aI1
aI1
aI0
aI1
aI0
aI1
aI1
aI1
aI1
aI1
aI1
aI1
aI0
aI1
aI1
aI1
aI1
aI1
aI1
aI1
aI1
aI1
aI1
aI0
aI1
aI1
aI1
aI1
aI1
aI0
aI1
aI1
aI1
aI1
aI1
aI1
aI1
aI1
aI1
aI1
aI1
aI1
aI1
aI1
aI1
aI1
aI0
aI1
aI1
aI1
aI0
aI1
aI1
asS'spl'
p67
(lp68
g42
ag22
ag16
ag16
ag16
ag28
ag22
ag40
ag22
ag18
ag18
ag16
ag26
ag18
ag16
ag16
ag28
aS'11'
p69
ag16
ag16
ag16
ag16
ag10
aS'11'
p70
ag28
ag24
ag26
ag24
ag16
ag20
ag44
ag30
ag26
ag16
ag32
ag26
ag22
ag22
ag24
ag16
aS'11'
p71
ag24
ag22
ag16
ag16
aS'11'
p72
ag16
ag16
ag20
ag16
ag24
ag16
ag24
ag24
ag22
ag24
ag24
ag16
ag16
ag20
ag16
aS'11'
p73
ag32
ag24
ag8
ag16
asS'ls'
p74
I76
sS'cscore'
p75
F0.7242897842897843
sb.
(i__main__
annealpoint
p0
(dp1
S'ccode'
p2
(dp3
S'oTkkr'
p4
S'j'
p5
sS'DZxuN'
p6
S'b'
p7
sS'20'
p8
S'g'
p9
sS'48'
p10
S'z'
p11
sS'LgQMb'
p12
S'h'
p13
sS'xNOkc'
p14
S'w'
p15
sS'1'
p16
S'e'
p17
sS'0'
p18
S't'
p19
sS'3'
p20
S'p'
p21
sS'2'
p22
S'a'
p23
sS'5'
p24
S'd'
p25
sS'4'
p26
S's'
p27
sS'7'
p28
S'l'
p29
sS'6'
p30
S'u'
p31
sS'9'
p32
S'i'
p33
sS'WDucF'
p34
S'f'
p35
sS'eAcXj'
p36
S'k'
p37
sS'YFkFv'
p38
S'y'
p39
sS'95'
p40
S'n'
p41
sS'11'
p42
S'r'
p43
sS'19'
p44
S'o'
p45
sS'aHYJp'
p46
S'q'
p47
sS'ZnMvb'
p48
S'x'
p49
sS'keCzS'
p50
S'm'
p51
sS'wMlet'
p52
S'c'
p53
sS'NOnDl'
p54
S'v'
p55
ssS'cset'
p56
c__builtin__
set
p57
((lp58
g42
ag8
ag10
ag44
ag16
ag18
ag20
ag22
ag24
ag26
ag28
ag30
ag32
ag40
atp59
Rp60
sS'annealevel'
p61
F84.29999999999949
sS'strng'
p62
(lp63
g16
ag16
ag22
ag16
ag16
ag16
ag28
ag22
ag32
ag24
ag22
ag18
ag18
ag16
ag26
ag18
ag16
ag16
ag28
ag16
ag16
ag16
ag16
ag16
ag16
ag26
aS'8'
p64
ag16
ag16
ag28
ag24
ag26
ag24
ag16
ag20
ag16
ag32
ag30
ag26
ag16
ag32
ag26
ag22
ag22
ag24
ag16
ag16
ag16
ag24
ag22
ag16
ag16
ag16
ag16
ag16
ag16
ag20
ag16
ag24
ag16
ag24
ag24
ag22
ag24
ag24
ag16
ag16
ag20
ag16
ag16
ag16
ag32
ag24
ag22
ag18
ag16
ag20
asS'csplit'
p65
(lp66
I0
aI1
aI0
aI1
aI0
aI1
aI0
aI1
aI0
aI1
aI0
aI1
aI0
aI1
aI0
aI1
aI1
aI1
aI1
aI0
aI1
aI1
aI1
aI1
aI1
aI0
aI1
aI0
aI1
aI1
aI1
aI1
aI1
aI1
aI1
aI0
aI1
aI1
aI1
aI1
aI1
aI1
aI1
aI1
aI1
aI1
aI0
aI1
aI1
aI1
aI1
aI1
aI0
aI1
aI1
aI1
aI1
aI1
aI1
aI1
aI1
aI1
aI1
aI1
aI1
aI1
aI1
aI1
aI1
aI0
aI1
aI1
aI1
aI0
aI1
aI1
asS'spl'
p67
(lp68
g42
ag22
ag16
ag16
ag16
ag28
ag22
ag40
ag22
ag18
ag18
ag16
ag26
ag18
ag16
ag16
ag28
aS'11'
p69
ag16
ag16
ag16
ag16
ag10
aS'11'
p70
ag28
ag24
ag26
ag24
ag16
ag20
ag44
ag30
ag26
ag16
ag32
ag26
ag22
ag22
ag24
ag16
aS'11'
p71
ag24
ag22
ag16
ag16
aS'11'
p72
ag16
ag16
ag20
ag16
ag24
ag16
ag24
ag24
ag22
ag24
ag24
ag16
ag16
ag20
ag16
aS'11'
p73
ag32
ag24
ag8
ag16
asS'ls'
p74
I76
sS'cscore'
p75
F0.7288481888481889
sb.
(i__main__
annealpoint
p0
(dp1
S'ccode'
p2
(dp3
S'oTkkr'
p4
S'n'
p5
sS'DZxuN'
p6
S'q'
p7
sS'20'
p8
S'b'
p9
sS'48'
p10
S'o'
p11
sS'LgQMb'
p12
S'f'
p13
sS'xNOkc'
p14
S'x'
p15
sS'1'
p16
S'e'
p17
sS'0'
p18
S't'
p19
sS'3'
p20
S'p'
p21
sS'2'
p22
S'a'
p23
sS'5'
p24
S'd'
p25
sS'4'
p26
S's'
p27
sS'7'
p28
S'l'
p29
sS'6'
p30
S'u'
p31
sS'9'
p32
S'i'
p33
sS'WDucF'
p34
S'g'
p35
sS'eAcXj'
p36
S'w'
p37
sS'YFkFv'
p38
S'j'
p39
sS'95'
p40
S'm'
p41
sS'11'
p42
S'r'
p43
sS'19'
p44
S'c'
p45
sS'aHYJp'
p46
S'h'
p47
sS'ZnMvb'
p48
S'v'
p49
sS'keCzS'
p50
S'z'
p51
sS'wMlet'
p52
S'y'
p53
sS'NOnDl'
p54
S'k'
p55
ssS'cset'
p56
c__builtin__
set
p57
((lp58
g42
ag8
ag10
ag44
ag16
ag18
ag20
ag22
ag24
ag26
ag28
ag30
ag32
ag40
atp59
Rp60
sS'annealevel'
p61
F85.99999999999939
sS'strng'
p62
(lp63
g16
ag16
ag22
ag16
ag16
ag16
ag28
ag22
ag32
ag24
ag22
ag18
ag18
ag16
ag26
ag18
ag16
ag16
ag28
ag16
ag16
ag16
ag16
ag16
ag16
ag26
aS'8'
p64
ag16
ag16
ag28
ag24
ag26
ag24
ag16
ag20
ag16
ag32
ag30
ag26
ag16
ag32
ag26
ag22
ag22
ag24
ag16
ag16
ag16
ag24
ag22
ag16
ag16
ag16
ag16
ag16
ag16
ag20
ag16
ag24
ag16
ag24
ag24
ag22
ag24
ag24
ag16
ag16
ag20
ag16
ag16
ag16
ag32
ag24
ag22
ag18
ag16
ag20
asS'csplit'
p65
(lp66
I0
aI1
aI0
aI1
aI0
aI1
aI0
aI1
aI0
aI1
aI0
aI1
aI0
aI1
aI0
aI1
aI1
aI1
aI1
aI0
aI1
aI1
aI1
aI1
aI1
aI0
aI1
aI0
aI1
aI1
aI1
aI1
aI1
aI1
aI1
aI0
aI1
aI1
aI1
aI1
aI1
aI1
aI1
aI1
aI1
aI1
aI0
aI1
aI1
aI1
aI1
aI1
aI0
aI1
aI1
aI1
aI1
aI1
aI1
aI1
aI1
aI1
aI1
aI1
aI1
aI1
aI1
aI1
aI1
aI0
aI1
aI1
aI1
aI0
aI1
aI1
asS'spl'
p67
(lp68
g42
ag22
ag16
ag16
ag16
ag28
ag22
ag40
ag22
ag18
ag18
ag16
ag26
ag18
ag16
ag16
ag28
aS'11'
p69
ag16
ag16
ag16
ag16
ag10
aS'11'
p70
ag28
ag24
ag26
ag24
ag16
ag20
ag44
ag30
ag26
ag16
ag32
ag26
ag22
ag22
ag24
ag16
aS'11'
p71
ag24
ag22
ag16
ag16
aS'11'
p72
ag16
ag16
ag20
ag16
ag24
ag16
ag24
ag24
ag22
ag24
ag24
ag16
ag16
ag20
ag16
aS'11'
p73
ag32
ag24
ag8
ag16
asS'ls'
p74
I76
sS'cscore'
p75
F0.7399592999593
sb.
(i__main__
annealpoint
p0
(dp1
S'ccode'
p2
(dp3
S'wPomr'
p4
S'b'
p5
sS'vuiRB'
p6
S'y'
p7
sS'vnTpn'
p8
S'p'
p9
sS'172'
p10
S'j'
p11
sS'25'
p12
S'l'
p13
sS'yMIKX'
p14
S'z'
p15
sS'tmeui'
p16
S'h'
p17
sS'45'
p18
S'd'
p19
sS'1'
p20
S'r'
p21
sS'0'
p22
S'o'
p23
sS'3'
p24
S'u'
p25
sS'2'
p26
S's'
p27
sS'5'
p28
S'e'
p29
sS'4'
p30
S't'
p31
sS'7'
p32
S'v'
p33
sS'6'
p34
S'n'
p35
sS'9'
p36
S'i'
p37
sS'8'
p38
S'f'
p39
sS'guYlr'
p40
S'x'
p41
sS'NLJaz'
p42
S'k'
p43
sS'11'
p44
S'g'
p45
sS'12'
p46
S'a'
p47
sS'15'
p48
S'm'
p49
sS'17'
p50
S'c'
p51
sS'31'
p52
S'w'
p53
sS'CsOJJ'
p54
S'q'
p55
ssS'cset'
p56
c__builtin__
set
p57
((lp58
g44
ag12
ag46
ag48
ag50
ag52
ag18
ag20
ag22
ag24
ag26
ag28
ag30
ag32
ag34
ag36
ag38
ag10
atp59
Rp60
sS'annealevel'
p61
F154.5999999999955
sS'strng'
p62
(lp63
g20
ag20
ag26
ag20
ag20
ag20
ag32
ag26
ag36
ag28
ag26
ag22
ag22
ag20
ag30
ag22
ag20
ag20
ag32
ag20
ag20
ag20
ag20
ag20
ag20
ag30
ag38
ag20
ag20
ag32
ag28
ag30
ag28
ag20
ag24
ag20
ag36
ag34
ag30
ag20
ag36
ag30
ag26
ag26
ag28
ag20
ag20
ag20
ag28
ag26
ag20
ag20
ag20
ag20
ag20
ag20
ag24
ag20
ag28
ag20
ag28
ag28
ag26
ag28
ag28
ag20
ag20
ag24
ag20
ag20
ag20
ag36
ag28
ag26
ag22
ag20
ag24
asS'csplit'
p64
(lp65
I0
aI1
aI0
aI1
aI0
aI1
aI0
aI1
aI0
aI1
aI0
aI1
aI0
aI1
aI0
aI1
aI1
aI0
aI1
aI1
aI1
aI1
aI1
aI1
aI1
aI1
aI1
aI1
aI1
aI1
aI1
aI0
aI1
aI1
aI1
aI1
aI1
aI1
aI1
aI1
aI1
aI1
aI1
aI1
aI1
aI0
aI1
aI0
aI1
aI1
aI1
aI1
aI1
aI1
aI1
aI1
aI0
aI1
aI1
aI1
aI1
aI1
aI0
aI1
aI1
aI1
aI1
aI1
aI1
aI1
aI1
aI1
aI1
aI1
aI1
aI1
asS'spl'
p66
(lp67
g20
ag46
ag20
ag20
ag10
ag36
ag28
ag26
ag22
ag22
ag20
ag30
ag22
ag20
ag50
ag20
ag20
ag20
ag20
ag20
ag20
ag30
ag38
ag20
ag20
ag32
ag28
ag18
ag20
ag24
ag20
ag36
ag34
ag30
ag20
ag36
ag30
ag26
ag26
ag28
ag44
ag48
ag26
ag20
ag20
ag20
ag20
ag20
ag20
ag52
ag28
ag20
ag28
ag28
ag12
ag28
ag20
ag20
ag24
ag20
ag20
ag20
ag36
ag28
ag26
ag22
ag20
asS'ls'
p68
I76
sS'cscore'
p69
F0.7425822325822327
sb.
(i__main__
annealpoint
p0
(dp1
S'ccode'
p2
(dp3
S'wPomr'
p4
S'f'
p5
sS'vuiRB'
p6
S'k'
p7
sS'vnTpn'
p8
S'j'
p9
sS'172'
p10
S'p'
p11
sS'25'
p12
S'l'
p13
sS'yMIKX'
p14
S'b'
p15
sS'tmeui'
p16
S'z'
p17
sS'45'
p18
S'd'
p19
sS'1'
p20
S'r'
p21
sS'0'
p22
S'o'
p23
sS'3'
p24
S'u'
p25
sS'2'
p26
S's'
p27
sS'5'
p28
S'e'
p29
sS'4'
p30
S't'
p31
sS'7'
p32
S'v'
p33
sS'6'
p34
S'n'
p35
sS'9'
p36
S'i'
p37
sS'8'
p38
S'y'
p39
sS'guYlr'
p40
S'x'
p41
sS'NLJaz'
p42
S'q'
p43
sS'11'
p44
S'g'
p45
sS'12'
p46
S'a'
p47
sS'15'
p48
S'm'
p49
sS'17'
p50
S'c'
p51
sS'31'
p52
S'w'
p53
sS'CsOJJ'
p54
S'h'
p55
ssS'cset'
p56
c__builtin__
set
p57
((lp58
g44
ag12
ag46
ag48
ag50
ag52
ag18
ag20
ag22
ag24
ag26
ag28
ag30
ag32
ag34
ag36
ag38
ag10
atp59
Rp60
sS'annealevel'
p61
F154.7999999999955
sS'strng'
p62
(lp63
g20
ag20
ag26
ag20
ag20
ag20
ag32
ag26
ag36
ag28
ag26
ag22
ag22
ag20
ag30
ag22
ag20
ag20
ag32
ag20
ag20
ag20
ag20
ag20
ag20
ag30
ag38
ag20
ag20
ag32
ag28
ag30
ag28
ag20
ag24
ag20
ag36
ag34
ag30
ag20
ag36
ag30
ag26
ag26
ag28
ag20
ag20
ag20
ag28
ag26
ag20
ag20
ag20
ag20
ag20
ag20
ag24
ag20
ag28
ag20
ag28
ag28
ag26
ag28
ag28
ag20
ag20
ag24
ag20
ag20
ag20
ag36
ag28
ag26
ag22
ag20
ag24
asS'csplit'
p64
(lp65
I0
aI1
aI0
aI1
aI0
aI1
aI0
aI1
aI0
aI1
aI0
aI1
aI0
aI1
aI0
aI1
aI1
aI0
aI1
aI1
aI1
aI1
aI1
aI1
aI1
aI1
aI1
aI1
aI1
aI1
aI1
aI0
aI1
aI1
aI1
aI1
aI1
aI1
aI1
aI1
aI1
aI1
aI1
aI1
aI1
aI0
aI1
aI0
aI1
aI1
aI1
aI1
aI1
aI1
aI1
aI1
aI0
aI1
aI1
aI1
aI1
aI1
aI0
aI1
aI1
aI1
aI1
aI1
aI1
aI1
aI1
aI1
aI1
aI1
aI1
aI1
asS'spl'
p66
(lp67
g20
ag46
ag20
ag20
ag10
ag36
ag28
ag26
ag22
ag22
ag20
ag30
ag22
ag20
ag50
ag20
ag20
ag20
ag20
ag20
ag20
ag30
ag38
ag20
ag20
ag32
ag28
ag18
ag20
ag24
ag20
ag36
ag34
ag30
ag20
ag36
ag30
ag26
ag26
ag28
ag44
ag48
ag26
ag20
ag20
ag20
ag20
ag20
ag20
ag52
ag28
ag20
ag28
ag28
ag12
ag28
ag20
ag20
ag24
ag20
ag20
ag20
ag36
ag28
ag26
ag22
ag20
asS'ls'
p68
I76
sS'cscore'
p69
F0.7536933436933437
sb.
(i__main__
annealpoint
p0
(dp1
S'ccode'
p2
(dp3
S'LEDSw'
p4
S'k'
p5
sS'IPFoO'
p6
S'y'
p7
sS'wBQCY'
p8
S'z'
p9
sS'gZdIE'
p10
S'j'
p11
sS'oWEHe'
p12
S'h'
p13
sS'25'
p14
S'f'
p15
sS'01'
p16
S'x'
p17
sS'CIAUb'
p18
S'v'
p19
sS'1'
p20
S'o'
p21
sS'0'
p22
S'l'
p23
sS'3'
p24
S'm'
p25
sS'2'
p26
S'a'
p27
sS'5'
p28
S's'
p29
sS'4'
p30
S'e'
p31
sS'7'
p32
S'u'
p33
sS'6'
p34
S'p'
p35
sS'9'
p36
S'n'
p37
sS'8'
p38
S't'
p39
sS'dbezB'
p40
S'q'
p41
sS'DzUNN'
p42
S'c'
p43
sS'xyIuO'
p44
S'g'
p45
sS'11'
p46
S'r'
p47
sS'13'
p48
S'd'
p49
sS'14'
p50
S'b'
p51
sS'17'
p52
S'w'
p53
sS'52'
p54
S'i'
p55
ssS'cset'
p56
c__builtin__
set
p57
((lp58
g46
ag14
ag48
ag16
ag50
ag52
ag54
ag20
ag22
ag24
ag26
ag28
ag30
ag32
ag34
ag36
ag38
atp59
Rp60
sS'annealevel'
p61
F142.09999999999621
sS'strng'
p62
(lp63
g20
ag20
ag26
ag20
ag20
ag20
ag32
ag26
ag36
ag28
ag26
ag22
ag22
ag20
ag30
ag22
ag20
ag20
ag32
ag20
ag20
ag20
ag20
ag20
ag20
ag30
ag38
ag20
ag20
ag32
ag28
ag30
ag28
ag20
ag24
ag20
ag36
ag34
ag30
ag20
ag36
ag30
ag26
ag26
ag28
ag20
ag20
ag20
ag28
ag26
ag20
ag20
ag20
ag20
ag20
ag20
ag24
ag20
ag28
ag20
ag28
ag28
ag26
ag28
ag28
ag20
ag20
ag24
ag20
ag20
ag20
ag36
ag28
ag26
ag22
ag20
ag24
asS'csplit'
p64
(lp65
I0
aI1
aI0
aI1
aI0
aI1
aI0
aI1
aI0
aI1
aI0
aI1
aI0
aI1
aI0
aI1
aI1
aI0
aI1
aI1
aI1
aI1
aI1
aI1
aI1
aI1
aI1
aI1
aI1
aI1
aI1
aI1
aI1
aI1
aI1
aI1
aI1
aI1
aI1
aI1
aI1
aI1
aI1
aI0
aI1
aI1
aI1
aI1
aI1
aI1
aI1
aI1
aI1
aI1
aI1
aI0
aI1
aI1
aI1
aI1
aI1
aI0
aI1
aI1
aI1
aI1
aI1
aI1
aI1
aI1
aI1
aI1
aI1
aI1
aI0
aI1
asS'spl'
p66
(lp67
g46
ag26
ag20
aS'11'
p68
ag32
ag26
ag36
ag28
ag26
ag22
ag22
ag50
ag22
ag20
ag52
ag20
ag20
ag20
ag20
ag20
ag20
ag30
ag38
ag20
ag20
ag32
ag28
ag30
ag28
ag20
ag24
ag20
ag36
ag34
ag30
ag20
ag36
ag30
ag26
ag14
ag20
ag20
ag20
ag28
ag26
ag20
ag20
ag20
ag20
ag20
ag48
ag20
ag28
ag20
ag28
ag54
ag28
ag28
ag20
ag20
ag24
ag20
ag20
ag20
ag36
ag28
ag26
ag16
asS'ls'
p69
I76
sS'cscore'
p70
F0.7638539238539239
sb.
(i__main__
annealpoint
p0
(dp1
S'ccode'
p2
(dp3
S'LEDSw'
p4
S'q'
p5
sS'IPFoO'
p6
S'z'
p7
sS'wBQCY'
p8
S'm'
p9
sS'gZdIE'
p10
S'h'
p11
sS'oWEHe'
p12
S'v'
p13
sS'25'
p14
S'g'
p15
sS'01'
p16
S'k'
p17
sS'CIAUb'
p18
S'c'
p19
sS'1'
p20
S'o'
p21
sS'0'
p22
S'l'
p23
sS'3'
p24
S't'
p25
sS'2'
p26
S'a'
p27
sS'5'
p28
S's'
p29
sS'4'
p30
S'e'
p31
sS'7'
p32
S'u'
p33
sS'6'
p34
S'p'
p35
sS'9'
p36
S'n'
p37
sS'8'
p38
S'x'
p39
sS'dbezB'
p40
S'f'
p41
sS'DzUNN'
p42
S'j'
p43
sS'xyIuO'
p44
S'y'
p45
sS'11'
p46
S'r'
p47
sS'13'
p48
S'd'
p49
sS'14'
p50
S'b'
p51
sS'17'
p52
S'w'
p53
sS'52'
p54
S'i'
p55
ssS'cset'
p56
c__builtin__
set
p57
((lp58
g46
ag14
ag48
ag16
ag50
ag52
ag54
ag20
ag22
ag24
ag26
ag28
ag30
ag32
ag34
ag36
ag38
atp59
Rp60
sS'annealevel'
p61
F160.39999999999517
sS'strng'
p62
(lp63
g20
ag20
ag26
ag20
ag20
ag20
ag32
ag26
ag36
ag28
ag26
ag22
ag22
ag20
ag30
ag22
ag20
ag20
ag32
ag20
ag20
ag20
ag20
ag20
ag20
ag30
ag38
ag20
ag20
ag32
ag28
ag30
ag28
ag20
ag24
ag20
ag36
ag34
ag30
ag20
ag36
ag30
ag26
ag26
ag28
ag20
ag20
ag20
ag28
ag26
ag20
ag20
ag20
ag20
ag20
ag20
ag24
ag20
ag28
ag20
ag28
ag28
ag26
ag28
ag28
ag20
ag20
ag24
ag20
ag20
ag20
ag36
ag28
ag26
ag22
ag20
ag24
asS'csplit'
p64
(lp65
I0
aI1
aI0
aI1
aI0
aI1
aI0
aI1
aI0
aI1
aI0
aI1
aI0
aI1
aI0
aI1
aI1
aI0
aI1
aI1
aI1
aI1
aI1
aI1
aI1
aI1
aI1
aI1
aI1
aI1
aI1
aI1
aI1
aI1
aI1
aI1
aI1
aI1
aI1
aI1
aI1
aI1
aI1
aI0
aI1
aI1
aI1
aI1
aI1
aI1
aI1
aI1
aI1
aI1
aI1
aI0
aI1
aI1
aI1
aI1
aI1
aI0
aI1
aI1
aI1
aI1
aI1
aI1
aI1
aI1
aI1
aI1
aI1
aI1
aI0
aI1
asS'spl'
p66
(lp67
g46
ag26
ag20
aS'11'
p68
ag32
ag26
ag36
ag28
ag26
ag22
ag22
ag50
ag22
ag20
ag52
ag20
ag20
ag20
ag20
ag20
ag20
ag30
ag38
ag20
ag20
ag32
ag28
ag30
ag28
ag20
ag24
ag20
ag36
ag34
ag30
ag20
ag36
ag30
ag26
ag14
ag20
ag20
ag20
ag28
ag26
ag20
ag20
ag20
ag20
ag20
ag48
ag20
ag28
ag20
ag28
ag54
ag28
ag28
ag20
ag20
ag24
ag20
ag20
ag20
ag36
ag28
ag26
ag16
asS'ls'
p69
I76
sS'cscore'
p70
F0.7647086247086247
sb.
