(i__main__
annealpoint
p0
(dp1
S'ccode'
p2
(dp3
S'lUxyJ'
p4
S'a'
p5
sS'61'
p6
S'b'
p7
sS'25'
p8
S'q'
p9
sS'21'
p10
S'i'
p11
sS'VRmaM'
p12
S'z'
p13
sS'qCRxX'
p14
S'f'
p15
sS'coezw'
p16
S'c'
p17
sS'1'
p18
S'e'
p19
sS'0'
p20
S'w'
p21
sS'3'
p22
S's'
p23
sS'2'
p24
S'n'
p25
sS'5'
p26
S'p'
p27
sS'4'
p28
S'r'
p29
sS'7'
p30
S'y'
p31
sS'6'
p32
S'o'
p33
sS'9'
p34
S'm'
p35
sS'8'
p36
S'u'
p37
sS'ZXqEV'
p38
S'h'
p39
sS'mBJDl'
p40
S'k'
p41
sS'wCQou'
p42
S'j'
p43
sS'CHUIu'
p44
S'l'
p45
sS'HkffI'
p46
S'v'
p47
sS'11'
p48
S't'
p49
sS'13'
p50
S'd'
p51
sS'12'
p52
S'x'
p53
sS'15'
p54
S'g'
p55
ssS'cset'
p56
c__builtin__
set
p57
((lp58
g48
ag8
ag50
ag52
ag54
ag10
ag6
ag18
ag20
ag22
ag24
ag26
ag28
ag30
ag32
ag34
ag36
atp59
Rp60
sS'annealevel'
p61
F0.1
sS'strng'
p62
S'1118251011127124915121010111410215117112101112171344831110715142541434109161491493412122541010125127101519101112341255115251215755111234101112915121061534'
p63
sS'csplit'
p64
(lp65
I0
aI1
aI0
aI1
aI0
aI1
aI0
aI1
aI0
aI1
aI0
aI1
aI0
aI1
aI0
aI1
aI1
aI0
aI1
aI0
aI1
aI1
aI1
aI1
aI1
aI1
aI1
aI1
aI1
aI1
aI1
aI1
aI1
aI1
aI1
aI1
aI1
aI1
aI0
aI1
aI1
aI1
aI1
aI1
aI1
aI1
aI1
aI1
aI0
aI1
aI1
aI1
aI1
aI1
aI1
aI0
aI1
aI1
aI1
aI1
aI1
aI1
aI1
aI1
aI1
aI1
aI1
aI1
aI1
aI1
aI1
aI1
aI1
aI1
aI0
aI1
aI1
aI1
aI1
aI1
aI1
aI1
aI1
aI1
aI1
aI1
aI1
aI1
aI1
aI1
aI1
aI1
aI1
aI1
aI1
aI0
aI1
aI1
aI1
aI1
aI1
aI1
aI1
aI1
aI1
aI1
aI1
aI1
aI1
aI0
aI1
aI1
aI1
aI1
aI1
aI1
aI1
aI1
aI1
aI1
aI1
aI1
aI1
aI1
aI1
aI1
aI1
aI1
aI1
aI1
aI1
aI1
aI1
aI1
aI1
aI1
aI1
aI1
aI1
aI1
aI1
aI1
aI1
aI1
aI1
aI1
aI0
aI1
aI1
aI1
aI1
aI1
aI1
asS'spl'
p66
(lp67
g18
ag18
ag18
ag36
ag24
ag26
ag18
ag20
ag48
ag18
ag24
ag30
ag18
ag24
ag28
ag34
ag54
ag52
ag18
ag20
ag18
ag20
ag18
ag18
ag18
ag28
ag18
ag20
ag24
ag18
ag26
ag18
ag18
ag30
ag18
aS'12'
p68
ag18
ag20
ag18
ag18
ag18
ag24
ag18
ag30
ag50
ag28
ag28
ag36
ag22
ag18
aS'11'
p69
ag20
ag30
ag18
ag26
ag18
ag28
ag24
ag26
ag28
ag18
ag28
ag22
ag28
ag18
ag20
ag34
ag18
ag6
ag28
ag34
ag18
ag28
ag34
ag22
ag28
ag18
ag24
ag18
ag24
ag24
ag26
ag28
ag18
ag20
ag18
ag20
ag18
ag8
ag18
ag24
ag30
ag18
ag20
ag18
ag26
ag18
ag34
ag18
ag20
ag18
aS'11'
p70
ag24
ag22
ag28
ag18
ag24
ag26
ag26
ag18
ag18
ag26
ag24
ag26
ag18
ag24
ag18
ag26
ag30
ag26
ag26
ag18
ag18
ag18
ag24
ag22
ag28
ag18
ag20
ag18
ag18
ag18
ag24
ag34
ag18
ag26
ag18
ag10
ag20
ag32
ag18
ag26
ag22
asS'ls'
p71
I153
sS'cscore'
p72
F0.3202733173633227
sb.
(i__main__
annealpoint
p0
(dp1
S'ccode'
p2
(dp3
S'PiPjq'
p4
S'x'
p5
sS'jfNif'
p6
S'k'
p7
sS'25'
p8
S'o'
p9
sS'43'
p10
S'b'
p11
sS'41'
p12
S'i'
p13
sS'1'
p14
S'e'
p15
sS'0'
p16
S't'
p17
sS'3'
p18
S'm'
p19
sS'2'
p20
S'd'
p21
sS'5'
p22
S'r'
p23
sS'agSuH'
p24
S'j'
p25
sS'7'
p26
S'a'
p27
sS'6'
p28
S'u'
p29
sS'9'
p30
S'q'
p31
sS'8'
p32
S'f'
p33
sS'4'
p34
S'n'
p35
sS'ULKfv'
p36
S'h'
p37
sS'NGnnr'
p38
S'z'
p39
sS'xBdgm'
p40
S'y'
p41
sS'10'
p42
S's'
p43
sS'pfVZu'
p44
S'l'
p45
sS'12'
p46
S'c'
p47
sS'14'
p48
S'v'
p49
sS'19'
p50
S'p'
p51
sS'PYuzZ'
p52
S'g'
p53
sS'yVZQy'
p54
S'w'
p55
ssS'cset'
p56
c__builtin__
set
p57
((lp58
g8
ag46
ag48
ag42
ag50
ag10
ag12
ag14
ag16
ag18
ag20
ag22
ag34
ag26
ag28
ag30
ag32
atp59
Rp60
sS'annealevel'
p61
F0.6
sS'strng'
p62
S'1118251011127124915121010111410215117112101112171344831110715142541434109161491493412122541010125127101519101112341255115251215755111234101112915121061534'
p63
sS'csplit'
p64
(lp65
I0
aI1
aI0
aI1
aI0
aI1
aI0
aI1
aI0
aI1
aI0
aI1
aI0
aI1
aI0
aI1
aI1
aI1
aI1
aI1
aI1
aI1
aI1
aI1
aI1
aI1
aI1
aI0
aI1
aI1
aI1
aI1
aI1
aI1
aI1
aI1
aI1
aI1
aI1
aI1
aI1
aI1
aI1
aI1
aI0
aI1
aI1
aI1
aI1
aI1
aI1
aI1
aI1
aI1
aI1
aI1
aI1
aI1
aI1
aI1
aI1
aI1
aI1
aI0
aI1
aI0
aI1
aI0
aI1
aI1
aI1
aI1
aI1
aI1
aI1
aI1
aI1
aI1
aI1
aI1
aI1
aI1
aI1
aI1
aI1
aI1
aI1
aI1
aI1
aI1
aI1
aI1
aI1
aI1
aI1
aI1
aI1
aI1
aI1
aI1
aI0
aI1
aI1
aI1
aI0
aI1
aI1
aI1
aI1
aI1
aI1
aI1
aI1
aI1
aI1
aI1
aI1
aI1
aI1
aI1
aI1
aI1
aI1
aI1
aI1
aI1
aI1
aI1
aI1
aI1
aI1
aI1
aI1
aI1
aI1
aI1
aI1
aI1
aI1
aI1
aI1
aI1
aI1
aI1
aI1
aI1
aI1
aI1
aI1
aI1
aI1
aI1
aI0
asS'spl'
p66
(lp67
g14
ag14
ag14
ag32
ag20
ag22
ag14
ag16
ag14
ag14
ag14
ag20
ag26
ag14
ag20
ag34
ag30
ag14
ag22
ag14
ag20
ag14
ag16
ag14
ag16
ag14
ag14
ag48
ag14
ag16
ag20
ag14
ag22
ag14
ag14
ag26
ag14
ag14
ag20
ag14
ag16
ag14
ag14
ag46
ag14
ag26
ag14
ag18
ag34
ag34
ag32
ag18
ag14
ag14
ag14
ag16
ag26
ag14
ag22
ag14
ag34
ag8
ag12
ag10
ag34
ag14
ag16
ag30
ag14
ag28
ag14
ag34
ag30
ag14
ag34
ag30
ag18
ag34
ag14
ag20
ag14
ag20
ag20
ag22
ag34
ag14
ag16
ag14
ag16
ag14
ag20
ag22
ag14
ag20
ag26
ag42
ag14
ag22
ag50
ag14
ag16
ag14
ag14
ag14
ag20
ag18
ag34
ag14
ag20
ag22
ag22
ag14
ag14
ag22
ag20
ag22
ag14
ag20
ag14
ag22
ag26
ag22
ag22
ag14
ag14
ag14
ag20
ag18
ag34
ag14
ag16
ag14
ag14
ag14
ag20
ag30
ag14
ag22
ag14
ag20
ag14
ag16
ag28
ag14
ag22
asS'ls'
p68
I153
sS'cscore'
p69
F0.33062904174015284
sb.
(i__main__
annealpoint
p0
(dp1
S'ccode'
p2
(dp3
S'LWcTn'
p4
S'o'
p5
sS'191'
p6
S'f'
p7
sS'PYKEf'
p8
S'v'
p9
sS'VIIJL'
p10
S'l'
p11
sS'25'
p12
S'r'
p13
sS'21'
p14
S'q'
p15
sS'wWBxc'
p16
S'b'
p17
sS'1'
p18
S'e'
p19
sS'0'
p20
S'h'
p21
sS'3'
p22
S'd'
p23
sS'2'
p24
S'n'
p25
sS'5'
p26
S'k'
p27
sS'4'
p28
S't'
p29
sS'7'
p30
S'u'
p31
sS'6'
p32
S'a'
p33
sS'9'
p34
S'g'
p35
sS'8'
p36
S'w'
p37
sS'JWHaA'
p38
S'm'
p39
sS'UhqWo'
p40
S'z'
p41
sS'ghviE'
p42
S'x'
p43
sS'11'
p44
S's'
p45
sS'MMiKL'
p46
S'p'
p47
sS'16'
p48
S'i'
p49
sS'BpKCE'
p50
S'y'
p51
sS'57'
p52
S'j'
p53
sS'51'
p54
S'c'
p55
ssS'cset'
p56
c__builtin__
set
p57
((lp58
g44
ag12
ag14
ag48
ag6
ag52
ag54
ag18
ag20
ag22
ag24
ag26
ag28
ag30
ag32
ag34
ag36
atp59
Rp60
sS'annealevel'
p61
F0.7999999999999999
sS'strng'
p62
S'1118251011127124915121010111410215117112101112171344831110715142541434109161491493412122541010125127101519101112341255115251215755111234101112915121061534'
p63
sS'csplit'
p64
(lp65
I0
aI1
aI0
aI1
aI0
aI1
aI0
aI1
aI0
aI1
aI0
aI1
aI0
aI1
aI0
aI1
aI1
aI1
aI1
aI1
aI1
aI1
aI1
aI1
aI1
aI1
aI1
aI1
aI1
aI1
aI1
aI1
aI1
aI1
aI1
aI1
aI1
aI1
aI1
aI1
aI1
aI1
aI1
aI1
aI1
aI0
aI1
aI1
aI1
aI1
aI1
aI1
aI1
aI1
aI1
aI1
aI1
aI1
aI1
aI1
aI1
aI1
aI1
aI1
aI1
aI1
aI1
aI1
aI1
aI1
aI1
aI1
aI1
aI0
aI1
aI1
aI1
aI1
aI1
aI1
aI1
aI1
aI1
aI1
aI1
aI1
aI1
aI0
aI1
aI1
aI1
aI1
aI1
aI1
aI1
aI1
aI0
aI1
aI1
aI1
aI1
aI1
aI1
aI1
aI0
aI0
aI1
aI1
aI1
aI1
aI1
aI1
aI1
aI1
aI1
aI1
aI1
aI1
aI1
aI1
aI1
aI0
aI1
aI1
aI1
aI1
aI0
aI1
aI1
aI1
aI1
aI1
aI1
aI1
aI1
aI1
aI1
aI1
aI1
aI1
aI1
aI1
aI1
aI1
aI1
aI1
aI1
aI1
aI1
aI1
aI1
aI1
aI1
asS'spl'
p66
(lp67
g44
ag18
ag36
ag24
ag54
ag20
ag18
ag18
ag18
ag24
ag30
ag18
ag24
ag28
ag34
ag18
ag26
ag18
ag24
ag18
ag20
ag18
ag20
ag18
ag18
ag18
ag28
ag18
ag20
ag24
ag18
ag26
ag18
ag18
ag30
ag18
ag18
ag24
ag18
ag20
ag18
ag18
ag18
ag14
ag30
ag18
ag22
ag28
ag28
ag36
ag22
ag18
ag18
ag18
ag20
ag30
ag18
ag26
ag18
ag28
ag24
ag26
ag28
ag18
ag28
ag22
ag28
ag18
ag20
ag34
ag48
ag18
ag28
ag34
ag18
ag28
ag34
ag22
ag28
ag18
ag24
ag18
ag24
ag12
ag28
ag18
ag20
ag18
ag20
ag18
ag24
aS'51'
p68
ag24
ag30
ag18
ag20
ag18
ag26
ag6
ag20
ag18
ag18
ag18
ag24
ag22
ag28
ag18
ag24
ag26
ag26
ag18
ag18
ag26
aS'25'
p69
ag18
ag24
ag18
ag52
ag26
ag26
ag18
ag18
ag18
ag24
ag22
ag28
ag18
ag20
ag18
ag18
ag18
ag24
ag34
ag18
ag26
ag18
ag24
ag18
ag20
ag32
ag18
ag26
ag22
asS'ls'
p70
I153
sS'cscore'
p71
F0.3521053893856854
sb.
(i__main__
annealpoint
p0
(dp1
S'ccode'
p2
(dp3
S'adOqy'
p4
S'z'
p5
sS'dTsrn'
p6
S'j'
p7
sS'Ilucm'
p8
S'f'
p9
sS'HHQyU'
p10
S'b'
p11
sS'FeaiJ'
p12
S'v'
p13
sS'GPcwl'
p14
S'w'
p15
sS'01'
p16
S'y'
p17
sS'21'
p18
S'k'
p19
sS'41'
p20
S'd'
p21
sS'1'
p22
S'e'
p23
sS'0'
p24
S's'
p25
sS'3'
p26
S'u'
p27
sS'2'
p28
S'a'
p29
sS'5'
p30
S'r'
p31
sS'4'
p32
S'h'
p33
sS'7'
p34
S'l'
p35
sS'6'
p36
S'm'
p37
sS'9'
p38
S'c'
p39
sS'8'
p40
S'i'
p41
sS'eIrLZ'
p42
S't'
p43
sS'QtXzq'
p44
S'q'
p45
sS'lgSId'
p46
S'g'
p47
sS'Eeyep'
p48
S'x'
p49
sS'11'
p50
S'o'
p51
sS'12'
p52
S'p'
p53
sS'1512'
p54
S'n'
p55
ssS'cset'
p56
c__builtin__
set
p57
((lp58
g50
ag16
ag18
ag20
ag22
ag24
ag26
ag28
ag30
ag32
ag34
ag36
ag38
ag40
ag52
ag54
atp59
Rp60
sS'annealevel'
p61
F1.7000000000000004
sS'strng'
p62
S'1118251011127124915121010111410215117112101112171344831110715142541434109161491493412122541010125127101519101112341255115251215755111234101112915121061534'
p63
sS'csplit'
p64
(lp65
I0
aI1
aI0
aI1
aI0
aI1
aI0
aI1
aI0
aI1
aI0
aI1
aI0
aI1
aI0
aI1
aI1
aI0
aI0
aI0
aI1
aI1
aI1
aI1
aI0
aI1
aI1
aI1
aI1
aI1
aI1
aI1
aI1
aI1
aI1
aI1
aI1
aI1
aI1
aI1
aI1
aI1
aI1
aI1
aI1
aI1
aI1
aI1
aI1
aI1
aI1
aI1
aI1
aI1
aI1
aI1
aI1
aI1
aI1
aI1
aI1
aI1
aI1
aI1
aI1
aI0
aI1
aI1
aI1
aI1
aI1
aI1
aI1
aI1
aI1
aI1
aI1
aI1
aI1
aI1
aI1
aI1
aI1
aI1
aI1
aI1
aI1
aI1
aI1
aI1
aI1
aI1
aI1
aI1
aI1
aI1
aI1
aI1
aI1
aI1
aI1
aI1
aI1
aI1
aI1
aI1
aI1
aI1
aI1
aI1
aI0
aI1
aI1
aI1
aI1
aI1
aI1
aI1
aI1
aI1
aI1
aI1
aI1
aI1
aI0
aI1
aI1
aI1
aI1
aI1
aI1
aI1
aI1
aI1
aI1
aI1
aI1
aI1
aI0
aI1
aI1
aI1
aI1
aI1
aI1
aI0
aI1
aI1
aI1
aI1
aI1
aI1
aI1
asS'spl'
p66
(lp67
g22
ag50
ag40
ag28
ag30
ag22
ag24
ag22
ag22
ag22
ag28
ag34
ag22
ag28
ag32
ag38
ag54
ag22
ag24
ag22
ag16
ag22
ag22
ag32
ag22
ag24
ag28
ag22
ag30
ag22
ag22
ag34
ag22
ag22
ag28
ag22
ag24
ag22
ag22
ag22
ag28
ag22
ag34
ag22
ag26
ag32
ag32
ag40
ag26
ag22
ag22
ag22
ag24
ag34
ag22
ag30
ag22
ag32
ag28
ag30
ag20
ag32
ag26
ag32
ag22
ag24
ag38
ag22
ag36
ag22
ag32
ag38
ag22
ag32
ag38
ag26
ag32
ag22
ag28
ag22
ag28
ag28
ag30
ag32
ag22
ag24
ag22
ag24
ag22
ag28
ag30
ag22
ag28
ag34
ag22
ag24
ag22
ag30
ag22
ag38
ag22
ag24
ag22
ag22
ag52
ag26
ag32
ag22
ag28
ag30
ag30
ag22
ag22
ag30
ag28
ag30
ag22
ag18
ag30
ag34
ag30
ag30
ag22
ag22
ag22
ag28
ag26
ag32
ag22
ag24
aS'11'
p68
ag22
ag28
ag38
ag22
ag30
aS'12'
p69
ag22
ag24
ag36
ag22
ag30
ag26
asS'ls'
p70
I153
sS'cscore'
p71
F0.36942173374643317
sb.
