(i__main__
annealpoint
p0
(dp1
S'ccode'
p2
(dp3
S'lUxyJ'
p4
S'a'
p5
sS'61'
p6
S'b'
p7
sS'25'
p8
S'q'
p9
sS'21'
p10
S'i'
p11
sS'VRmaM'
p12
S'z'
p13
sS'qCRxX'
p14
S'f'
p15
sS'coezw'
p16
S'c'
p17
sS'1'
p18
S'e'
p19
sS'0'
p20
S'w'
p21
sS'3'
p22
S's'
p23
sS'2'
p24
S'n'
p25
sS'5'
p26
S'p'
p27
sS'4'
p28
S'r'
p29
sS'7'
p30
S'y'
p31
sS'6'
p32
S'o'
p33
sS'9'
p34
S'm'
p35
sS'8'
p36
S'u'
p37
sS'ZXqEV'
p38
S'h'
p39
sS'mBJDl'
p40
S'k'
p41
sS'wCQou'
p42
S'j'
p43
sS'CHUIu'
p44
S'l'
p45
sS'HkffI'
p46
S'v'
p47
sS'11'
p48
S't'
p49
sS'13'
p50
S'd'
p51
sS'12'
p52
S'x'
p53
sS'15'
p54
S'g'
p55
ssS'cset'
p56
c__builtin__
set
p57
((lp58
g48
ag8
ag50
ag52
ag54
ag10
ag6
ag18
ag20
ag22
ag24
ag26
ag28
ag30
ag32
ag34
ag36
atp59
Rp60
sS'annealevel'
p61
F0.1
sS'strng'
p62
S'1118251011127124915121010111410215117112101112171344831110715142541434109161491493412122541010125127101519101112341255115251215755111234101112915121061534'
p63
sS'csplit'
p64
(lp65
I0
aI1
aI0
aI1
aI0
aI1
aI0
aI1
aI0
aI1
aI0
aI1
aI0
aI1
aI0
aI1
aI1
aI0
aI1
aI0
aI1
aI1
aI1
aI1
aI1
aI1
aI1
aI1
aI1
aI1
aI1
aI1
aI1
aI1
aI1
aI1
aI1
aI1
aI0
aI1
aI1
aI1
aI1
aI1
aI1
aI1
aI1
aI1
aI0
aI1
aI1
aI1
aI1
aI1
aI1
aI0
aI1
aI1
aI1
aI1
aI1
aI1
aI1
aI1
aI1
aI1
aI1
aI1
aI1
aI1
aI1
aI1
aI1
aI1
aI0
aI1
aI1
aI1
aI1
aI1
aI1
aI1
aI1
aI1
aI1
aI1
aI1
aI1
aI1
aI1
aI1
aI1
aI1
aI1
aI1
aI0
aI1
aI1
aI1
aI1
aI1
aI1
aI1
aI1
aI1
aI1
aI1
aI1
aI1
aI0
aI1
aI1
aI1
aI1
aI1
aI1
aI1
aI1
aI1
aI1
aI1
aI1
aI1
aI1
aI1
aI1
aI1
aI1
aI1
aI1
aI1
aI1
aI1
aI1
aI1
aI1
aI1
aI1
aI1
aI1
aI1
aI1
aI1
aI1
aI1
aI1
aI0
aI1
aI1
aI1
aI1
aI1
aI1
asS'spl'
p66
(lp67
g18
ag18
ag18
ag36
ag24
ag26
ag18
ag20
ag48
ag18
ag24
ag30
ag18
ag24
ag28
ag34
ag54
ag52
ag18
ag20
ag18
ag20
ag18
ag18
ag18
ag28
ag18
ag20
ag24
ag18
ag26
ag18
ag18
ag30
ag18
aS'12'
p68
ag18
ag20
ag18
ag18
ag18
ag24
ag18
ag30
ag50
ag28
ag28
ag36
ag22
ag18
aS'11'
p69
ag20
ag30
ag18
ag26
ag18
ag28
ag24
ag26
ag28
ag18
ag28
ag22
ag28
ag18
ag20
ag34
ag18
ag6
ag28
ag34
ag18
ag28
ag34
ag22
ag28
ag18
ag24
ag18
ag24
ag24
ag26
ag28
ag18
ag20
ag18
ag20
ag18
ag8
ag18
ag24
ag30
ag18
ag20
ag18
ag26
ag18
ag34
ag18
ag20
ag18
aS'11'
p70
ag24
ag22
ag28
ag18
ag24
ag26
ag26
ag18
ag18
ag26
ag24
ag26
ag18
ag24
ag18
ag26
ag30
ag26
ag26
ag18
ag18
ag18
ag24
ag22
ag28
ag18
ag20
ag18
ag18
ag18
ag24
ag34
ag18
ag26
ag18
ag10
ag20
ag32
ag18
ag26
ag22
asS'ls'
p71
I153
sS'cscore'
p72
F0.3202733173633227
sb.
(i__main__
annealpoint
p0
(dp1
S'ccode'
p2
(dp3
S'PiPjq'
p4
S'x'
p5
sS'jfNif'
p6
S'k'
p7
sS'25'
p8
S'o'
p9
sS'43'
p10
S'b'
p11
sS'41'
p12
S'i'
p13
sS'1'
p14
S'e'
p15
sS'0'
p16
S't'
p17
sS'3'
p18
S'm'
p19
sS'2'
p20
S'd'
p21
sS'5'
p22
S'r'
p23
sS'agSuH'
p24
S'j'
p25
sS'7'
p26
S'a'
p27
sS'6'
p28
S'u'
p29
sS'9'
p30
S'q'
p31
sS'8'
p32
S'f'
p33
sS'4'
p34
S'n'
p35
sS'ULKfv'
p36
S'h'
p37
sS'NGnnr'
p38
S'z'
p39
sS'xBdgm'
p40
S'y'
p41
sS'10'
p42
S's'
p43
sS'pfVZu'
p44
S'l'
p45
sS'12'
p46
S'c'
p47
sS'14'
p48
S'v'
p49
sS'19'
p50
S'p'
p51
sS'PYuzZ'
p52
S'g'
p53
sS'yVZQy'
p54
S'w'
p55
ssS'cset'
p56
c__builtin__
set
p57
((lp58
g8
ag46
ag48
ag42
ag50
ag10
ag12
ag14
ag16
ag18
ag20
ag22
ag34
ag26
ag28
ag30
ag32
atp59
Rp60
sS'annealevel'
p61
F0.6
sS'strng'
p62
S'1118251011127124915121010111410215117112101112171344831110715142541434109161491493412122541010125127101519101112341255115251215755111234101112915121061534'
p63
sS'csplit'
p64
(lp65
I0
aI1
aI0
aI1
aI0
aI1
aI0
aI1
aI0
aI1
aI0
aI1
aI0
aI1
aI0
aI1
aI1
aI1
aI1
aI1
aI1
aI1
aI1
aI1
aI1
aI1
aI1
aI0
aI1
aI1
aI1
aI1
aI1
aI1
aI1
aI1
aI1
aI1
aI1
aI1
aI1
aI1
aI1
aI1
aI0
aI1
aI1
aI1
aI1
aI1
aI1
aI1
aI1
aI1
aI1
aI1
aI1
aI1
aI1
aI1
aI1
aI1
aI1
aI0
aI1
aI0
aI1
aI0
aI1
aI1
aI1
aI1
aI1
aI1
aI1
aI1
aI1
aI1
aI1
aI1
aI1
aI1
aI1
aI1
aI1
aI1
aI1
aI1
aI1
aI1
aI1
aI1
aI1
aI1
aI1
aI1
aI1
aI1
aI1
aI1
aI0
aI1
aI1
aI1
aI0
aI1
aI1
aI1
aI1
aI1
aI1
aI1
aI1
aI1
aI1
aI1
aI1
aI1
aI1
aI1
aI1
aI1
aI1
aI1
aI1
aI1
aI1
aI1
aI1
aI1
aI1
aI1
aI1
aI1
aI1
aI1
aI1
aI1
aI1
aI1
aI1
aI1
aI1
aI1
aI1
aI1
aI1
aI1
aI1
aI1
aI1
aI1
aI0
asS'spl'
p66
(lp67
g14
ag14
ag14
ag32
ag20
ag22
ag14
ag16
ag14
ag14
ag14
ag20
ag26
ag14
ag20
ag34
ag30
ag14
ag22
ag14
ag20
ag14
ag16
ag14
ag16
ag14
ag14
ag48
ag14
ag16
ag20
ag14
ag22
ag14
ag14
ag26
ag14
ag14
ag20
ag14
ag16
ag14
ag14
ag46
ag14
ag26
ag14
ag18
ag34
ag34
ag32
ag18
ag14
ag14
ag14
ag16
ag26
ag14
ag22
ag14
ag34
ag8
ag12
ag10
ag34
ag14
ag16
ag30
ag14
ag28
ag14
ag34
ag30
ag14
ag34
ag30
ag18
ag34
ag14
ag20
ag14
ag20
ag20
ag22
ag34
ag14
ag16
ag14
ag16
ag14
ag20
ag22
ag14
ag20
ag26
ag42
ag14
ag22
ag50
ag14
ag16
ag14
ag14
ag14
ag20
ag18
ag34
ag14
ag20
ag22
ag22
ag14
ag14
ag22
ag20
ag22
ag14
ag20
ag14
ag22
ag26
ag22
ag22
ag14
ag14
ag14
ag20
ag18
ag34
ag14
ag16
ag14
ag14
ag14
ag20
ag30
ag14
ag22
ag14
ag20
ag14
ag16
ag28
ag14
ag22
asS'ls'
p68
I153
sS'cscore'
p69
F0.33062904174015284
sb.
(i__main__
annealpoint
p0
(dp1
S'ccode'
p2
(dp3
S'LWcTn'
p4
S'o'
p5
sS'191'
p6
S'f'
p7
sS'PYKEf'
p8
S'v'
p9
sS'VIIJL'
p10
S'l'
p11
sS'25'
p12
S'r'
p13
sS'21'
p14
S'q'
p15
sS'wWBxc'
p16
S'b'
p17
sS'1'
p18
S'e'
p19
sS'0'
p20
S'h'
p21
sS'3'
p22
S'd'
p23
sS'2'
p24
S'n'
p25
sS'5'
p26
S'k'
p27
sS'4'
p28
S't'
p29
sS'7'
p30
S'u'
p31
sS'6'
p32
S'a'
p33
sS'9'
p34
S'g'
p35
sS'8'
p36
S'w'
p37
sS'JWHaA'
p38
S'm'
p39
sS'UhqWo'
p40
S'z'
p41
sS'ghviE'
p42
S'x'
p43
sS'11'
p44
S's'
p45
sS'MMiKL'
p46
S'p'
p47
sS'16'
p48
S'i'
p49
sS'BpKCE'
p50
S'y'
p51
sS'57'
p52
S'j'
p53
sS'51'
p54
S'c'
p55
ssS'cset'
p56
c__builtin__
set
p57
((lp58
g44
ag12
ag14
ag48
ag6
ag52
ag54
ag18
ag20
ag22
ag24
ag26
ag28
ag30
ag32
ag34
ag36
atp59
Rp60
sS'annealevel'
p61
F0.7999999999999999
sS'strng'
p62
S'1118251011127124915121010111410215117112101112171344831110715142541434109161491493412122541010125127101519101112341255115251215755111234101112915121061534'
p63
sS'csplit'
p64
(lp65
I0
aI1
aI0
aI1
aI0
aI1
aI0
aI1
aI0
aI1
aI0
aI1
aI0
aI1
aI0
aI1
aI1
aI1
aI1
aI1
aI1
aI1
aI1
aI1
aI1
aI1
aI1
aI1
aI1
aI1
aI1
aI1
aI1
aI1
aI1
aI1
aI1
aI1
aI1
aI1
aI1
aI1
aI1
aI1
aI1
aI0
aI1
aI1
aI1
aI1
aI1
aI1
aI1
aI1
aI1
aI1
aI1
aI1
aI1
aI1
aI1
aI1
aI1
aI1
aI1
aI1
aI1
aI1
aI1
aI1
aI1
aI1
aI1
aI0
aI1
aI1
aI1
aI1
aI1
aI1
aI1
aI1
aI1
aI1
aI1
aI1
aI1
aI0
aI1
aI1
aI1
aI1
aI1
aI1
aI1
aI1
aI0
aI1
aI1
aI1
aI1
aI1
aI1
aI1
aI0
aI0
aI1
aI1
aI1
aI1
aI1
aI1
aI1
aI1
aI1
aI1
aI1
aI1
aI1
aI1
aI1
aI0
aI1
aI1
aI1
aI1
aI0
aI1
aI1
aI1
aI1
aI1
aI1
aI1
aI1
aI1
aI1
aI1
aI1
aI1
aI1
aI1
aI1
aI1
aI1
aI1
aI1
aI1
aI1
aI1
aI1
aI1
aI1
asS'spl'
p66
(lp67
g44
ag18
ag36
ag24
ag54
ag20
ag18
ag18
ag18
ag24
ag30
ag18
ag24
ag28
ag34
ag18
ag26
ag18
ag24
ag18
ag20
ag18
ag20
ag18
ag18
ag18
ag28
ag18
ag20
ag24
ag18
ag26
ag18
ag18
ag30
ag18
ag18
ag24
ag18
ag20
ag18
ag18
ag18
ag14
ag30
ag18
ag22
ag28
ag28
ag36
ag22
ag18
ag18
ag18
ag20
ag30
ag18
ag26
ag18
ag28
ag24
ag26
ag28
ag18
ag28
ag22
ag28
ag18
ag20
ag34
ag48
ag18
ag28
ag34
ag18
ag28
ag34
ag22
ag28
ag18
ag24
ag18
ag24
ag12
ag28
ag18
ag20
ag18
ag20
ag18
ag24
aS'51'
p68
ag24
ag30
ag18
ag20
ag18
ag26
ag6
ag20
ag18
ag18
ag18
ag24
ag22
ag28
ag18
ag24
ag26
ag26
ag18
ag18
ag26
aS'25'
p69
ag18
ag24
ag18
ag52
ag26
ag26
ag18
ag18
ag18
ag24
ag22
ag28
ag18
ag20
ag18
ag18
ag18
ag24
ag34
ag18
ag26
ag18
ag24
ag18
ag20
ag32
ag18
ag26
ag22
asS'ls'
p70
I153
sS'cscore'
p71
F0.3521053893856854
sb.
(i__main__
annealpoint
p0
(dp1
S'ccode'
p2
(dp3
S'adOqy'
p4
S'z'
p5
sS'dTsrn'
p6
S'j'
p7
sS'Ilucm'
p8
S'f'
p9
sS'HHQyU'
p10
S'b'
p11
sS'FeaiJ'
p12
S'v'
p13
sS'GPcwl'
p14
S'w'
p15
sS'01'
p16
S'y'
p17
sS'21'
p18
S'k'
p19
sS'41'
p20
S'd'
p21
sS'1'
p22
S'e'
p23
sS'0'
p24
S's'
p25
sS'3'
p26
S'u'
p27
sS'2'
p28
S'a'
p29
sS'5'
p30
S'r'
p31
sS'4'
p32
S'h'
p33
sS'7'
p34
S'l'
p35
sS'6'
p36
S'm'
p37
sS'9'
p38
S'c'
p39
sS'8'
p40
S'i'
p41
sS'eIrLZ'
p42
S't'
p43
sS'QtXzq'
p44
S'q'
p45
sS'lgSId'
p46
S'g'
p47
sS'Eeyep'
p48
S'x'
p49
sS'11'
p50
S'o'
p51
sS'12'
p52
S'p'
p53
sS'1512'
p54
S'n'
p55
ssS'cset'
p56
c__builtin__
set
p57
((lp58
g50
ag16
ag18
ag20
ag22
ag24
ag26
ag28
ag30
ag32
ag34
ag36
ag38
ag40
ag52
ag54
atp59
Rp60
sS'annealevel'
p61
F1.7000000000000004
sS'strng'
p62
S'1118251011127124915121010111410215117112101112171344831110715142541434109161491493412122541010125127101519101112341255115251215755111234101112915121061534'
p63
sS'csplit'
p64
(lp65
I0
aI1
aI0
aI1
aI0
aI1
aI0
aI1
aI0
aI1
aI0
aI1
aI0
aI1
aI0
aI1
aI1
aI0
aI0
aI0
aI1
aI1
aI1
aI1
aI0
aI1
aI1
aI1
aI1
aI1
aI1
aI1
aI1
aI1
aI1
aI1
aI1
aI1
aI1
aI1
aI1
aI1
aI1
aI1
aI1
aI1
aI1
aI1
aI1
aI1
aI1
aI1
aI1
aI1
aI1
aI1
aI1
aI1
aI1
aI1
aI1
aI1
aI1
aI1
aI1
aI0
aI1
aI1
aI1
aI1
aI1
aI1
aI1
aI1
aI1
aI1
aI1
aI1
aI1
aI1
aI1
aI1
aI1
aI1
aI1
aI1
aI1
aI1
aI1
aI1
aI1
aI1
aI1
aI1
aI1
aI1
aI1
aI1
aI1
aI1
aI1
aI1
aI1
aI1
aI1
aI1
aI1
aI1
aI1
aI1
aI0
aI1
aI1
aI1
aI1
aI1
aI1
aI1
aI1
aI1
aI1
aI1
aI1
aI1
aI0
aI1
aI1
aI1
aI1
aI1
aI1
aI1
aI1
aI1
aI1
aI1
aI1
aI1
aI0
aI1
aI1
aI1
aI1
aI1
aI1
aI0
aI1
aI1
aI1
aI1
aI1
aI1
aI1
asS'spl'
p66
(lp67
g22
ag50
ag40
ag28
ag30
ag22
ag24
ag22
ag22
ag22
ag28
ag34
ag22
ag28
ag32
ag38
ag54
ag22
ag24
ag22
ag16
ag22
ag22
ag32
ag22
ag24
ag28
ag22
ag30
ag22
ag22
ag34
ag22
ag22
ag28
ag22
ag24
ag22
ag22
ag22
ag28
ag22
ag34
ag22
ag26
ag32
ag32
ag40
ag26
ag22
ag22
ag22
ag24
ag34
ag22
ag30
ag22
ag32
ag28
ag30
ag20
ag32
ag26
ag32
ag22
ag24
ag38
ag22
ag36
ag22
ag32
ag38
ag22
ag32
ag38
ag26
ag32
ag22
ag28
ag22
ag28
ag28
ag30
ag32
ag22
ag24
ag22
ag24
ag22
ag28
ag30
ag22
ag28
ag34
ag22
ag24
ag22
ag30
ag22
ag38
ag22
ag24
ag22
ag22
ag52
ag26
ag32
ag22
ag28
ag30
ag30
ag22
ag22
ag30
ag28
ag30
ag22
ag18
ag30
ag34
ag30
ag30
ag22
ag22
ag22
ag28
ag26
ag32
ag22
ag24
aS'11'
p68
ag22
ag28
ag38
ag22
ag30
aS'12'
p69
ag22
ag24
ag36
ag22
ag30
ag26
asS'ls'
p70
I153
sS'cscore'
p71
F0.36942173374643317
sb.
(i__main__
annealpoint
p0
(dp1
S'ccode'
p2
(dp3
S'xEgMA'
p4
S'r'
p5
sS'xXosz'
p6
S'y'
p7
sS'491'
p8
S'q'
p9
sS'01'
p10
S'x'
p11
sS'21'
p12
S'h'
p13
sS'FQloi'
p14
S'g'
p15
sS'1'
p16
S'i'
p17
sS'0'
p18
S'd'
p19
sS'3'
p20
S'c'
p21
sS'2'
p22
S'l'
p23
sS'5'
p24
S't'
p25
sS'ojbEp'
p26
S'f'
p27
sS'7'
p28
S'e'
p29
sS'6'
p30
S'u'
p31
sS'9'
p32
S's'
p33
sS'8'
p34
S'z'
p35
sS'nJlyH'
p36
S'b'
p37
sS'4'
p38
S'v'
p39
sS'VNDEd'
p40
S'j'
p41
sS'qTIYs'
p42
S'w'
p43
sS'11'
p44
S'm'
p45
sS'12'
p46
S'n'
p47
sS'15'
p48
S'p'
p49
sS'14'
p50
S'o'
p51
sS'52'
p52
S'a'
p53
sS'FAumh'
p54
S'k'
p55
ssS'cset'
p56
c__builtin__
set
p57
((lp58
g44
ag46
ag48
ag10
ag12
ag52
ag16
ag18
ag20
ag22
ag24
ag38
ag28
ag30
ag32
ag34
ag8
ag50
atp59
Rp60
sS'annealevel'
p61
F0.1
sS'strng'
p62
S'1118251011127124915121010111410215117112101112171344831110715142541434109161491493412122541010125127101519101112341255115251215755111234101112915121061534'
p63
sS'csplit'
p64
(lp65
I0
aI1
aI0
aI1
aI0
aI1
aI0
aI1
aI0
aI1
aI0
aI1
aI0
aI1
aI0
aI1
aI0
aI1
aI1
aI1
aI1
aI1
aI1
aI1
aI1
aI1
aI1
aI1
aI1
aI1
aI1
aI1
aI1
aI1
aI1
aI1
aI1
aI1
aI0
aI1
aI1
aI0
aI1
aI1
aI0
aI1
aI1
aI1
aI1
aI1
aI1
aI1
aI1
aI1
aI1
aI1
aI1
aI1
aI1
aI1
aI1
aI1
aI1
aI1
aI1
aI1
aI1
aI1
aI1
aI1
aI1
aI1
aI1
aI1
aI1
aI1
aI1
aI1
aI0
aI1
aI1
aI1
aI1
aI1
aI1
aI1
aI1
aI1
aI1
aI1
aI1
aI1
aI1
aI1
aI1
aI1
aI1
aI1
aI1
aI1
aI1
aI1
aI1
aI1
aI1
aI1
aI1
aI1
aI1
aI1
aI1
aI1
aI1
aI1
aI1
aI1
aI1
aI1
aI1
aI1
aI0
aI1
aI1
aI1
aI1
aI1
aI1
aI1
aI1
aI1
aI1
aI1
aI1
aI1
aI1
aI1
aI1
aI1
aI1
aI1
aI1
aI1
aI1
aI0
aI1
aI1
aI0
aI1
aI1
aI1
aI1
aI1
aI1
asS'spl'
p66
(lp67
g44
ag16
ag34
ag22
ag24
ag16
ag18
ag16
ag16
ag16
ag22
ag28
ag16
ag22
ag8
ag24
ag16
ag22
ag16
ag18
ag16
ag18
ag16
ag16
ag16
ag38
ag16
ag18
ag22
ag16
ag24
ag16
ag16
ag28
ag16
ag46
ag16
ag10
ag16
aS'12'
p68
ag16
ag28
ag16
ag20
ag38
ag38
ag34
ag20
ag16
ag16
ag16
ag18
ag28
ag16
ag24
ag16
ag38
ag22
ag24
ag38
ag16
ag38
ag20
ag38
ag16
ag18
ag32
ag16
ag30
ag16
ag38
ag32
ag50
ag32
ag20
ag38
ag16
ag22
ag16
ag22
ag22
ag24
ag38
ag16
ag18
ag16
ag18
ag16
ag22
ag24
ag16
ag22
ag28
ag16
ag18
ag16
ag24
ag16
ag32
ag16
ag18
ag16
ag16
ag16
ag22
ag20
ag38
ag16
ag22
ag24
ag24
ag16
ag16
ag52
ag24
ag16
ag22
ag16
ag24
ag28
ag24
ag24
ag16
ag16
ag16
ag22
ag20
ag38
ag16
ag18
ag16
ag16
ag16
ag22
ag32
ag48
ag16
ag12
ag18
ag30
ag16
ag24
ag20
asS'ls'
p69
I153
sS'cscore'
p70
F0.3080599391049418
sb.
(i__main__
annealpoint
p0
(dp1
S'ccode'
p2
(dp3
S'AdOsP'
p4
S'i'
p5
sS'rZtOr'
p6
S'f'
p7
sS'vNntD'
p8
S'q'
p9
sS'01'
p10
S't'
p11
sS'1'
p12
S's'
p13
sS'0'
p14
S'e'
p15
sS'3'
p16
S'v'
p17
sS'2'
p18
S'a'
p19
sS'5'
p20
S'm'
p21
sS'4'
p22
S'h'
p23
sS'7'
p24
S'l'
p25
sS'6'
p26
S'k'
p27
sS'9'
p28
S'y'
p29
sS'8'
p30
S'z'
p31
sS'wvkqo'
p32
S'r'
p33
sS'JOsvD'
p34
S'b'
p35
sS'10'
p36
S'x'
p37
sS'jFMui'
p38
S'g'
p39
sS'15'
p40
S'c'
p41
sS'14'
p42
S'd'
p43
sS'19'
p44
S'n'
p45
sS'51'
p46
S'j'
p47
sS'wXiKE'
p48
S'o'
p49
sS'412'
p50
S'p'
p51
sS'OSzwW'
p52
S'w'
p53
sS'oJTlp'
p54
S'u'
p55
ssS'cset'
p56
c__builtin__
set
p57
((lp58
g36
ag10
ag40
ag42
ag44
ag46
ag12
ag14
ag16
ag18
ag20
ag22
ag24
ag26
ag28
ag30
ag50
atp59
Rp60
sS'annealevel'
p61
F0.5
sS'strng'
p62
S'1118251011127124915121010111410215117112101112171344831110715142541434109161491493412122541010125127101519101112341255115251215755111234101112915121061534'
p63
sS'csplit'
p64
(lp65
I0
aI1
aI0
aI1
aI0
aI1
aI0
aI1
aI0
aI1
aI0
aI1
aI0
aI1
aI0
aI1
aI1
aI1
aI0
aI1
aI1
aI1
aI1
aI1
aI1
aI1
aI1
aI0
aI1
aI1
aI1
aI1
aI1
aI1
aI1
aI1
aI1
aI1
aI1
aI1
aI1
aI1
aI1
aI1
aI1
aI1
aI1
aI1
aI1
aI1
aI1
aI1
aI1
aI1
aI1
aI1
aI1
aI1
aI1
aI0
aI1
aI1
aI1
aI1
aI1
aI1
aI1
aI1
aI1
aI1
aI1
aI1
aI1
aI1
aI1
aI1
aI1
aI1
aI1
aI1
aI1
aI1
aI0
aI0
aI1
aI1
aI1
aI1
aI1
aI1
aI1
aI0
aI1
aI1
aI1
aI1
aI1
aI1
aI1
aI1
aI1
aI1
aI1
aI1
aI0
aI1
aI1
aI1
aI1
aI1
aI1
aI1
aI1
aI1
aI1
aI1
aI1
aI1
aI1
aI1
aI1
aI1
aI1
aI1
aI1
aI1
aI1
aI1
aI1
aI1
aI1
aI1
aI1
aI1
aI1
aI1
aI0
aI1
aI1
aI1
aI1
aI1
aI1
aI1
aI1
aI1
aI1
aI1
aI1
aI1
aI0
aI1
aI1
asS'spl'
p66
(lp67
g12
ag12
ag12
ag30
ag18
ag20
ag12
ag14
ag12
ag12
ag12
ag18
ag24
ag12
ag18
ag22
ag28
ag12
ag46
ag18
ag12
ag14
ag12
ag14
ag12
ag12
ag42
ag12
ag14
ag18
ag12
ag20
ag12
ag12
ag24
ag12
ag12
ag18
ag12
ag14
ag12
ag12
ag12
ag18
ag12
ag24
ag12
ag16
ag22
ag22
ag30
ag16
ag12
ag12
ag12
ag14
ag24
ag40
ag12
ag22
ag18
ag20
ag22
ag12
ag22
ag16
ag22
ag12
ag14
ag28
ag12
ag26
ag12
ag22
ag28
ag12
ag22
ag28
ag16
ag50
ag12
ag18
ag18
ag20
ag22
ag12
ag10
ag14
ag12
ag18
ag20
ag12
ag18
ag24
ag12
ag14
ag12
ag20
ag44
ag12
ag14
ag12
ag12
ag12
ag18
ag16
ag22
ag12
ag18
ag20
ag20
ag12
ag12
ag20
ag18
ag20
ag12
ag18
ag12
ag20
ag24
ag20
ag20
ag12
ag12
ag12
ag18
ag16
ag22
ag36
ag12
ag12
ag12
ag18
ag28
ag12
ag20
ag12
ag18
ag12
ag14
ag26
aS'15'
p68
ag16
asS'ls'
p69
I153
sS'cscore'
p70
F0.31012612316927574
sb.
(i__main__
annealpoint
p0
(dp1
S'ccode'
p2
(dp3
S'151'
p4
S'h'
p5
sS'iRXBo'
p6
S'j'
p7
sS'brYAZ'
p8
S's'
p9
sS'CPfvI'
p10
S'f'
p11
sS'24'
p12
S'p'
p13
sS'rdKRz'
p14
S'u'
p15
sS'hkXVq'
p16
S'y'
p17
sS'1'
p18
S'a'
p19
sS'0'
p20
S'n'
p21
sS'3'
p22
S't'
p23
sS'2'
p24
S'g'
p25
sS'5'
p26
S'm'
p27
sS'4'
p28
S'r'
p29
sS'7'
p30
S'e'
p31
sS'6'
p32
S'c'
p33
sS'9'
p34
S'b'
p35
sS'8'
p36
S'd'
p37
sS'SXkJl'
p38
S'o'
p39
sS'11'
p40
S'l'
p41
sS'12'
p42
S'w'
p43
sS'14'
p44
S'q'
p45
sS'16'
p46
S'i'
p47
sS'gCfmN'
p48
S'x'
p49
sS'31'
p50
S'v'
p51
sS'51'
p52
S'k'
p53
sS'GHWyW'
p54
S'z'
p55
ssS'cset'
p56
c__builtin__
set
p57
((lp58
g40
ag12
ag4
ag42
ag44
ag46
ag50
ag52
ag18
ag20
ag22
ag24
ag26
ag28
ag30
ag32
ag34
ag36
atp59
Rp60
sS'annealevel'
p61
F0.5
sS'strng'
p62
S'1118251011127124915121010111410215117112101112171344831110715142541434109161491493412122541010125127101519101112341255115251215755111234101112915121061534'
p63
sS'csplit'
p64
(lp65
I0
aI1
aI0
aI1
aI0
aI1
aI0
aI1
aI0
aI1
aI0
aI1
aI0
aI1
aI0
aI1
aI1
aI1
aI1
aI1
aI1
aI1
aI1
aI1
aI1
aI1
aI1
aI1
aI1
aI1
aI1
aI1
aI0
aI0
aI1
aI1
aI1
aI1
aI1
aI1
aI1
aI1
aI1
aI1
aI1
aI1
aI1
aI1
aI1
aI1
aI1
aI1
aI1
aI0
aI1
aI1
aI1
aI1
aI1
aI1
aI1
aI0
aI1
aI1
aI1
aI1
aI1
aI1
aI1
aI1
aI1
aI1
aI1
aI0
aI1
aI1
aI1
aI1
aI1
aI1
aI1
aI1
aI1
aI1
aI1
aI1
aI1
aI1
aI1
aI1
aI1
aI1
aI1
aI1
aI1
aI1
aI1
aI0
aI1
aI1
aI1
aI1
aI1
aI1
aI1
aI1
aI1
aI1
aI1
aI1
aI1
aI1
aI1
aI1
aI1
aI1
aI1
aI1
aI1
aI1
aI1
aI1
aI1
aI1
aI1
aI1
aI1
aI1
aI1
aI1
aI1
aI0
aI1
aI1
aI1
aI1
aI1
aI1
aI1
aI1
aI1
aI1
aI1
aI1
aI1
aI1
aI1
aI1
aI1
aI1
aI1
aI1
aI1
asS'spl'
p66
(lp67
g40
ag18
ag36
ag24
ag52
ag20
ag18
ag18
ag18
ag24
ag30
ag18
ag12
ag34
ag18
ag26
ag18
ag24
ag18
ag20
ag18
ag20
ag18
ag18
ag18
ag28
ag18
ag20
ag24
ag4
ag18
ag30
ag18
ag18
ag24
ag18
ag20
ag18
ag18
ag18
ag24
ag18
ag30
ag18
ag22
ag28
ag28
ag36
ag50
ag18
ag18
ag20
ag30
ag18
ag26
ag44
ag24
ag26
ag28
ag18
ag28
ag22
ag28
ag18
ag20
ag34
ag46
ag18
ag28
ag34
ag18
ag28
ag34
ag22
ag28
ag18
ag24
ag18
ag24
ag24
ag26
ag28
ag18
ag20
ag18
ag20
ag18
ag24
ag26
ag42
ag30
ag18
ag20
ag18
ag26
ag18
ag34
ag18
ag20
ag18
ag18
ag18
ag24
ag22
ag28
ag18
ag24
ag26
ag26
ag18
ag18
ag26
ag24
ag26
ag18
ag24
ag18
ag26
ag30
ag26
ag26
ag18
aS'11'
p68
ag24
ag22
ag28
ag18
ag20
ag18
ag18
ag18
ag24
ag34
ag18
ag26
ag18
ag24
ag18
ag20
ag32
ag18
ag26
ag22
asS'ls'
p69
I153
sS'cscore'
p70
F0.31246550568012177
sb.
(i__main__
annealpoint
p0
(dp1
S'ccode'
p2
(dp3
S'zuVte'
p4
S'k'
p5
sS'ixwcX'
p6
S'z'
p7
sS'NIeaR'
p8
S'i'
p9
sS'RFZOi'
p10
S'm'
p11
sS'02'
p12
S'p'
p13
sS'27'
p14
S'u'
p15
sS'1'
p16
S'e'
p17
sS'0'
p18
S'b'
p19
sS'3'
p20
S'j'
p21
sS'2'
p22
S'y'
p23
sS'5'
p24
S's'
p25
sS'4'
p26
S't'
p27
sS'7'
p28
S'o'
p29
sS'6'
p30
S'd'
p31
sS'9'
p32
S'h'
p33
sS'8'
p34
S'r'
p35
sS'01'
p36
S'l'
p37
sS'YsuJO'
p38
S'f'
p39
sS'elaFa'
p40
S'x'
p41
sS'11'
p42
S'g'
p43
sS'12'
p44
S'q'
p45
sS'VSeVZ'
p46
S'v'
p47
sS'16'
p48
S'n'
p49
sS'55'
p50
S'c'
p51
sS'qnEAi'
p52
S'a'
p53
sS'MMzNd'
p54
S'w'
p55
ssS'cset'
p56
c__builtin__
set
p57
((lp58
g42
ag12
ag14
ag36
ag48
ag50
ag16
ag18
ag20
ag22
ag24
ag26
ag28
ag30
ag32
ag34
ag44
atp59
Rp60
sS'annealevel'
p61
F1.4000000000000001
sS'strng'
p62
S'1118251011127124915121010111410215117112101112171344831110715142541434109161491493412122541010125127101519101112341255115251215755111234101112915121061534'
p63
sS'csplit'
p64
(lp65
I0
aI1
aI0
aI1
aI0
aI1
aI0
aI1
aI0
aI1
aI0
aI1
aI0
aI1
aI0
aI1
aI1
aI1
aI1
aI1
aI1
aI1
aI1
aI1
aI1
aI0
aI1
aI1
aI1
aI1
aI0
aI1
aI1
aI1
aI1
aI1
aI1
aI1
aI1
aI1
aI1
aI0
aI1
aI1
aI1
aI1
aI1
aI1
aI1
aI1
aI1
aI1
aI1
aI1
aI1
aI1
aI1
aI1
aI1
aI1
aI1
aI1
aI1
aI1
aI1
aI1
aI1
aI1
aI1
aI1
aI1
aI1
aI1
aI0
aI1
aI1
aI1
aI1
aI1
aI1
aI1
aI1
aI1
aI1
aI1
aI1
aI1
aI1
aI1
aI1
aI1
aI1
aI1
aI1
aI1
aI1
aI1
aI1
aI0
aI1
aI1
aI1
aI1
aI1
aI1
aI1
aI1
aI1
aI1
aI1
aI0
aI1
aI1
aI1
aI1
aI1
aI1
aI1
aI1
aI1
aI1
aI1
aI1
aI1
aI1
aI1
aI1
aI1
aI0
aI1
aI1
aI1
aI0
aI1
aI1
aI1
aI1
aI1
aI1
aI1
aI1
aI1
aI1
aI1
aI1
aI1
aI1
aI1
aI1
aI1
aI1
aI1
aI1
asS'spl'
p66
(lp67
g16
ag16
ag16
ag34
ag22
ag24
ag16
ag18
ag42
ag16
ag14
ag16
ag22
ag26
ag32
ag16
ag24
ag16
ag22
ag16
ag18
ag16
ag18
aS'11'
p68
ag16
ag26
ag16
ag12
ag16
ag24
ag16
ag16
ag28
ag16
ag16
ag22
ag16
ag36
ag16
ag16
ag22
ag16
ag28
ag16
ag20
ag26
ag26
ag34
ag20
ag16
ag16
ag16
ag18
ag28
ag16
ag24
ag16
ag26
ag22
ag24
ag26
ag16
ag26
ag20
ag26
ag16
ag18
ag32
ag48
ag16
ag26
ag32
ag16
ag26
ag32
ag20
ag26
ag16
ag22
ag16
ag22
ag22
ag24
ag26
ag16
ag18
ag16
ag18
ag16
ag22
ag24
ag16
aS'27'
p69
ag16
ag18
ag16
ag24
ag16
ag32
ag16
ag18
ag16
ag16
ag44
ag20
ag26
ag16
ag22
ag24
ag24
ag16
ag16
ag24
ag22
ag24
ag16
ag22
ag16
ag24
ag28
ag50
ag16
ag16
aS'12'
p70
ag20
ag26
ag16
ag18
ag16
ag16
ag16
ag22
ag32
ag16
ag24
ag16
ag22
ag16
ag18
ag30
ag16
ag24
ag20
asS'ls'
p71
I153
sS'cscore'
p72
F0.31436500250001054
sb.
(i__main__
annealpoint
p0
(dp1
S'ccode'
p2
(dp3
S'LUyEh'
p4
S'x'
p5
sS'06'
p6
S'g'
p7
sS'48'
p8
S'm'
p9
sS'49'
p10
S'y'
p11
sS'41'
p12
S't'
p13
sS'1'
p14
S'a'
p15
sS'0'
p16
S'd'
p17
sS'3'
p18
S'p'
p19
sS'2'
p20
S'r'
p21
sS'5'
p22
S's'
p23
sS'4'
p24
S'e'
p25
sS'7'
p26
S'c'
p27
sS'6'
p28
S'u'
p29
sS'9'
p30
S'h'
p31
sS'8'
p32
S'b'
p33
sS'zuNlh'
p34
S'l'
p35
sS'hWiAB'
p36
S'f'
p37
sS'rMVne'
p38
S'q'
p39
sS'Kflsn'
p40
S'n'
p41
sS'11'
p42
S'i'
p43
sS'12'
p44
S'z'
p45
sS'54'
p46
S'v'
p47
sS'23'
p48
S'w'
p49
sS'34'
p50
S'k'
p51
sS'yfYxz'
p52
S'o'
p53
sS'nFxWs'
p54
S'j'
p55
ssS'cset'
p56
c__builtin__
set
p57
((lp58
g42
ag44
ag6
ag8
ag10
ag46
ag48
ag50
ag14
ag16
ag18
ag20
ag22
ag24
ag26
ag28
ag30
ag32
ag12
atp59
Rp60
sS'annealevel'
p61
F1.8000000000000005
sS'strng'
p62
S'1118251011127124915121010111410215117112101112171344831110715142541434109161491493412122541010125127101519101112341255115251215755111234101112915121061534'
p63
sS'csplit'
p64
(lp65
I0
aI1
aI0
aI1
aI0
aI1
aI0
aI1
aI0
aI1
aI0
aI1
aI0
aI1
aI0
aI1
aI1
aI1
aI1
aI0
aI1
aI1
aI1
aI1
aI1
aI1
aI1
aI1
aI1
aI1
aI1
aI1
aI1
aI1
aI1
aI1
aI1
aI1
aI1
aI1
aI1
aI1
aI1
aI1
aI1
aI1
aI1
aI1
aI1
aI1
aI1
aI0
aI1
aI1
aI1
aI1
aI1
aI1
aI1
aI1
aI1
aI1
aI1
aI1
aI0
aI1
aI1
aI1
aI1
aI1
aI1
aI1
aI1
aI1
aI1
aI1
aI0
aI1
aI1
aI1
aI1
aI0
aI1
aI1
aI1
aI1
aI1
aI1
aI1
aI0
aI1
aI1
aI1
aI1
aI1
aI1
aI1
aI1
aI1
aI1
aI1
aI1
aI1
aI1
aI1
aI1
aI1
aI1
aI0
aI1
aI1
aI1
aI1
aI1
aI1
aI1
aI1
aI1
aI1
aI1
aI1
aI1
aI1
aI1
aI1
aI1
aI1
aI1
aI1
aI1
aI1
aI1
aI1
aI0
aI1
aI1
aI1
aI1
aI1
aI1
aI1
aI1
aI1
aI1
aI1
aI1
aI1
aI1
aI0
aI1
aI1
aI1
aI1
asS'spl'
p66
(lp67
g14
ag14
ag14
ag32
ag20
ag22
ag14
ag16
ag14
ag14
ag14
ag20
ag26
ag44
ag24
ag30
ag14
ag22
aS'12'
p68
ag14
ag16
ag14
ag16
ag14
ag14
ag14
ag24
ag14
ag16
ag20
ag14
ag22
ag14
ag14
ag26
ag14
ag14
ag20
ag14
ag16
ag14
ag14
ag14
ag20
ag14
ag26
ag14
ag18
ag24
ag8
ag18
ag14
ag14
ag14
ag16
ag26
ag14
ag22
ag14
ag24
ag20
ag46
ag14
ag24
ag18
ag24
ag14
ag16
ag30
ag14
ag28
ag14
ag10
ag14
ag24
ag30
ag50
ag14
ag20
ag14
ag20
ag20
ag22
ag12
ag16
ag14
ag16
ag14
ag20
ag22
ag14
ag20
ag26
ag14
ag16
ag14
ag22
ag14
ag30
ag14
ag16
ag42
ag14
ag20
ag18
ag24
ag14
ag20
ag22
ag22
ag14
ag14
ag22
ag20
ag22
ag14
ag20
ag14
ag22
ag26
ag22
ag22
ag14
ag14
ag14
ag48
ag24
ag14
ag16
ag14
ag14
ag14
ag20
ag30
ag14
ag22
ag14
ag20
ag14
ag6
ag14
ag22
ag18
asS'ls'
p69
I153
sS'cscore'
p70
F0.3170467282400678
sb.
(i__main__
annealpoint
p0
(dp1
S'ccode'
p2
(dp3
S'BgIWh'
p4
S'q'
p5
sS'IBBaG'
p6
S'f'
p7
sS'NDmUs'
p8
S'p'
p9
sS'83'
p10
S'n'
p11
sS'02'
p12
S'h'
p13
sS'21'
p14
S's'
p15
sS'22'
p16
S'v'
p17
sS'1'
p18
S'a'
p19
sS'0'
p20
S't'
p21
sS'3'
p22
S'o'
p23
sS'2'
p24
S'd'
p25
sS'5'
p26
S'e'
p27
sS'4'
p28
S'i'
p29
sS'7'
p30
S'w'
p31
sS'6'
p32
S'm'
p33
sS'9'
p34
S'u'
p35
sS'8'
p36
S'k'
p37
sS'kcSZN'
p38
S'c'
p39
sS'141'
p40
S'y'
p41
sS'71'
p42
S'l'
p43
sS'oQPpj'
p44
S'x'
p45
sS'PHXDe'
p46
S'g'
p47
sS'11'
p48
S'b'
p49
sS'mFwEf'
p50
S'z'
p51
sS'54'
p52
S'j'
p53
sS'51'
p54
S'r'
p55
ssS'cset'
p56
c__builtin__
set
p57
((lp58
g12
ag48
ag14
ag16
ag40
ag52
ag32
ag54
ag42
ag18
ag20
ag22
ag24
ag26
ag28
ag30
ag10
ag34
ag36
atp59
Rp60
sS'annealevel'
p61
F1.8000000000000005
sS'strng'
p62
S'1118251011127124915121010111410215117112101112171344831110715142541434109161491493412122541010125127101519101112341255115251215755111234101112915121061534'
p63
sS'csplit'
p64
(lp65
I0
aI1
aI0
aI1
aI0
aI1
aI0
aI1
aI0
aI1
aI0
aI1
aI0
aI1
aI0
aI1
aI1
aI1
aI1
aI1
aI1
aI1
aI1
aI1
aI1
aI1
aI1
aI0
aI0
aI1
aI0
aI1
aI1
aI1
aI1
aI1
aI1
aI1
aI1
aI1
aI1
aI1
aI1
aI0
aI1
aI0
aI1
aI1
aI1
aI1
aI1
aI1
aI0
aI1
aI1
aI1
aI1
aI1
aI1
aI1
aI1
aI1
aI1
aI1
aI1
aI1
aI1
aI1
aI1
aI1
aI1
aI1
aI1
aI1
aI1
aI1
aI1
aI1
aI1
aI1
aI1
aI1
aI1
aI1
aI1
aI1
aI0
aI1
aI0
aI1
aI1
aI1
aI1
aI1
aI1
aI1
aI1
aI1
aI1
aI0
aI1
aI1
aI1
aI1
aI1
aI1
aI1
aI1
aI1
aI1
aI1
aI1
aI1
aI1
aI1
aI1
aI1
aI0
aI1
aI1
aI1
aI1
aI1
aI1
aI1
aI1
aI1
aI1
aI1
aI1
aI1
aI1
aI1
aI1
aI1
aI1
aI1
aI1
aI1
aI1
aI1
aI1
aI1
aI1
aI1
aI1
aI1
aI1
aI1
aI1
aI1
aI1
aI1
asS'spl'
p66
(lp67
g18
ag18
ag18
ag36
ag24
ag26
ag18
ag20
ag18
ag18
ag18
ag24
ag30
ag18
ag24
ag28
ag34
ag18
ag26
ag18
ag24
ag18
ag20
ag18
ag20
ag18
ag18
ag40
ag12
ag18
ag26
ag18
ag18
ag30
ag18
ag18
ag24
ag18
ag20
ag18
ag48
ag14
ag30
ag18
ag22
ag28
ag28
ag10
ag18
ag18
ag18
ag20
ag30
ag18
ag26
ag18
ag28
ag24
ag26
ag28
ag18
ag28
ag22
ag28
ag18
ag20
ag34
ag18
ag32
ag18
ag28
ag34
ag18
ag28
ag34
ag22
ag28
ag18
ag24
ag18
ag16
ag52
ag18
ag20
ag18
ag20
ag18
ag24
ag26
ag18
ag24
ag42
ag20
ag18
ag26
ag18
ag34
ag18
ag20
ag18
ag18
ag18
ag24
ag22
ag28
ag18
ag24
ag26
ag54
ag18
ag26
ag24
ag26
ag18
ag24
ag18
ag26
ag30
ag26
ag26
ag18
ag18
ag18
ag24
ag22
ag28
ag18
ag20
ag18
ag18
ag18
ag24
ag34
ag18
ag26
ag18
ag24
ag18
ag20
ag32
ag18
ag26
ag22
asS'ls'
p68
I153
sS'cscore'
p69
F0.31767714589176205
sb.
(i__main__
annealpoint
p0
(dp1
S'ccode'
p2
(dp3
S'bQyfT'
p4
S'f'
p5
sS'82'
p6
S'b'
p7
sS'nCfjH'
p8
S'v'
p9
sS'22'
p10
S'a'
p11
sS'CNtuo'
p12
S't'
p13
sS'09'
p14
S'x'
p15
sS'41'
p16
S'i'
p17
sS'1'
p18
S'e'
p19
sS'0'
p20
S'h'
p21
sS'3'
p22
S'w'
p23
sS'2'
p24
S'r'
p25
sS'5'
p26
S'l'
p27
sS'4'
p28
S'p'
p29
sS'7'
p30
S'k'
p31
sS'6'
p32
S'j'
p33
sS'9'
p34
S'd'
p35
sS'8'
p36
S'u'
p37
sS'DxgxL'
p38
S'g'
p39
sS'71'
p40
S'c'
p41
sS'IetSt'
p42
S'z'
p43
sS'jIjPn'
p44
S'n'
p45
sS'11'
p46
S'o'
p47
sS'15'
p48
S'q'
p49
sS'14'
p50
S's'
p51
sS'51'
p52
S'm'
p53
sS'MtOVo'
p54
S'y'
p55
ssS'cset'
p56
c__builtin__
set
p57
((lp58
g46
ag34
ag48
ag50
ag10
ag14
ag52
ag40
ag18
ag20
ag22
ag24
ag26
ag28
ag30
ag32
ag6
ag36
ag16
atp59
Rp60
sS'annealevel'
p61
F0.5
sS'strng'
p62
S'1118251011127124915121010111410215117112101112171344831110715142541434109161491493412122541010125127101519101112341255115251215755111234101112915121061534'
p63
sS'csplit'
p64
(lp65
I0
aI1
aI0
aI1
aI0
aI1
aI0
aI1
aI0
aI1
aI0
aI1
aI0
aI1
aI0
aI1
aI1
aI0
aI1
aI1
aI1
aI1
aI1
aI1
aI1
aI1
aI1
aI0
aI1
aI1
aI1
aI1
aI1
aI1
aI1
aI1
aI1
aI1
aI1
aI1
aI1
aI1
aI1
aI1
aI1
aI1
aI1
aI1
aI1
aI1
aI1
aI1
aI1
aI1
aI1
aI0
aI1
aI1
aI0
aI1
aI1
aI1
aI1
aI1
aI1
aI1
aI1
aI1
aI1
aI1
aI1
aI0
aI1
aI1
aI1
aI1
aI1
aI1
aI1
aI1
aI1
aI1
aI0
aI1
aI1
aI1
aI0
aI1
aI1
aI1
aI1
aI1
aI1
aI1
aI1
aI1
aI1
aI1
aI1
aI1
aI1
aI1
aI1
aI1
aI1
aI1
aI1
aI1
aI1
aI1
aI1
aI1
aI1
aI1
aI1
aI1
aI1
aI1
aI1
aI1
aI1
aI1
aI1
aI1
aI1
aI1
aI1
aI1
aI1
aI1
aI0
aI1
aI1
aI1
aI1
aI1
aI1
aI1
aI1
aI1
aI1
aI1
aI1
aI1
aI0
aI1
aI1
aI1
aI1
aI1
aI1
aI1
aI1
asS'spl'
p66
(lp67
g18
ag18
ag18
ag6
ag26
ag18
ag20
ag18
ag18
ag18
ag24
ag30
ag18
ag24
ag28
ag34
ag48
ag18
ag24
ag18
ag20
ag18
ag20
ag18
ag18
ag50
ag18
ag20
ag24
ag18
ag26
ag18
ag18
ag30
ag18
ag18
ag24
ag18
ag20
ag18
ag18
ag18
ag24
ag18
ag30
ag18
ag22
ag28
ag28
ag36
ag22
ag18
ag46
ag20
ag40
ag26
ag18
ag28
ag24
ag26
ag28
ag18
ag28
ag22
ag28
ag18
ag14
ag18
ag32
ag18
ag28
ag34
ag18
ag28
ag34
ag22
ag16
ag24
ag18
ag10
ag26
ag28
ag18
ag20
ag18
ag20
ag18
ag24
ag26
ag18
ag24
ag30
ag18
ag20
ag18
ag26
ag18
ag34
ag18
ag20
ag18
ag18
ag18
ag24
ag22
ag28
ag18
ag24
ag26
ag26
ag18
ag18
ag26
ag24
ag26
ag18
ag24
ag18
ag26
ag30
ag26
ag26
aS'11'
p68
ag18
ag24
ag22
ag28
ag18
ag20
ag18
ag18
ag18
ag24
ag34
ag18
ag52
ag24
ag18
ag20
ag32
ag18
ag26
ag22
asS'ls'
p69
I153
sS'cscore'
p70
F0.3232418694163819
sb.
(i__main__
annealpoint
p0
(dp1
S'ccode'
p2
(dp3
S'hkKTC'
p4
S'f'
p5
sS'210'
p6
S'y'
p7
sS'61'
p8
S'g'
p9
sS'fyFBr'
p10
S'j'
p11
sS'01'
p12
S'c'
p13
sS'09'
p14
S'n'
p15
sS'1'
p16
S'e'
p17
sS'0'
p18
S'l'
p19
sS'3'
p20
S'a'
p21
sS'2'
p22
S's'
p23
sS'5'
p24
S'v'
p25
sS'4'
p26
S'r'
p27
sS'7'
p28
S'd'
p29
sS'6'
p30
S'z'
p31
sS'9'
p32
S'k'
p33
sS'8'
p34
S'w'
p35
sS'JuErC'
p36
S'q'
p37
sS'dUKqv'
p38
S'b'
p39
sS'SOncX'
p40
S'i'
p41
sS'skLic'
p42
S'u'
p43
sS'91'
p44
S'x'
p45
sS'11'
p46
S't'
p47
sS'15'
p48
S'h'
p49
sS'14'
p50
S'p'
p51
sS'54'
p52
S'm'
p53
sS'wdvrl'
p54
S'o'
p55
ssS'cset'
p56
c__builtin__
set
p57
((lp58
g44
ag46
ag12
ag48
ag50
ag6
ag8
ag52
ag14
ag16
ag18
ag20
ag22
ag24
ag26
ag28
ag30
ag32
ag34
atp59
Rp60
sS'annealevel'
p61
F1.2
sS'strng'
p62
S'1118251011127124915121010111410215117112101112171344831110715142541434109161491493412122541010125127101519101112341255115251215755111234101112915121061534'
p63
sS'csplit'
p64
(lp65
I0
aI1
aI0
aI1
aI0
aI1
aI0
aI1
aI0
aI1
aI0
aI1
aI0
aI1
aI0
aI1
aI1
aI1
aI1
aI1
aI0
aI0
aI1
aI1
aI1
aI1
aI1
aI1
aI1
aI1
aI1
aI1
aI0
aI1
aI1
aI1
aI1
aI1
aI1
aI1
aI1
aI1
aI1
aI1
aI1
aI1
aI1
aI1
aI1
aI1
aI1
aI1
aI1
aI1
aI1
aI1
aI1
aI1
aI1
aI1
aI1
aI1
aI1
aI1
aI0
aI1
aI1
aI1
aI1
aI1
aI1
aI0
aI1
aI1
aI1
aI0
aI1
aI1
aI1
aI1
aI1
aI1
aI1
aI1
aI1
aI1
aI1
aI1
aI1
aI1
aI1
aI0
aI1
aI1
aI1
aI1
aI1
aI1
aI1
aI1
aI1
aI1
aI1
aI1
aI1
aI0
aI1
aI1
aI0
aI1
aI1
aI1
aI1
aI1
aI1
aI1
aI1
aI1
aI1
aI1
aI1
aI1
aI1
aI1
aI1
aI1
aI1
aI1
aI1
aI1
aI1
aI1
aI1
aI1
aI1
aI1
aI1
aI1
aI1
aI1
aI1
aI1
aI1
aI1
aI1
aI1
aI1
aI1
aI1
aI0
aI1
aI1
aI1
asS'spl'
p66
(lp67
g16
ag16
ag16
ag34
ag22
ag24
ag16
ag18
ag16
ag16
ag16
ag22
ag28
ag16
ag22
ag26
ag32
ag16
ag24
ag16
ag6
ag16
ag18
ag16
ag16
ag16
ag26
ag16
ag18
ag22
ag48
ag16
ag16
ag28
ag16
ag16
ag22
ag16
ag18
ag16
ag16
ag16
ag22
ag16
ag28
ag16
ag20
ag26
ag26
ag34
ag20
ag16
ag16
ag16
ag18
ag28
ag16
ag24
ag16
ag26
ag22
ag52
ag16
ag26
ag20
ag26
ag16
ag14
ag16
ag30
ag50
ag32
ag16
ag26
ag32
ag20
ag26
ag16
ag22
ag16
ag22
ag22
ag24
ag26
ag16
ag12
ag18
ag16
ag22
ag24
ag16
ag22
ag28
ag16
ag18
ag16
ag24
ag16
ag44
ag18
ag46
ag16
ag22
ag20
ag26
ag16
ag22
ag24
ag24
ag16
ag16
ag24
ag22
ag24
ag16
ag22
ag16
ag24
ag28
ag24
ag24
ag16
ag16
ag16
ag22
ag20
ag26
ag16
ag18
ag16
ag16
ag16
ag22
ag32
ag16
ag24
ag16
ag22
ag16
ag18
ag8
ag24
ag20
asS'ls'
p68
I153
sS'cscore'
p69
F0.4091778874156304
sb.
(i__main__
annealpoint
p0
(dp1
S'ccode'
p2
(dp3
S'FRmGG'
p4
S'm'
p5
sS'gbCmj'
p6
S'p'
p7
sS'AbEMn'
p8
S'y'
p9
sS'pKTsl'
p10
S'o'
p11
sS'OqLUr'
p12
S'r'
p13
sS'CPzhV'
p14
S'j'
p15
sS'01'
p16
S't'
p17
sS'yCtmy'
p18
S'g'
p19
sS'1'
p20
S'e'
p21
sS'0'
p22
S'd'
p23
sS'3'
p24
S'i'
p25
sS'2'
p26
S'l'
p27
sS'5'
p28
S'v'
p29
sS'4'
p30
S's'
p31
sS'7'
p32
S'x'
p33
sS'6'
p34
S'n'
p35
sS'9'
p36
S'h'
p37
sS'8'
p38
S'c'
p39
sS'715'
p40
S'b'
p41
sS'aPfii'
p42
S'u'
p43
sS'71'
p44
S'z'
p45
sS'11'
p46
S'w'
p47
sS'10'
p48
S'a'
p49
sS'12'
p50
S'q'
p51
sS'BxApp'
p52
S'f'
p53
sS'cTjqN'
p54
S'k'
p55
ssS'cset'
p56
c__builtin__
set
p57
((lp58
g46
ag48
ag16
ag44
ag40
ag20
ag22
ag24
ag26
ag28
ag30
ag32
ag34
ag36
ag38
ag50
atp59
Rp60
sS'annealevel'
p61
F13.399999999999968
sS'strng'
p62
S'1118251011127124915121010111410215117112101112171344831110715142541434109161491493412122541010125127101519101112341255115251215755111234101112915121061534'
p63
sS'csplit'
p64
(lp65
I0
aI1
aI0
aI1
aI0
aI1
aI0
aI1
aI0
aI1
aI0
aI1
aI0
aI1
aI0
aI1
aI1
aI1
aI1
aI1
aI1
aI1
aI1
aI1
aI0
aI1
aI1
aI1
aI1
aI1
aI1
aI1
aI1
aI1
aI1
aI1
aI0
aI1
aI1
aI1
aI1
aI1
aI1
aI1
aI1
aI1
aI1
aI1
aI1
aI1
aI1
aI1
aI1
aI1
aI1
aI1
aI1
aI1
aI0
aI0
aI1
aI1
aI1
aI1
aI1
aI1
aI1
aI1
aI1
aI1
aI0
aI1
aI1
aI1
aI1
aI1
aI1
aI1
aI1
aI1
aI1
aI1
aI1
aI1
aI1
aI1
aI1
aI1
aI1
aI1
aI1
aI1
aI1
aI1
aI1
aI1
aI1
aI0
aI1
aI0
aI1
aI1
aI1
aI1
aI1
aI1
aI1
aI1
aI1
aI1
aI1
aI1
aI1
aI1
aI1
aI1
aI1
aI1
aI0
aI1
aI1
aI1
aI1
aI1
aI1
aI1
aI1
aI1
aI1
aI1
aI1
aI1
aI1
aI1
aI1
aI1
aI1
aI1
aI1
aI1
aI1
aI1
aI1
aI1
aI1
aI1
aI1
aI1
aI1
aI1
aI1
aI1
aI1
asS'spl'
p66
(lp67
g20
ag20
ag20
ag38
ag26
ag28
ag20
ag22
ag20
ag46
ag26
ag32
ag20
ag26
ag30
ag36
ag20
ag28
ag20
ag26
ag20
ag22
ag20
ag16
ag20
ag20
ag30
ag20
ag22
ag26
ag20
ag28
ag20
ag20
ag44
ag20
ag26
ag20
ag22
ag20
ag20
ag20
ag26
ag20
ag32
ag20
ag24
ag30
ag30
ag38
ag24
ag20
ag20
ag20
ag22
ag40
ag20
ag30
ag26
ag28
ag30
ag20
ag30
ag24
ag30
ag48
ag36
ag20
ag34
ag20
ag30
ag36
ag20
ag30
ag36
ag24
ag30
ag20
ag26
ag20
ag26
ag26
ag28
ag30
ag20
ag22
ag20
ag22
ag20
ag26
ag28
ag50
aS'71'
p68
ag22
ag20
ag28
ag20
ag36
ag20
ag22
ag20
ag20
ag20
ag26
ag24
ag30
ag20
ag26
ag28
ag28
aS'11'
p69
ag28
ag26
ag28
ag20
ag26
ag20
ag28
ag32
ag28
ag28
ag20
ag20
ag20
ag26
ag24
ag30
ag20
ag22
ag20
ag20
ag20
ag26
ag36
ag20
ag28
ag20
ag26
ag20
ag22
ag34
ag20
ag28
ag24
asS'ls'
p70
I153
sS'cscore'
p71
F0.4388162841440323
sb.
(i__main__
annealpoint
p0
(dp1
S'ccode'
p2
(dp3
S'OwhDm'
p4
S'j'
p5
sS'82'
p6
S'g'
p7
sS'CyZEt'
p8
S'd'
p9
sS'25'
p10
S'l'
p11
sS'01'
p12
S'x'
p13
sS'aIIpW'
p14
S'p'
p15
sS'1'
p16
S'e'
p17
sS'0'
p18
S'n'
p19
sS'3'
p20
S'y'
p21
sS'2'
p22
S't'
p23
sS'5'
p24
S's'
p25
sS'4'
p26
S'm'
p27
sS'7'
p28
S'h'
p29
sS'6'
p30
S'o'
p31
sS'9'
p32
S'r'
p33
sS'8'
p34
S'k'
p35
sS'341'
p36
S'z'
p37
sS'WiDfH'
p38
S'w'
p39
sS'lLCUL'
p40
S'f'
p41
sS'oCcLP'
p42
S'u'
p43
sS'eJLtq'
p44
S'v'
p45
sS'91'
p46
S'i'
p47
sS'12'
p48
S'q'
p49
sS'15'
p50
S'c'
p51
sS'55'
p52
S'a'
p53
sS'53'
p54
S'b'
p55
ssS'cset'
p56
c__builtin__
set
p57
((lp58
g46
ag10
ag32
ag50
ag12
ag52
ag54
ag16
ag18
ag20
ag22
ag24
ag26
ag28
ag30
ag6
ag34
ag48
ag36
atp59
Rp60
sS'annealevel'
p61
F35.00000000000023
sS'strng'
p62
S'1118251011127124915121010111410215117112101112171344831110715142541434109161491493412122541010125127101519101112341255115251215755111234101112915121061534'
p63
sS'csplit'
p64
(lp65
I0
aI1
aI0
aI1
aI0
aI1
aI0
aI1
aI0
aI1
aI0
aI1
aI0
aI1
aI0
aI1
aI1
aI1
aI1
aI1
aI1
aI1
aI1
aI1
aI1
aI1
aI1
aI1
aI1
aI1
aI1
aI1
aI1
aI1
aI1
aI1
aI1
aI1
aI1
aI1
aI1
aI1
aI1
aI1
aI1
aI1
aI1
aI1
aI1
aI1
aI1
aI1
aI1
aI1
aI1
aI1
aI1
aI1
aI1
aI1
aI1
aI1
aI1
aI0
aI1
aI1
aI1
aI1
aI1
aI1
aI1
aI1
aI1
aI1
aI1
aI1
aI1
aI0
aI1
aI1
aI1
aI0
aI0
aI1
aI1
aI1
aI1
aI1
aI1
aI1
aI1
aI1
aI1
aI0
aI1
aI1
aI1
aI1
aI1
aI1
aI1
aI1
aI1
aI1
aI1
aI1
aI1
aI1
aI1
aI1
aI1
aI1
aI1
aI1
aI1
aI1
aI1
aI1
aI1
aI0
aI1
aI1
aI1
aI0
aI1
aI1
aI1
aI1
aI0
aI1
aI1
aI1
aI1
aI1
aI1
aI1
aI1
aI1
aI1
aI1
aI1
aI1
aI1
aI1
aI1
aI1
aI1
aI1
aI1
aI1
aI1
aI0
aI1
asS'spl'
p66
(lp67
g16
ag16
ag16
ag6
ag24
ag16
ag18
ag16
ag16
ag16
ag22
ag28
ag16
ag22
ag26
ag32
ag16
ag24
ag16
ag22
ag16
ag18
ag16
ag18
ag16
ag16
ag16
ag26
ag16
ag18
ag22
ag16
ag24
ag16
ag16
ag28
ag16
ag16
ag22
ag16
ag18
ag16
ag16
ag16
ag22
ag16
ag28
ag16
ag20
ag26
ag26
ag34
ag20
ag16
ag16
ag16
ag18
ag28
ag16
ag24
ag16
ag26
ag10
ag26
ag16
ag26
ag20
ag26
ag16
ag18
ag32
ag16
ag30
ag16
ag26
ag46
ag26
ag32
ag36
ag22
ag16
ag22
ag22
ag24
ag26
ag16
ag18
ag16
ag12
ag22
ag24
ag16
ag22
ag28
ag16
ag18
ag16
ag24
ag16
ag32
ag16
ag18
ag16
ag16
ag16
ag22
ag20
ag26
ag16
ag22
ag24
ag24
ag16
ag50
ag22
ag24
ag48
ag16
ag24
ag28
ag52
ag16
ag16
ag16
ag22
ag20
ag26
ag16
ag18
ag16
ag16
ag16
ag22
ag32
ag16
ag24
ag16
ag22
ag16
ag18
ag30
ag16
ag54
asS'ls'
p68
I153
sS'cscore'
p69
F0.4590984885569973
sb.
(i__main__
annealpoint
p0
(dp1
S'ccode'
p2
(dp3
S'OwhDm'
p4
S'p'
p5
sS'82'
p6
S'y'
p7
sS'CyZEt'
p8
S'j'
p9
sS'25'
p10
S'v'
p11
sS'01'
p12
S'f'
p13
sS'aIIpW'
p14
S'g'
p15
sS'1'
p16
S'e'
p17
sS'0'
p18
S's'
p19
sS'3'
p20
S'l'
p21
sS'2'
p22
S'r'
p23
sS'5'
p24
S't'
p25
sS'4'
p26
S'i'
p27
sS'7'
p28
S'h'
p29
sS'6'
p30
S'd'
p31
sS'9'
p32
S'b'
p33
sS'8'
p34
S'a'
p35
sS'341'
p36
S'z'
p37
sS'WiDfH'
p38
S'x'
p39
sS'lLCUL'
p40
S'o'
p41
sS'oCcLP'
p42
S'q'
p43
sS'eJLtq'
p44
S'u'
p45
sS'91'
p46
S'k'
p47
sS'12'
p48
S'w'
p49
sS'15'
p50
S'm'
p51
sS'55'
p52
S'c'
p53
sS'53'
p54
S'n'
p55
ssS'cset'
p56
c__builtin__
set
p57
((lp58
g46
ag10
ag32
ag50
ag12
ag52
ag54
ag16
ag18
ag20
ag22
ag24
ag26
ag28
ag30
ag6
ag34
ag48
ag36
atp59
Rp60
sS'annealevel'
p61
F35.80000000000024
sS'strng'
p62
S'1118251011127124915121010111410215117112101112171344831110715142541434109161491493412122541010125127101519101112341255115251215755111234101112915121061534'
p63
sS'csplit'
p64
(lp65
I0
aI1
aI0
aI1
aI0
aI1
aI0
aI1
aI0
aI1
aI0
aI1
aI0
aI1
aI0
aI1
aI1
aI1
aI1
aI1
aI1
aI1
aI1
aI1
aI1
aI1
aI1
aI1
aI1
aI1
aI1
aI1
aI1
aI1
aI1
aI1
aI1
aI1
aI1
aI1
aI1
aI1
aI1
aI1
aI1
aI1
aI1
aI1
aI1
aI1
aI1
aI1
aI1
aI1
aI1
aI1
aI1
aI1
aI1
aI1
aI1
aI1
aI1
aI0
aI1
aI1
aI1
aI1
aI1
aI1
aI1
aI1
aI1
aI1
aI1
aI1
aI1
aI0
aI1
aI1
aI1
aI0
aI0
aI1
aI1
aI1
aI1
aI1
aI1
aI1
aI1
aI1
aI1
aI0
aI1
aI1
aI1
aI1
aI1
aI1
aI1
aI1
aI1
aI1
aI1
aI1
aI1
aI1
aI1
aI1
aI1
aI1
aI1
aI1
aI1
aI1
aI1
aI1
aI1
aI0
aI1
aI1
aI1
aI0
aI1
aI1
aI1
aI1
aI0
aI1
aI1
aI1
aI1
aI1
aI1
aI1
aI1
aI1
aI1
aI1
aI1
aI1
aI1
aI1
aI1
aI1
aI1
aI1
aI1
aI1
aI1
aI0
aI1
asS'spl'
p66
(lp67
g16
ag16
ag16
ag6
ag24
ag16
ag18
ag16
ag16
ag16
ag22
ag28
ag16
ag22
ag26
ag32
ag16
ag24
ag16
ag22
ag16
ag18
ag16
ag18
ag16
ag16
ag16
ag26
ag16
ag18
ag22
ag16
ag24
ag16
ag16
ag28
ag16
ag16
ag22
ag16
ag18
ag16
ag16
ag16
ag22
ag16
ag28
ag16
ag20
ag26
ag26
ag34
ag20
ag16
ag16
ag16
ag18
ag28
ag16
ag24
ag16
ag26
ag10
ag26
ag16
ag26
ag20
ag26
ag16
ag18
ag32
ag16
ag30
ag16
ag26
ag46
ag26
ag32
ag36
ag22
ag16
ag22
ag22
ag24
ag26
ag16
ag18
ag16
ag12
ag22
ag24
ag16
ag22
ag28
ag16
ag18
ag16
ag24
ag16
ag32
ag16
ag18
ag16
ag16
ag16
ag22
ag20
ag26
ag16
ag22
ag24
ag24
ag16
ag50
ag22
ag24
ag48
ag16
ag24
ag28
ag52
ag16
ag16
ag16
ag22
ag20
ag26
ag16
ag18
ag16
ag16
ag16
ag22
ag32
ag16
ag24
ag16
ag22
ag16
ag18
ag30
ag16
ag54
asS'ls'
p68
I153
sS'cscore'
p69
F0.4732195595886623
sb.
(i__main__
annealpoint
p0
(dp1
S'ccode'
p2
(dp3
S'6'
p4
S'c'
p5
sS'PhvrA'
p6
S'k'
p7
sS'24'
p8
S'g'
p9
sS'zBvaW'
p10
S'x'
p11
sS'MzFSN'
p12
S'q'
p13
sS'1'
p14
S'e'
p15
sS'0'
p16
S't'
p17
sS'3'
p18
S'o'
p19
sS'2'
p20
S'm'
p21
sS'5'
p22
S's'
p23
sS'4'
p24
S'r'
p25
sS'7'
p26
S'h'
p27
sS'GcFgS'
p28
S'z'
p29
sS'9'
p30
S'i'
p31
sS'8'
p32
S'f'
p33
sS'jMWNW'
p34
S'v'
p35
sS'UFihD'
p36
S'w'
p37
sS'NjYTS'
p38
S'p'
p39
sS'10'
p40
S'l'
p41
sS'12'
p42
S'd'
p43
sS'15'
p44
S'n'
p45
sS'16'
p46
S'a'
p47
sS'54'
p48
S'j'
p49
sS'57'
p50
S'y'
p51
sS'sfjRn'
p52
S'u'
p53
sS'ncLAC'
p54
S'b'
p55
ssS'cset'
p56
c__builtin__
set
p57
((lp58
g8
ag40
ag42
ag44
ag46
ag48
ag50
ag14
ag16
ag18
ag20
ag22
ag24
ag26
ag4
ag30
ag32
atp59
Rp60
sS'annealevel'
p61
F41.800000000000324
sS'strng'
p62
S'1118251011127124915121010111410215117112101112171344831110715142541434109161491493412122541010125127101519101112341255115251215755111234101112915121061534'
p63
sS'csplit'
p64
(lp65
I0
aI1
aI0
aI1
aI0
aI1
aI0
aI1
aI0
aI1
aI0
aI1
aI0
aI1
aI0
aI1
aI1
aI1
aI1
aI1
aI1
aI1
aI1
aI1
aI1
aI1
aI1
aI1
aI1
aI1
aI1
aI1
aI1
aI1
aI1
aI1
aI1
aI1
aI1
aI1
aI0
aI1
aI1
aI1
aI1
aI1
aI1
aI1
aI1
aI1
aI1
aI1
aI1
aI1
aI1
aI1
aI1
aI1
aI1
aI1
aI1
aI1
aI1
aI1
aI0
aI1
aI1
aI1
aI1
aI1
aI1
aI1
aI1
aI0
aI1
aI1
aI1
aI1
aI1
aI1
aI1
aI1
aI1
aI1
aI1
aI1
aI1
aI1
aI1
aI1
aI1
aI1
aI1
aI1
aI1
aI1
aI1
aI1
aI1
aI1
aI1
aI1
aI0
aI1
aI1
aI1
aI1
aI1
aI1
aI1
aI1
aI1
aI1
aI1
aI1
aI1
aI1
aI1
aI1
aI1
aI1
aI1
aI1
aI1
aI1
aI1
aI0
aI1
aI1
aI1
aI1
aI1
aI1
aI1
aI1
aI1
aI1
aI1
aI1
aI1
aI0
aI1
aI1
aI1
aI1
aI1
aI1
aI1
aI1
aI1
aI0
aI1
aI1
asS'spl'
p66
(lp67
g14
ag14
ag14
ag32
ag20
ag22
ag14
ag16
ag14
ag14
ag42
ag26
ag14
ag8
ag30
ag14
ag22
ag14
ag20
ag14
ag16
ag14
ag16
ag14
ag14
ag14
ag24
ag14
ag16
ag20
ag14
ag22
ag14
ag14
ag26
ag14
ag14
ag20
ag40
ag14
ag14
ag14
ag20
ag14
ag26
ag14
ag18
ag24
ag24
ag32
ag18
ag14
ag14
ag14
ag16
ag26
ag14
ag22
ag14
ag24
ag20
ag48
ag14
ag24
ag18
ag24
ag14
ag16
ag30
ag46
ag14
ag24
ag30
ag14
ag24
ag30
ag18
ag24
ag14
ag20
ag14
ag20
ag20
ag22
ag24
ag14
ag16
ag14
ag16
ag14
ag20
ag22
ag14
ag20
ag26
ag14
ag16
ag44
ag14
ag30
ag14
ag16
ag14
ag14
ag14
ag20
ag18
ag24
ag14
ag20
ag22
ag22
ag14
ag14
ag22
ag20
ag22
ag14
ag20
ag14
ag50
ag22
ag22
ag14
ag14
ag14
ag20
ag18
ag24
ag14
ag16
ag14
ag14
aS'12'
p68
ag30
ag14
ag22
ag14
ag20
ag14
ag16
ag4
aS'15'
p69
ag18
asS'ls'
p70
I153
sS'cscore'
p71
F0.4767909881600908
sb.
(i__main__
annealpoint
p0
(dp1
S'ccode'
p2
(dp3
S'bNnDQ'
p4
S'l'
p5
sS'51'
p6
S'i'
p7
sS'311'
p8
S'p'
p9
sS'GhVLE'
p10
S'u'
p11
sS'eSQOq'
p12
S'b'
p13
sS'01'
p14
S'a'
p15
sS'07'
p16
S'w'
p17
sS'xCava'
p18
S'j'
p19
sS'1'
p20
S'e'
p21
sS'0'
p22
S'd'
p23
sS'3'
p24
S'o'
p25
sS'2'
p26
S'n'
p27
sS'5'
p28
S's'
p29
sS'4'
p30
S't'
p31
sS'7'
p32
S'r'
p33
sS'6'
p34
S'g'
p35
sS'9'
p36
S'm'
p37
sS'8'
p38
S'y'
p39
sS'lgNEt'
p40
S'x'
p41
sS'OVyHx'
p42
S'h'
p43
sS'amHxA'
p44
S'v'
p45
sS'10'
p46
S'k'
p47
sS'12'
p48
S'f'
p49
sS'cgueA'
p50
S'q'
p51
sS'eYoTd'
p52
S'c'
p53
sS'SBCqK'
p54
S'z'
p55
ssS'cset'
p56
c__builtin__
set
p57
((lp58
g46
ag48
ag16
ag8
ag14
ag6
ag20
ag22
ag24
ag26
ag28
ag30
ag32
ag34
ag36
ag38
atp59
Rp60
sS'annealevel'
p61
F47.3000000000004
sS'strng'
p62
S'1118251011127124915121010111410215117112101112171344831110715142541434109161491493412122541010125127101519101112341255115251215755111234101112915121061534'
p63
sS'csplit'
p64
(lp65
I0
aI1
aI0
aI1
aI0
aI1
aI0
aI1
aI0
aI1
aI0
aI1
aI0
aI1
aI0
aI1
aI1
aI1
aI1
aI1
aI1
aI1
aI1
aI0
aI1
aI1
aI1
aI1
aI1
aI1
aI1
aI1
aI1
aI1
aI1
aI1
aI1
aI1
aI1
aI1
aI1
aI1
aI1
aI1
aI1
aI1
aI1
aI1
aI1
aI1
aI1
aI1
aI1
aI0
aI0
aI1
aI1
aI0
aI1
aI1
aI1
aI1
aI1
aI1
aI1
aI1
aI1
aI1
aI1
aI1
aI0
aI1
aI1
aI1
aI1
aI1
aI1
aI1
aI1
aI1
aI1
aI1
aI1
aI0
aI1
aI1
aI1
aI1
aI1
aI1
aI1
aI1
aI1
aI0
aI1
aI1
aI1
aI1
aI1
aI1
aI1
aI0
aI1
aI1
aI1
aI1
aI1
aI1
aI1
aI1
aI1
aI1
aI1
aI1
aI1
aI1
aI1
aI1
aI1
aI1
aI1
aI1
aI1
aI1
aI1
aI1
aI1
aI1
aI1
aI1
aI1
aI1
aI1
aI1
aI1
aI1
aI1
aI1
aI1
aI1
aI1
aI1
aI1
aI1
aI0
aI1
aI1
aI1
aI1
aI1
aI1
aI1
aI1
asS'spl'
p66
(lp67
g20
ag20
ag20
ag38
ag26
ag28
ag20
ag22
ag20
ag20
ag20
ag26
ag32
ag20
ag26
ag30
ag36
ag20
ag28
ag20
ag26
ag20
ag22
ag46
ag20
ag20
ag20
ag30
ag20
ag22
ag26
ag20
ag28
ag20
ag20
ag32
ag20
ag20
ag26
ag20
ag22
ag20
ag20
ag20
ag26
ag20
ag32
ag20
ag24
ag30
ag30
ag38
ag8
ag20
ag16
ag20
ag28
ag20
ag30
ag26
ag28
ag30
ag20
ag30
ag24
ag30
aS'10'
p68
ag36
ag20
ag34
ag20
ag30
ag36
ag20
ag30
ag36
ag24
ag30
ag48
ag20
ag26
ag26
ag28
ag30
ag20
ag22
ag20
ag14
ag26
ag28
ag20
ag26
ag32
ag20
aS'01'
p69
ag28
ag20
ag36
ag20
ag22
ag20
ag20
ag20
ag26
ag24
ag30
ag20
ag26
ag28
ag28
ag20
ag20
ag28
ag26
ag28
ag20
ag26
ag20
ag28
ag32
ag28
ag28
ag20
ag20
ag20
ag26
ag24
ag30
ag20
ag22
ag20
ag20
ag20
ag26
ag36
ag20
ag6
ag26
ag20
ag22
ag34
ag20
ag28
ag24
asS'ls'
p70
I153
sS'cscore'
p71
F0.48532551184725103
sb.
(i__main__
annealpoint
p0
(dp1
S'ccode'
p2
(dp3
S'FRmGG'
p4
S'c'
p5
sS'gbCmj'
p6
S'x'
p7
sS'AbEMn'
p8
S'p'
p9
sS'pKTsl'
p10
S'z'
p11
sS'OqLUr'
p12
S'o'
p13
sS'CPzhV'
p14
S'i'
p15
sS'01'
p16
S'n'
p17
sS'yCtmy'
p18
S'j'
p19
sS'1'
p20
S'e'
p21
sS'0'
p22
S'r'
p23
sS'3'
p24
S'a'
p25
sS'2'
p26
S'm'
p27
sS'5'
p28
S's'
p29
sS'4'
p30
S't'
p31
sS'7'
p32
S'v'
p33
sS'6'
p34
S'k'
p35
sS'9'
p36
S'h'
p37
sS'8'
p38
S'l'
p39
sS'715'
p40
S'w'
p41
sS'aPfii'
p42
S'q'
p43
sS'71'
p44
S'y'
p45
sS'11'
p46
S'd'
p47
sS'10'
p48
S'g'
p49
sS'12'
p50
S'b'
p51
sS'BxApp'
p52
S'u'
p53
sS'cTjqN'
p54
S'f'
p55
ssS'cset'
p56
c__builtin__
set
p57
((lp58
g46
ag48
ag16
ag44
ag40
ag20
ag22
ag24
ag26
ag28
ag30
ag32
ag34
ag36
ag38
ag50
atp59
Rp60
sS'annealevel'
p61
F51.800000000000466
sS'strng'
p62
S'1118251011127124915121010111410215117112101112171344831110715142541434109161491493412122541010125127101519101112341255115251215755111234101112915121061534'
p63
sS'csplit'
p64
(lp65
I0
aI1
aI0
aI1
aI0
aI1
aI0
aI1
aI0
aI1
aI0
aI1
aI0
aI1
aI0
aI1
aI1
aI1
aI1
aI1
aI1
aI1
aI1
aI1
aI0
aI1
aI1
aI1
aI1
aI1
aI1
aI1
aI1
aI1
aI1
aI1
aI0
aI1
aI1
aI1
aI1
aI1
aI1
aI1
aI1
aI1
aI1
aI1
aI1
aI1
aI1
aI1
aI1
aI1
aI1
aI1
aI1
aI1
aI0
aI0
aI1
aI1
aI1
aI1
aI1
aI1
aI1
aI1
aI1
aI1
aI0
aI1
aI1
aI1
aI1
aI1
aI1
aI1
aI1
aI1
aI1
aI1
aI1
aI1
aI1
aI1
aI1
aI1
aI1
aI1
aI1
aI1
aI1
aI1
aI1
aI1
aI1
aI0
aI1
aI0
aI1
aI1
aI1
aI1
aI1
aI1
aI1
aI1
aI1
aI1
aI1
aI1
aI1
aI1
aI1
aI1
aI1
aI1
aI0
aI1
aI1
aI1
aI1
aI1
aI1
aI1
aI1
aI1
aI1
aI1
aI1
aI1
aI1
aI1
aI1
aI1
aI1
aI1
aI1
aI1
aI1
aI1
aI1
aI1
aI1
aI1
aI1
aI1
aI1
aI1
aI1
aI1
aI1
asS'spl'
p66
(lp67
g20
ag20
ag20
ag38
ag26
ag28
ag20
ag22
ag20
ag46
ag26
ag32
ag20
ag26
ag30
ag36
ag20
ag28
ag20
ag26
ag20
ag22
ag20
ag16
ag20
ag20
ag30
ag20
ag22
ag26
ag20
ag28
ag20
ag20
ag44
ag20
ag26
ag20
ag22
ag20
ag20
ag20
ag26
ag20
ag32
ag20
ag24
ag30
ag30
ag38
ag24
ag20
ag20
ag20
ag22
ag40
ag20
ag30
ag26
ag28
ag30
ag20
ag30
ag24
ag30
ag48
ag36
ag20
ag34
ag20
ag30
ag36
ag20
ag30
ag36
ag24
ag30
ag20
ag26
ag20
ag26
ag26
ag28
ag30
ag20
ag22
ag20
ag22
ag20
ag26
ag28
ag50
aS'71'
p68
ag22
ag20
ag28
ag20
ag36
ag20
ag22
ag20
ag20
ag20
ag26
ag24
ag30
ag20
ag26
ag28
ag28
aS'11'
p69
ag28
ag26
ag28
ag20
ag26
ag20
ag28
ag32
ag28
ag28
ag20
ag20
ag20
ag26
ag24
ag30
ag20
ag22
ag20
ag20
ag20
ag26
ag36
ag20
ag28
ag20
ag26
ag20
ag22
ag34
ag20
ag28
ag24
asS'ls'
p70
I153
sS'cscore'
p71
F0.493670543147879
sb.
(i__main__
annealpoint
p0
(dp1
S'ccode'
p2
(dp3
S'bNnDQ'
p4
S'b'
p5
sS'51'
p6
S'l'
p7
sS'311'
p8
S'c'
p9
sS'GhVLE'
p10
S'm'
p11
sS'eSQOq'
p12
S'u'
p13
sS'01'
p14
S'a'
p15
sS'07'
p16
S'j'
p17
sS'xCava'
p18
S'y'
p19
sS'1'
p20
S'e'
p21
sS'0'
p22
S's'
p23
sS'3'
p24
S'i'
p25
sS'2'
p26
S'r'
p27
sS'5'
p28
S'd'
p29
sS'4'
p30
S't'
p31
sS'7'
p32
S'n'
p33
sS'6'
p34
S'z'
p35
sS'9'
p36
S'h'
p37
sS'8'
p38
S'p'
p39
sS'lgNEt'
p40
S'q'
p41
sS'OVyHx'
p42
S'v'
p43
sS'amHxA'
p44
S'w'
p45
sS'10'
p46
S'o'
p47
sS'12'
p48
S'f'
p49
sS'cgueA'
p50
S'x'
p51
sS'eYoTd'
p52
S'g'
p53
sS'SBCqK'
p54
S'k'
p55
ssS'cset'
p56
c__builtin__
set
p57
((lp58
g46
ag48
ag16
ag8
ag14
ag6
ag20
ag22
ag24
ag26
ag28
ag30
ag32
ag34
ag36
ag38
atp59
Rp60
sS'annealevel'
p61
F51.700000000000465
sS'strng'
p62
S'1118251011127124915121010111410215117112101112171344831110715142541434109161491493412122541010125127101519101112341255115251215755111234101112915121061534'
p63
sS'csplit'
p64
(lp65
I0
aI1
aI0
aI1
aI0
aI1
aI0
aI1
aI0
aI1
aI0
aI1
aI0
aI1
aI0
aI1
aI1
aI1
aI1
aI1
aI1
aI1
aI1
aI0
aI1
aI1
aI1
aI1
aI1
aI1
aI1
aI1
aI1
aI1
aI1
aI1
aI1
aI1
aI1
aI1
aI1
aI1
aI1
aI1
aI1
aI1
aI1
aI1
aI1
aI1
aI1
aI1
aI1
aI0
aI0
aI1
aI1
aI0
aI1
aI1
aI1
aI1
aI1
aI1
aI1
aI1
aI1
aI1
aI1
aI1
aI0
aI1
aI1
aI1
aI1
aI1
aI1
aI1
aI1
aI1
aI1
aI1
aI1
aI0
aI1
aI1
aI1
aI1
aI1
aI1
aI1
aI1
aI1
aI0
aI1
aI1
aI1
aI1
aI1
aI1
aI1
aI0
aI1
aI1
aI1
aI1
aI1
aI1
aI1
aI1
aI1
aI1
aI1
aI1
aI1
aI1
aI1
aI1
aI1
aI1
aI1
aI1
aI1
aI1
aI1
aI1
aI1
aI1
aI1
aI1
aI1
aI1
aI1
aI1
aI1
aI1
aI1
aI1
aI1
aI1
aI1
aI1
aI1
aI1
aI0
aI1
aI1
aI1
aI1
aI1
aI1
aI1
aI1
asS'spl'
p66
(lp67
g20
ag20
ag20
ag38
ag26
ag28
ag20
ag22
ag20
ag20
ag20
ag26
ag32
ag20
ag26
ag30
ag36
ag20
ag28
ag20
ag26
ag20
ag22
ag46
ag20
ag20
ag20
ag30
ag20
ag22
ag26
ag20
ag28
ag20
ag20
ag32
ag20
ag20
ag26
ag20
ag22
ag20
ag20
ag20
ag26
ag20
ag32
ag20
ag24
ag30
ag30
ag38
ag8
ag20
ag16
ag20
ag28
ag20
ag30
ag26
ag28
ag30
ag20
ag30
ag24
ag30
aS'10'
p68
ag36
ag20
ag34
ag20
ag30
ag36
ag20
ag30
ag36
ag24
ag30
ag48
ag20
ag26
ag26
ag28
ag30
ag20
ag22
ag20
ag14
ag26
ag28
ag20
ag26
ag32
ag20
aS'01'
p69
ag28
ag20
ag36
ag20
ag22
ag20
ag20
ag20
ag26
ag24
ag30
ag20
ag26
ag28
ag28
ag20
ag20
ag28
ag26
ag28
ag20
ag26
ag20
ag28
ag32
ag28
ag28
ag20
ag20
ag20
ag26
ag24
ag30
ag20
ag22
ag20
ag20
ag20
ag26
ag36
ag20
ag6
ag26
ag20
ag22
ag34
ag20
ag28
ag24
asS'ls'
p70
I153
sS'cscore'
p71
F0.5212631357404716
sb.
(i__main__
annealpoint
p0
(dp1
S'ccode'
p2
(dp3
S'xJELm'
p4
S'b'
p5
sS'FEDEZ'
p6
S'j'
p7
sS'111'
p8
S'w'
p9
sS'83'
p10
S'f'
p11
sS'01'
p12
S'y'
p13
sS'nhwBq'
p14
S'k'
p15
sS'MSKKC'
p16
S'z'
p17
sS'41'
p18
S'm'
p19
sS'1'
p20
S'e'
p21
sS'0'
p22
S's'
p23
sS'3'
p24
S'i'
p25
sS'2'
p26
S'l'
p27
sS'5'
p28
S't'
p29
sS'4'
p30
S'n'
p31
sS'7'
p32
S'v'
p33
sS'6'
p34
S'o'
p35
sS'9'
p36
S'd'
p37
sS'8'
p38
S'p'
p39
sS'UZnwU'
p40
S'q'
p41
sS'10'
p42
S'c'
p43
sS'12'
p44
S'h'
p45
sS'QSagU'
p46
S'u'
p47
sS'cjmXt'
p48
S'x'
p49
sS'414'
p50
S'r'
p51
sS'OnoPQ'
p52
S'a'
p53
sS'fNCma'
p54
S'g'
p55
ssS'cset'
p56
c__builtin__
set
p57
((lp58
g42
ag12
ag50
ag34
ag24
ag18
ag20
ag22
ag8
ag26
ag28
ag30
ag32
ag10
ag36
ag38
ag44
atp59
Rp60
sS'annealevel'
p61
F49.30000000000043
sS'strng'
p62
S'1118251011127124915121010111410215117112101112171344831110715142541434109161491493412122541010125127101519101112341255115251215755111234101112915121061534'
p63
sS'csplit'
p64
(lp65
I0
aI1
aI0
aI1
aI0
aI1
aI0
aI1
aI0
aI1
aI0
aI1
aI0
aI1
aI0
aI1
aI1
aI1
aI1
aI1
aI1
aI1
aI1
aI0
aI1
aI0
aI0
aI1
aI1
aI1
aI1
aI1
aI1
aI1
aI1
aI1
aI1
aI1
aI1
aI1
aI1
aI1
aI1
aI1
aI1
aI1
aI1
aI1
aI1
aI1
aI1
aI1
aI0
aI1
aI1
aI1
aI1
aI1
aI1
aI1
aI1
aI1
aI1
aI1
aI1
aI0
aI0
aI1
aI1
aI1
aI1
aI1
aI1
aI1
aI1
aI1
aI1
aI1
aI1
aI1
aI1
aI1
aI1
aI1
aI1
aI1
aI1
aI1
aI1
aI0
aI1
aI0
aI1
aI1
aI1
aI1
aI1
aI1
aI1
aI1
aI1
aI1
aI1
aI1
aI1
aI1
aI1
aI1
aI1
aI1
aI1
aI1
aI1
aI1
aI1
aI1
aI1
aI1
aI1
aI1
aI1
aI1
aI1
aI1
aI1
aI1
aI1
aI1
aI1
aI1
aI1
aI1
aI1
aI1
aI1
aI0
aI1
aI1
aI1
aI1
aI1
aI1
aI1
aI1
aI1
aI0
aI1
aI1
aI1
aI1
aI1
aI1
aI1
asS'spl'
p66
(lp67
g20
ag20
ag20
ag38
ag26
ag28
ag20
ag22
ag20
ag20
ag20
ag26
ag32
ag20
ag26
ag30
ag36
ag20
ag28
ag20
ag26
ag20
ag22
ag42
ag8
ag30
ag20
ag22
ag26
ag20
ag28
ag20
ag20
ag32
ag20
ag20
ag26
ag20
ag22
ag20
ag20
ag20
ag26
ag20
ag32
ag20
ag24
ag30
ag30
ag10
ag20
ag20
ag20
ag22
ag32
ag20
ag28
ag20
ag30
ag26
ag28
ag50
ag24
ag30
ag20
ag22
ag36
ag20
ag34
ag20
ag30
ag36
ag20
ag30
ag36
ag24
ag30
ag20
ag26
ag20
ag26
ag26
ag28
ag18
ag12
ag22
ag20
ag26
ag28
ag20
ag26
ag32
ag20
ag22
ag20
ag28
ag20
ag36
ag20
ag22
ag20
ag20
ag20
ag26
ag24
ag30
ag20
ag26
ag28
ag28
ag20
ag20
ag28
ag26
ag28
ag20
ag26
ag20
ag28
ag32
ag28
ag28
ag20
ag20
ag20
ag26
ag24
aS'41'
p68
ag22
ag20
ag20
ag20
ag26
ag36
ag20
ag28
ag44
ag20
ag22
ag34
ag20
ag28
ag24
asS'ls'
p69
I153
sS'cscore'
p70
F0.5272200196760789
sb.
(i__main__
annealpoint
p0
(dp1
S'ccode'
p2
(dp3
S'WQDgm'
p4
S'c'
p5
sS'UxrpB'
p6
S'q'
p7
sS'fobVC'
p8
S'z'
p9
sS'27'
p10
S'd'
p11
sS'1'
p12
S'e'
p13
sS'0'
p14
S'n'
p15
sS'3'
p16
S'a'
p17
sS'2'
p18
S'l'
p19
sS'5'
p20
S's'
p21
sS'4'
p22
S't'
p23
sS'7'
p24
S'v'
p25
sS'cEJth'
p26
S'b'
p27
sS'9'
p28
S'h'
p29
sS'8'
p30
S'i'
p31
sS'6'
p32
S'g'
p33
sS'oqKMI'
p34
S'x'
p35
sS'CdirW'
p36
S'y'
p37
sS'arxqk'
p38
S'f'
p39
sS'11'
p40
S'p'
p41
sS'12'
p42
S'w'
p43
sS'15'
p44
S'k'
p45
sS'16'
p46
S'u'
p47
sS'51'
p48
S'm'
p49
sS'34'
p50
S'o'
p51
sS'GmJnd'
p52
S'r'
p53
sS'Mexyv'
p54
S'j'
p55
ssS'cset'
p56
c__builtin__
set
p57
((lp58
g40
ag10
ag44
ag46
ag48
ag50
ag12
ag14
ag16
ag18
ag20
ag22
ag24
ag32
ag28
ag30
ag42
atp59
Rp60
sS'annealevel'
p61
F51.100000000000456
sS'strng'
p62
S'1118251011127124915121010111410215117112101112171344831110715142541434109161491493412122541010125127101519101112341255115251215755111234101112915121061534'
p63
sS'csplit'
p64
(lp65
I0
aI1
aI0
aI1
aI0
aI1
aI0
aI1
aI0
aI1
aI0
aI1
aI0
aI1
aI0
aI1
aI1
aI1
aI1
aI1
aI1
aI1
aI1
aI1
aI1
aI1
aI1
aI1
aI1
aI1
aI1
aI1
aI1
aI1
aI1
aI1
aI1
aI1
aI0
aI1
aI1
aI1
aI1
aI1
aI1
aI1
aI1
aI1
aI1
aI0
aI1
aI1
aI1
aI1
aI0
aI1
aI1
aI1
aI1
aI1
aI1
aI1
aI1
aI1
aI1
aI1
aI1
aI1
aI1
aI1
aI1
aI1
aI1
aI0
aI1
aI1
aI1
aI1
aI1
aI1
aI1
aI0
aI1
aI0
aI1
aI1
aI1
aI1
aI1
aI1
aI1
aI1
aI1
aI1
aI1
aI1
aI1
aI1
aI1
aI1
aI1
aI1
aI1
aI1
aI1
aI1
aI1
aI1
aI1
aI1
aI1
aI1
aI1
aI1
aI1
aI1
aI1
aI0
aI1
aI1
aI1
aI1
aI1
aI1
aI1
aI0
aI1
aI1
aI1
aI1
aI1
aI1
aI1
aI1
aI1
aI1
aI1
aI1
aI0
aI1
aI1
aI1
aI1
aI1
aI1
aI1
aI1
aI1
aI1
aI1
aI1
aI1
aI1
asS'spl'
p66
(lp67
g12
ag12
ag12
ag30
ag18
ag20
ag12
ag14
ag12
ag12
ag12
ag10
ag12
ag18
ag22
ag28
ag12
ag20
ag12
ag18
ag12
ag14
ag12
ag14
ag12
ag12
ag12
ag22
ag12
ag14
ag18
ag12
ag20
ag12
ag12
ag24
ag12
ag42
ag12
ag14
ag12
ag12
ag12
ag18
ag12
ag24
ag12
ag50
ag22
ag30
ag16
ag40
ag12
ag14
ag24
ag12
ag20
ag12
ag22
ag18
ag20
ag22
ag12
ag22
ag16
ag22
ag12
ag14
ag28
ag46
ag12
ag22
ag28
ag12
ag22
ag28
aS'34'
p68
aS'12'
p69
ag12
ag18
ag18
ag20
ag22
ag12
ag14
ag12
ag14
ag12
ag18
ag20
ag12
ag18
ag24
ag12
ag14
ag12
ag20
ag12
ag28
ag12
ag14
ag12
ag12
ag12
ag18
ag16
ag22
ag12
ag18
ag20
ag48
ag12
ag20
ag18
ag20
ag12
ag18
ag44
ag24
ag20
ag20
ag12
ag12
ag12
ag18
ag16
ag22
ag12
ag14
aS'11'
p70
ag12
ag18
ag28
ag12
ag20
ag12
ag18
ag12
ag14
ag32
ag12
ag20
ag16
asS'ls'
p71
I153
sS'cscore'
p72
F0.5313043478260869
sb.
(i__main__
annealpoint
p0
(dp1
S'ccode'
p2
(dp3
S'sEDZf'
p4
S'j'
p5
sS'rmMHW'
p6
S'g'
p7
sS'09'
p8
S'f'
p9
sS'QOhkT'
p10
S'y'
p11
sS'3'
p12
S'o'
p13
sS'1'
p14
S'e'
p15
sS'0'
p16
S'r'
p17
sS'efcVM'
p18
S'q'
p19
sS'2'
p20
S's'
p21
sS'5'
p22
S'h'
p23
sS'4'
p24
S'n'
p25
sS'7'
p26
S'i'
p27
sS'GtQXX'
p28
S'p'
p29
sS'9'
p30
S'd'
p31
sS'8'
p32
S'c'
p33
sS'6'
p34
S'v'
p35
sS'aYClH'
p36
S'x'
p37
sS'VtgFf'
p38
S'z'
p39
sS'91'
p40
S'b'
p41
sS'mgfOv'
p42
S'l'
p43
sS'11'
p44
S'a'
p45
sS'10'
p46
S'm'
p47
sS'12'
p48
S't'
p49
sS'15'
p50
S'u'
p51
sS'17'
p52
S'w'
p53
sS'QYqEV'
p54
S'k'
p55
ssS'cset'
p56
c__builtin__
set
p57
((lp58
g44
ag46
ag48
ag50
ag52
ag8
ag30
ag14
ag16
ag12
ag20
ag22
ag24
ag26
ag34
ag40
ag32
atp59
Rp60
sS'annealevel'
p61
F71.30000000000022
sS'strng'
p62
S'1118251011127124915121010111410215117112101112171344831110715142541434109161491493412122541010125127101519101112341255115251215755111234101112915121061534'
p63
sS'csplit'
p64
(lp65
I0
aI1
aI0
aI1
aI0
aI1
aI0
aI1
aI0
aI1
aI0
aI1
aI0
aI1
aI0
aI1
aI0
aI1
aI1
aI1
aI1
aI1
aI1
aI1
aI1
aI1
aI1
aI1
aI1
aI1
aI1
aI1
aI1
aI1
aI1
aI0
aI1
aI0
aI1
aI1
aI1
aI1
aI1
aI0
aI1
aI1
aI0
aI1
aI1
aI1
aI1
aI1
aI1
aI1
aI1
aI1
aI1
aI1
aI1
aI1
aI1
aI1
aI1
aI1
aI1
aI1
aI1
aI1
aI1
aI1
aI1
aI0
aI1
aI1
aI1
aI1
aI1
aI0
aI1
aI1
aI1
aI1
aI1
aI1
aI1
aI1
aI1
aI1
aI1
aI1
aI1
aI1
aI1
aI1
aI1
aI1
aI1
aI1
aI1
aI1
aI1
aI1
aI1
aI1
aI1
aI1
aI0
aI1
aI1
aI1
aI1
aI1
aI1
aI1
aI1
aI1
aI1
aI1
aI1
aI0
aI1
aI1
aI1
aI1
aI1
aI1
aI1
aI1
aI1
aI1
aI1
aI1
aI1
aI1
aI1
aI1
aI1
aI1
aI1
aI1
aI1
aI1
aI1
aI1
aI1
aI1
aI1
aI1
aI1
aI1
aI1
aI1
aI1
asS'spl'
p66
(lp67
g14
ag14
ag14
ag32
ag20
ag22
ag14
ag16
ag14
ag14
ag14
ag20
ag26
ag48
ag24
ag40
ag22
ag14
ag20
ag14
ag16
ag14
ag16
ag14
ag14
ag14
ag24
ag14
ag16
ag20
ag14
ag22
ag14
ag52
ag44
ag20
ag14
ag16
ag14
aS'11'
p68
ag20
aS'17'
p69
ag14
ag12
ag24
ag24
ag32
ag12
ag14
ag14
ag14
ag16
ag26
ag14
ag22
ag14
ag24
ag20
ag22
ag24
ag14
ag24
ag12
ag24
ag14
ag8
ag14
ag34
ag14
ag24
aS'91'
p70
ag24
ag30
ag12
ag24
ag14
ag20
ag14
ag20
ag20
ag22
ag24
ag14
ag16
ag14
ag16
ag14
ag20
ag22
ag14
ag20
ag26
ag14
ag16
ag14
ag22
ag14
ag30
ag46
ag14
ag14
ag14
ag20
ag12
ag24
ag14
ag20
ag22
ag22
ag14
ag50
ag20
ag22
ag14
ag20
ag14
ag22
ag26
ag22
ag22
ag14
ag14
ag14
ag20
ag12
ag24
ag14
ag16
ag14
ag14
ag14
ag20
ag30
ag14
ag22
ag14
ag20
ag14
ag16
ag34
ag14
ag22
ag12
asS'ls'
p71
I153
sS'cscore'
p72
F0.5335026112408167
sb.
(i__main__
annealpoint
p0
(dp1
S'ccode'
p2
(dp3
S'bNnDQ'
p4
S'm'
p5
sS'51'
p6
S'b'
p7
sS'311'
p8
S'w'
p9
sS'GhVLE'
p10
S'g'
p11
sS'eSQOq'
p12
S'z'
p13
sS'01'
p14
S'i'
p15
sS'07'
p16
S'n'
p17
sS'xCava'
p18
S'o'
p19
sS'1'
p20
S'e'
p21
sS'0'
p22
S'd'
p23
sS'3'
p24
S'a'
p25
sS'2'
p26
S'r'
p27
sS'5'
p28
S's'
p29
sS'4'
p30
S't'
p31
sS'7'
p32
S'v'
p33
sS'6'
p34
S'p'
p35
sS'9'
p36
S'h'
p37
sS'8'
p38
S'y'
p39
sS'lgNEt'
p40
S'q'
p41
sS'OVyHx'
p42
S'l'
p43
sS'amHxA'
p44
S'c'
p45
sS'10'
p46
S'f'
p47
sS'12'
p48
S'j'
p49
sS'cgueA'
p50
S'x'
p51
sS'eYoTd'
p52
S'k'
p53
sS'SBCqK'
p54
S'u'
p55
ssS'cset'
p56
c__builtin__
set
p57
((lp58
g46
ag48
ag16
ag8
ag14
ag6
ag20
ag22
ag24
ag26
ag28
ag30
ag32
ag34
ag36
ag38
atp59
Rp60
sS'annealevel'
p61
F77.89999999999985
sS'strng'
p62
S'1118251011127124915121010111410215117112101112171344831110715142541434109161491493412122541010125127101519101112341255115251215755111234101112915121061534'
p63
sS'csplit'
p64
(lp65
I0
aI1
aI0
aI1
aI0
aI1
aI0
aI1
aI0
aI1
aI0
aI1
aI0
aI1
aI0
aI1
aI1
aI1
aI1
aI1
aI1
aI1
aI1
aI0
aI1
aI1
aI1
aI1
aI1
aI1
aI1
aI1
aI1
aI1
aI1
aI1
aI1
aI1
aI1
aI1
aI1
aI1
aI1
aI1
aI1
aI1
aI1
aI1
aI1
aI1
aI1
aI1
aI1
aI0
aI0
aI1
aI1
aI0
aI1
aI1
aI1
aI1
aI1
aI1
aI1
aI1
aI1
aI1
aI1
aI1
aI0
aI1
aI1
aI1
aI1
aI1
aI1
aI1
aI1
aI1
aI1
aI1
aI1
aI0
aI1
aI1
aI1
aI1
aI1
aI1
aI1
aI1
aI1
aI0
aI1
aI1
aI1
aI1
aI1
aI1
aI1
aI0
aI1
aI1
aI1
aI1
aI1
aI1
aI1
aI1
aI1
aI1
aI1
aI1
aI1
aI1
aI1
aI1
aI1
aI1
aI1
aI1
aI1
aI1
aI1
aI1
aI1
aI1
aI1
aI1
aI1
aI1
aI1
aI1
aI1
aI1
aI1
aI1
aI1
aI1
aI1
aI1
aI1
aI1
aI0
aI1
aI1
aI1
aI1
aI1
aI1
aI1
aI1
asS'spl'
p66
(lp67
g20
ag20
ag20
ag38
ag26
ag28
ag20
ag22
ag20
ag20
ag20
ag26
ag32
ag20
ag26
ag30
ag36
ag20
ag28
ag20
ag26
ag20
ag22
ag46
ag20
ag20
ag20
ag30
ag20
ag22
ag26
ag20
ag28
ag20
ag20
ag32
ag20
ag20
ag26
ag20
ag22
ag20
ag20
ag20
ag26
ag20
ag32
ag20
ag24
ag30
ag30
ag38
ag8
ag20
ag16
ag20
ag28
ag20
ag30
ag26
ag28
ag30
ag20
ag30
ag24
ag30
aS'10'
p68
ag36
ag20
ag34
ag20
ag30
ag36
ag20
ag30
ag36
ag24
ag30
ag48
ag20
ag26
ag26
ag28
ag30
ag20
ag22
ag20
ag14
ag26
ag28
ag20
ag26
ag32
ag20
aS'01'
p69
ag28
ag20
ag36
ag20
ag22
ag20
ag20
ag20
ag26
ag24
ag30
ag20
ag26
ag28
ag28
ag20
ag20
ag28
ag26
ag28
ag20
ag26
ag20
ag28
ag32
ag28
ag28
ag20
ag20
ag20
ag26
ag24
ag30
ag20
ag22
ag20
ag20
ag20
ag26
ag36
ag20
ag6
ag26
ag20
ag22
ag34
ag20
ag28
ag24
asS'ls'
p70
I153
sS'cscore'
p71
F0.5454739879300471
sb.
(i__main__
annealpoint
p0
(dp1
S'ccode'
p2
(dp3
S'6'
p4
S'f'
p5
sS'PhvrA'
p6
S'u'
p7
sS'24'
p8
S'b'
p9
sS'zBvaW'
p10
S'j'
p11
sS'MzFSN'
p12
S'q'
p13
sS'1'
p14
S'e'
p15
sS'0'
p16
S'w'
p17
sS'3'
p18
S'a'
p19
sS'2'
p20
S's'
p21
sS'5'
p22
S'h'
p23
sS'4'
p24
S'r'
p25
sS'7'
p26
S'y'
p27
sS'GcFgS'
p28
S'c'
p29
sS'9'
p30
S'd'
p31
sS'8'
p32
S'v'
p33
sS'jMWNW'
p34
S'o'
p35
sS'UFihD'
p36
S'k'
p37
sS'NjYTS'
p38
S'l'
p39
sS'10'
p40
S'n'
p41
sS'12'
p42
S'i'
p43
sS'15'
p44
S'm'
p45
sS'16'
p46
S'p'
p47
sS'54'
p48
S't'
p49
sS'57'
p50
S'g'
p51
sS'sfjRn'
p52
S'z'
p53
sS'ncLAC'
p54
S'x'
p55
ssS'cset'
p56
c__builtin__
set
p57
((lp58
g8
ag40
ag42
ag44
ag46
ag48
ag50
ag14
ag16
ag18
ag20
ag22
ag24
ag26
ag4
ag30
ag32
atp59
Rp60
sS'annealevel'
p61
F85.29999999999943
sS'strng'
p62
S'1118251011127124915121010111410215117112101112171344831110715142541434109161491493412122541010125127101519101112341255115251215755111234101112915121061534'
p63
sS'csplit'
p64
(lp65
I0
aI1
aI0
aI1
aI0
aI1
aI0
aI1
aI0
aI1
aI0
aI1
aI0
aI1
aI0
aI1
aI1
aI1
aI1
aI1
aI1
aI1
aI1
aI1
aI1
aI1
aI1
aI1
aI1
aI1
aI1
aI1
aI1
aI1
aI1
aI1
aI1
aI1
aI1
aI1
aI0
aI1
aI1
aI1
aI1
aI1
aI1
aI1
aI1
aI1
aI1
aI1
aI1
aI1
aI1
aI1
aI1
aI1
aI1
aI1
aI1
aI1
aI1
aI1
aI0
aI1
aI1
aI1
aI1
aI1
aI1
aI1
aI1
aI0
aI1
aI1
aI1
aI1
aI1
aI1
aI1
aI1
aI1
aI1
aI1
aI1
aI1
aI1
aI1
aI1
aI1
aI1
aI1
aI1
aI1
aI1
aI1
aI1
aI1
aI1
aI1
aI1
aI0
aI1
aI1
aI1
aI1
aI1
aI1
aI1
aI1
aI1
aI1
aI1
aI1
aI1
aI1
aI1
aI1
aI1
aI1
aI1
aI1
aI1
aI1
aI1
aI0
aI1
aI1
aI1
aI1
aI1
aI1
aI1
aI1
aI1
aI1
aI1
aI1
aI1
aI0
aI1
aI1
aI1
aI1
aI1
aI1
aI1
aI1
aI1
aI0
aI1
aI1
asS'spl'
p66
(lp67
g14
ag14
ag14
ag32
ag20
ag22
ag14
ag16
ag14
ag14
ag42
ag26
ag14
ag8
ag30
ag14
ag22
ag14
ag20
ag14
ag16
ag14
ag16
ag14
ag14
ag14
ag24
ag14
ag16
ag20
ag14
ag22
ag14
ag14
ag26
ag14
ag14
ag20
ag40
ag14
ag14
ag14
ag20
ag14
ag26
ag14
ag18
ag24
ag24
ag32
ag18
ag14
ag14
ag14
ag16
ag26
ag14
ag22
ag14
ag24
ag20
ag48
ag14
ag24
ag18
ag24
ag14
ag16
ag30
ag46
ag14
ag24
ag30
ag14
ag24
ag30
ag18
ag24
ag14
ag20
ag14
ag20
ag20
ag22
ag24
ag14
ag16
ag14
ag16
ag14
ag20
ag22
ag14
ag20
ag26
ag14
ag16
ag44
ag14
ag30
ag14
ag16
ag14
ag14
ag14
ag20
ag18
ag24
ag14
ag20
ag22
ag22
ag14
ag14
ag22
ag20
ag22
ag14
ag20
ag14
ag50
ag22
ag22
ag14
ag14
ag14
ag20
ag18
ag24
ag14
ag16
ag14
ag14
aS'12'
p68
ag30
ag14
ag22
ag14
ag20
ag14
ag16
ag4
aS'15'
p69
ag18
asS'ls'
p70
I153
sS'cscore'
p71
F0.5521946169772257
sb.
(i__main__
annealpoint
p0
(dp1
S'ccode'
p2
(dp3
S'6'
p4
S'f'
p5
sS'PhvrA'
p6
S'u'
p7
sS'24'
p8
S'n'
p9
sS'zBvaW'
p10
S'k'
p11
sS'MzFSN'
p12
S'q'
p13
sS'1'
p14
S'e'
p15
sS'0'
p16
S'm'
p17
sS'3'
p18
S'a'
p19
sS'2'
p20
S's'
p21
sS'5'
p22
S'h'
p23
sS'4'
p24
S'r'
p25
sS'7'
p26
S'y'
p27
sS'GcFgS'
p28
S'c'
p29
sS'9'
p30
S'd'
p31
sS'8'
p32
S'v'
p33
sS'jMWNW'
p34
S'o'
p35
sS'UFihD'
p36
S'j'
p37
sS'NjYTS'
p38
S'b'
p39
sS'10'
p40
S'l'
p41
sS'12'
p42
S'i'
p43
sS'15'
p44
S'w'
p45
sS'16'
p46
S't'
p47
sS'54'
p48
S'p'
p49
sS'57'
p50
S'g'
p51
sS'sfjRn'
p52
S'z'
p53
sS'ncLAC'
p54
S'x'
p55
ssS'cset'
p56
c__builtin__
set
p57
((lp58
g8
ag40
ag42
ag44
ag46
ag48
ag50
ag14
ag16
ag18
ag20
ag22
ag24
ag26
ag4
ag30
ag32
atp59
Rp60
sS'annealevel'
p61
F85.39999999999942
sS'strng'
p62
S'1118251011127124915121010111410215117112101112171344831110715142541434109161491493412122541010125127101519101112341255115251215755111234101112915121061534'
p63
sS'csplit'
p64
(lp65
I0
aI1
aI0
aI1
aI0
aI1
aI0
aI1
aI0
aI1
aI0
aI1
aI0
aI1
aI0
aI1
aI1
aI1
aI1
aI1
aI1
aI1
aI1
aI1
aI1
aI1
aI1
aI1
aI1
aI1
aI1
aI1
aI1
aI1
aI1
aI1
aI1
aI1
aI1
aI1
aI0
aI1
aI1
aI1
aI1
aI1
aI1
aI1
aI1
aI1
aI1
aI1
aI1
aI1
aI1
aI1
aI1
aI1
aI1
aI1
aI1
aI1
aI1
aI1
aI0
aI1
aI1
aI1
aI1
aI1
aI1
aI1
aI1
aI0
aI1
aI1
aI1
aI1
aI1
aI1
aI1
aI1
aI1
aI1
aI1
aI1
aI1
aI1
aI1
aI1
aI1
aI1
aI1
aI1
aI1
aI1
aI1
aI1
aI1
aI1
aI1
aI1
aI0
aI1
aI1
aI1
aI1
aI1
aI1
aI1
aI1
aI1
aI1
aI1
aI1
aI1
aI1
aI1
aI1
aI1
aI1
aI1
aI1
aI1
aI1
aI1
aI0
aI1
aI1
aI1
aI1
aI1
aI1
aI1
aI1
aI1
aI1
aI1
aI1
aI1
aI0
aI1
aI1
aI1
aI1
aI1
aI1
aI1
aI1
aI1
aI0
aI1
aI1
asS'spl'
p66
(lp67
g14
ag14
ag14
ag32
ag20
ag22
ag14
ag16
ag14
ag14
ag42
ag26
ag14
ag8
ag30
ag14
ag22
ag14
ag20
ag14
ag16
ag14
ag16
ag14
ag14
ag14
ag24
ag14
ag16
ag20
ag14
ag22
ag14
ag14
ag26
ag14
ag14
ag20
ag40
ag14
ag14
ag14
ag20
ag14
ag26
ag14
ag18
ag24
ag24
ag32
ag18
ag14
ag14
ag14
ag16
ag26
ag14
ag22
ag14
ag24
ag20
ag48
ag14
ag24
ag18
ag24
ag14
ag16
ag30
ag46
ag14
ag24
ag30
ag14
ag24
ag30
ag18
ag24
ag14
ag20
ag14
ag20
ag20
ag22
ag24
ag14
ag16
ag14
ag16
ag14
ag20
ag22
ag14
ag20
ag26
ag14
ag16
ag44
ag14
ag30
ag14
ag16
ag14
ag14
ag14
ag20
ag18
ag24
ag14
ag20
ag22
ag22
ag14
ag14
ag22
ag20
ag22
ag14
ag20
ag14
ag50
ag22
ag22
ag14
ag14
ag14
ag20
ag18
ag24
ag14
ag16
ag14
ag14
aS'12'
p68
ag30
ag14
ag22
ag14
ag20
ag14
ag16
ag4
aS'15'
p69
ag18
asS'ls'
p70
I153
sS'cscore'
p71
F0.5667448815274903
sb.
(i__main__
annealpoint
p0
(dp1
S'ccode'
p2
(dp3
S'6'
p4
S'q'
p5
sS'PhvrA'
p6
S'u'
p7
sS'24'
p8
S'y'
p9
sS'zBvaW'
p10
S'f'
p11
sS'MzFSN'
p12
S't'
p13
sS'1'
p14
S'e'
p15
sS'0'
p16
S'm'
p17
sS'3'
p18
S'a'
p19
sS'2'
p20
S's'
p21
sS'5'
p22
S'h'
p23
sS'4'
p24
S'r'
p25
sS'7'
p26
S'n'
p27
sS'GcFgS'
p28
S'c'
p29
sS'9'
p30
S'd'
p31
sS'8'
p32
S'k'
p33
sS'jMWNW'
p34
S'o'
p35
sS'UFihD'
p36
S'j'
p37
sS'NjYTS'
p38
S'b'
p39
sS'10'
p40
S'l'
p41
sS'12'
p42
S'i'
p43
sS'15'
p44
S'w'
p45
sS'16'
p46
S'v'
p47
sS'54'
p48
S'p'
p49
sS'57'
p50
S'g'
p51
sS'sfjRn'
p52
S'z'
p53
sS'ncLAC'
p54
S'x'
p55
ssS'cset'
p56
c__builtin__
set
p57
((lp58
g8
ag40
ag42
ag44
ag46
ag48
ag50
ag14
ag16
ag18
ag20
ag22
ag24
ag26
ag4
ag30
ag32
atp59
Rp60
sS'annealevel'
p61
F85.59999999999941
sS'strng'
p62
S'1118251011127124915121010111410215117112101112171344831110715142541434109161491493412122541010125127101519101112341255115251215755111234101112915121061534'
p63
sS'csplit'
p64
(lp65
I0
aI1
aI0
aI1
aI0
aI1
aI0
aI1
aI0
aI1
aI0
aI1
aI0
aI1
aI0
aI1
aI1
aI1
aI1
aI1
aI1
aI1
aI1
aI1
aI1
aI1
aI1
aI1
aI1
aI1
aI1
aI1
aI1
aI1
aI1
aI1
aI1
aI1
aI1
aI1
aI0
aI1
aI1
aI1
aI1
aI1
aI1
aI1
aI1
aI1
aI1
aI1
aI1
aI1
aI1
aI1
aI1
aI1
aI1
aI1
aI1
aI1
aI1
aI1
aI0
aI1
aI1
aI1
aI1
aI1
aI1
aI1
aI1
aI0
aI1
aI1
aI1
aI1
aI1
aI1
aI1
aI1
aI1
aI1
aI1
aI1
aI1
aI1
aI1
aI1
aI1
aI1
aI1
aI1
aI1
aI1
aI1
aI1
aI1
aI1
aI1
aI1
aI0
aI1
aI1
aI1
aI1
aI1
aI1
aI1
aI1
aI1
aI1
aI1
aI1
aI1
aI1
aI1
aI1
aI1
aI1
aI1
aI1
aI1
aI1
aI1
aI0
aI1
aI1
aI1
aI1
aI1
aI1
aI1
aI1
aI1
aI1
aI1
aI1
aI1
aI0
aI1
aI1
aI1
aI1
aI1
aI1
aI1
aI1
aI1
aI0
aI1
aI1
asS'spl'
p66
(lp67
g14
ag14
ag14
ag32
ag20
ag22
ag14
ag16
ag14
ag14
ag42
ag26
ag14
ag8
ag30
ag14
ag22
ag14
ag20
ag14
ag16
ag14
ag16
ag14
ag14
ag14
ag24
ag14
ag16
ag20
ag14
ag22
ag14
ag14
ag26
ag14
ag14
ag20
ag40
ag14
ag14
ag14
ag20
ag14
ag26
ag14
ag18
ag24
ag24
ag32
ag18
ag14
ag14
ag14
ag16
ag26
ag14
ag22
ag14
ag24
ag20
ag48
ag14
ag24
ag18
ag24
ag14
ag16
ag30
ag46
ag14
ag24
ag30
ag14
ag24
ag30
ag18
ag24
ag14
ag20
ag14
ag20
ag20
ag22
ag24
ag14
ag16
ag14
ag16
ag14
ag20
ag22
ag14
ag20
ag26
ag14
ag16
ag44
ag14
ag30
ag14
ag16
ag14
ag14
ag14
ag20
ag18
ag24
ag14
ag20
ag22
ag22
ag14
ag14
ag22
ag20
ag22
ag14
ag20
ag14
ag50
ag22
ag22
ag14
ag14
ag14
ag20
ag18
ag24
ag14
ag16
ag14
ag14
aS'12'
p68
ag30
ag14
ag22
ag14
ag20
ag14
ag16
ag4
aS'15'
p69
ag18
asS'ls'
p70
I153
sS'cscore'
p71
F0.5689406487232574
sb.
(i__main__
annealpoint
p0
(dp1
S'ccode'
p2
(dp3
S'bNnDQ'
p4
S'c'
p5
sS'51'
p6
S'b'
p7
sS'311'
p8
S'l'
p9
sS'GhVLE'
p10
S'o'
p11
sS'eSQOq'
p12
S'q'
p13
sS'01'
p14
S'a'
p15
sS'07'
p16
S'k'
p17
sS'xCava'
p18
S'x'
p19
sS'1'
p20
S'e'
p21
sS'0'
p22
S's'
p23
sS'3'
p24
S'i'
p25
sS'2'
p26
S'r'
p27
sS'5'
p28
S'n'
p29
sS'4'
p30
S'd'
p31
sS'7'
p32
S'm'
p33
sS'6'
p34
S'v'
p35
sS'9'
p36
S'h'
p37
sS'8'
p38
S'j'
p39
sS'lgNEt'
p40
S'y'
p41
sS'OVyHx'
p42
S'f'
p43
sS'amHxA'
p44
S'w'
p45
sS'10'
p46
S't'
p47
sS'12'
p48
S'p'
p49
sS'cgueA'
p50
S'z'
p51
sS'eYoTd'
p52
S'u'
p53
sS'SBCqK'
p54
S'g'
p55
ssS'cset'
p56
c__builtin__
set
p57
((lp58
g46
ag48
ag16
ag8
ag14
ag6
ag20
ag22
ag24
ag26
ag28
ag30
ag32
ag34
ag36
ag38
atp59
Rp60
sS'annealevel'
p61
F96.49999999999879
sS'strng'
p62
S'1118251011127124915121010111410215117112101112171344831110715142541434109161491493412122541010125127101519101112341255115251215755111234101112915121061534'
p63
sS'csplit'
p64
(lp65
I0
aI1
aI0
aI1
aI0
aI1
aI0
aI1
aI0
aI1
aI0
aI1
aI0
aI1
aI0
aI1
aI1
aI1
aI1
aI1
aI1
aI1
aI1
aI0
aI1
aI1
aI1
aI1
aI1
aI1
aI1
aI1
aI1
aI1
aI1
aI1
aI1
aI1
aI1
aI1
aI1
aI1
aI1
aI1
aI1
aI1
aI1
aI1
aI1
aI1
aI1
aI1
aI1
aI0
aI0
aI1
aI1
aI0
aI1
aI1
aI1
aI1
aI1
aI1
aI1
aI1
aI1
aI1
aI1
aI1
aI0
aI1
aI1
aI1
aI1
aI1
aI1
aI1
aI1
aI1
aI1
aI1
aI1
aI0
aI1
aI1
aI1
aI1
aI1
aI1
aI1
aI1
aI1
aI0
aI1
aI1
aI1
aI1
aI1
aI1
aI1
aI0
aI1
aI1
aI1
aI1
aI1
aI1
aI1
aI1
aI1
aI1
aI1
aI1
aI1
aI1
aI1
aI1
aI1
aI1
aI1
aI1
aI1
aI1
aI1
aI1
aI1
aI1
aI1
aI1
aI1
aI1
aI1
aI1
aI1
aI1
aI1
aI1
aI1
aI1
aI1
aI1
aI1
aI1
aI0
aI1
aI1
aI1
aI1
aI1
aI1
aI1
aI1
asS'spl'
p66
(lp67
g20
ag20
ag20
ag38
ag26
ag28
ag20
ag22
ag20
ag20
ag20
ag26
ag32
ag20
ag26
ag30
ag36
ag20
ag28
ag20
ag26
ag20
ag22
ag46
ag20
ag20
ag20
ag30
ag20
ag22
ag26
ag20
ag28
ag20
ag20
ag32
ag20
ag20
ag26
ag20
ag22
ag20
ag20
ag20
ag26
ag20
ag32
ag20
ag24
ag30
ag30
ag38
ag8
ag20
ag16
ag20
ag28
ag20
ag30
ag26
ag28
ag30
ag20
ag30
ag24
ag30
aS'10'
p68
ag36
ag20
ag34
ag20
ag30
ag36
ag20
ag30
ag36
ag24
ag30
ag48
ag20
ag26
ag26
ag28
ag30
ag20
ag22
ag20
ag14
ag26
ag28
ag20
ag26
ag32
ag20
aS'01'
p69
ag28
ag20
ag36
ag20
ag22
ag20
ag20
ag20
ag26
ag24
ag30
ag20
ag26
ag28
ag28
ag20
ag20
ag28
ag26
ag28
ag20
ag26
ag20
ag28
ag32
ag28
ag28
ag20
ag20
ag20
ag26
ag24
ag30
ag20
ag22
ag20
ag20
ag20
ag26
ag36
ag20
ag6
ag26
ag20
ag22
ag34
ag20
ag28
ag24
asS'ls'
p70
I153
sS'cscore'
p71
F0.5743457214317528
sb.
(i__main__
annealpoint
p0
(dp1
S'ccode'
p2
(dp3
S'bNnDQ'
p4
S'c'
p5
sS'51'
p6
S'd'
p7
sS'311'
p8
S'b'
p9
sS'GhVLE'
p10
S'w'
p11
sS'eSQOq'
p12
S'q'
p13
sS'01'
p14
S'a'
p15
sS'07'
p16
S'k'
p17
sS'xCava'
p18
S'x'
p19
sS'1'
p20
S'e'
p21
sS'0'
p22
S's'
p23
sS'3'
p24
S'i'
p25
sS'2'
p26
S'r'
p27
sS'5'
p28
S'n'
p29
sS'4'
p30
S't'
p31
sS'7'
p32
S'v'
p33
sS'6'
p34
S'y'
p35
sS'9'
p36
S'h'
p37
sS'8'
p38
S'm'
p39
sS'lgNEt'
p40
S'g'
p41
sS'OVyHx'
p42
S'f'
p43
sS'amHxA'
p44
S'p'
p45
sS'10'
p46
S'o'
p47
sS'12'
p48
S'l'
p49
sS'cgueA'
p50
S'z'
p51
sS'eYoTd'
p52
S'j'
p53
sS'SBCqK'
p54
S'u'
p55
ssS'cset'
p56
c__builtin__
set
p57
((lp58
g46
ag48
ag16
ag8
ag14
ag6
ag20
ag22
ag24
ag26
ag28
ag30
ag32
ag34
ag36
ag38
atp59
Rp60
sS'annealevel'
p61
F96.79999999999878
sS'strng'
p62
S'1118251011127124915121010111410215117112101112171344831110715142541434109161491493412122541010125127101519101112341255115251215755111234101112915121061534'
p63
sS'csplit'
p64
(lp65
I0
aI1
aI0
aI1
aI0
aI1
aI0
aI1
aI0
aI1
aI0
aI1
aI0
aI1
aI0
aI1
aI1
aI1
aI1
aI1
aI1
aI1
aI1
aI0
aI1
aI1
aI1
aI1
aI1
aI1
aI1
aI1
aI1
aI1
aI1
aI1
aI1
aI1
aI1
aI1
aI1
aI1
aI1
aI1
aI1
aI1
aI1
aI1
aI1
aI1
aI1
aI1
aI1
aI0
aI0
aI1
aI1
aI0
aI1
aI1
aI1
aI1
aI1
aI1
aI1
aI1
aI1
aI1
aI1
aI1
aI0
aI1
aI1
aI1
aI1
aI1
aI1
aI1
aI1
aI1
aI1
aI1
aI1
aI0
aI1
aI1
aI1
aI1
aI1
aI1
aI1
aI1
aI1
aI0
aI1
aI1
aI1
aI1
aI1
aI1
aI1
aI0
aI1
aI1
aI1
aI1
aI1
aI1
aI1
aI1
aI1
aI1
aI1
aI1
aI1
aI1
aI1
aI1
aI1
aI1
aI1
aI1
aI1
aI1
aI1
aI1
aI1
aI1
aI1
aI1
aI1
aI1
aI1
aI1
aI1
aI1
aI1
aI1
aI1
aI1
aI1
aI1
aI1
aI1
aI0
aI1
aI1
aI1
aI1
aI1
aI1
aI1
aI1
asS'spl'
p66
(lp67
g20
ag20
ag20
ag38
ag26
ag28
ag20
ag22
ag20
ag20
ag20
ag26
ag32
ag20
ag26
ag30
ag36
ag20
ag28
ag20
ag26
ag20
ag22
ag46
ag20
ag20
ag20
ag30
ag20
ag22
ag26
ag20
ag28
ag20
ag20
ag32
ag20
ag20
ag26
ag20
ag22
ag20
ag20
ag20
ag26
ag20
ag32
ag20
ag24
ag30
ag30
ag38
ag8
ag20
ag16
ag20
ag28
ag20
ag30
ag26
ag28
ag30
ag20
ag30
ag24
ag30
aS'10'
p68
ag36
ag20
ag34
ag20
ag30
ag36
ag20
ag30
ag36
ag24
ag30
ag48
ag20
ag26
ag26
ag28
ag30
ag20
ag22
ag20
ag14
ag26
ag28
ag20
ag26
ag32
ag20
aS'01'
p69
ag28
ag20
ag36
ag20
ag22
ag20
ag20
ag20
ag26
ag24
ag30
ag20
ag26
ag28
ag28
ag20
ag20
ag28
ag26
ag28
ag20
ag26
ag20
ag28
ag32
ag28
ag28
ag20
ag20
ag20
ag26
ag24
ag30
ag20
ag22
ag20
ag20
ag20
ag26
ag36
ag20
ag6
ag26
ag20
ag22
ag34
ag20
ag28
ag24
asS'ls'
p70
I153
sS'cscore'
p71
F0.5888188234487955
sb.
(i__main__
annealpoint
p0
(dp1
S'ccode'
p2
(dp3
S'bNnDQ'
p4
S'c'
p5
sS'51'
p6
S't'
p7
sS'311'
p8
S'b'
p9
sS'GhVLE'
p10
S'w'
p11
sS'eSQOq'
p12
S'q'
p13
sS'01'
p14
S'a'
p15
sS'07'
p16
S'k'
p17
sS'xCava'
p18
S'x'
p19
sS'1'
p20
S'e'
p21
sS'0'
p22
S's'
p23
sS'3'
p24
S'i'
p25
sS'2'
p26
S'r'
p27
sS'5'
p28
S'n'
p29
sS'4'
p30
S'd'
p31
sS'7'
p32
S'v'
p33
sS'6'
p34
S'y'
p35
sS'9'
p36
S'h'
p37
sS'8'
p38
S'f'
p39
sS'lgNEt'
p40
S'g'
p41
sS'OVyHx'
p42
S'm'
p43
sS'amHxA'
p44
S'u'
p45
sS'10'
p46
S'o'
p47
sS'12'
p48
S'l'
p49
sS'cgueA'
p50
S'z'
p51
sS'eYoTd'
p52
S'j'
p53
sS'SBCqK'
p54
S'p'
p55
ssS'cset'
p56
c__builtin__
set
p57
((lp58
g46
ag48
ag16
ag8
ag14
ag6
ag20
ag22
ag24
ag26
ag28
ag30
ag32
ag34
ag36
ag38
atp59
Rp60
sS'annealevel'
p61
F96.89999999999877
sS'strng'
p62
S'1118251011127124915121010111410215117112101112171344831110715142541434109161491493412122541010125127101519101112341255115251215755111234101112915121061534'
p63
sS'csplit'
p64
(lp65
I0
aI1
aI0
aI1
aI0
aI1
aI0
aI1
aI0
aI1
aI0
aI1
aI0
aI1
aI0
aI1
aI1
aI1
aI1
aI1
aI1
aI1
aI1
aI0
aI1
aI1
aI1
aI1
aI1
aI1
aI1
aI1
aI1
aI1
aI1
aI1
aI1
aI1
aI1
aI1
aI1
aI1
aI1
aI1
aI1
aI1
aI1
aI1
aI1
aI1
aI1
aI1
aI1
aI0
aI0
aI1
aI1
aI0
aI1
aI1
aI1
aI1
aI1
aI1
aI1
aI1
aI1
aI1
aI1
aI1
aI0
aI1
aI1
aI1
aI1
aI1
aI1
aI1
aI1
aI1
aI1
aI1
aI1
aI0
aI1
aI1
aI1
aI1
aI1
aI1
aI1
aI1
aI1
aI0
aI1
aI1
aI1
aI1
aI1
aI1
aI1
aI0
aI1
aI1
aI1
aI1
aI1
aI1
aI1
aI1
aI1
aI1
aI1
aI1
aI1
aI1
aI1
aI1
aI1
aI1
aI1
aI1
aI1
aI1
aI1
aI1
aI1
aI1
aI1
aI1
aI1
aI1
aI1
aI1
aI1
aI1
aI1
aI1
aI1
aI1
aI1
aI1
aI1
aI1
aI0
aI1
aI1
aI1
aI1
aI1
aI1
aI1
aI1
asS'spl'
p66
(lp67
g20
ag20
ag20
ag38
ag26
ag28
ag20
ag22
ag20
ag20
ag20
ag26
ag32
ag20
ag26
ag30
ag36
ag20
ag28
ag20
ag26
ag20
ag22
ag46
ag20
ag20
ag20
ag30
ag20
ag22
ag26
ag20
ag28
ag20
ag20
ag32
ag20
ag20
ag26
ag20
ag22
ag20
ag20
ag20
ag26
ag20
ag32
ag20
ag24
ag30
ag30
ag38
ag8
ag20
ag16
ag20
ag28
ag20
ag30
ag26
ag28
ag30
ag20
ag30
ag24
ag30
aS'10'
p68
ag36
ag20
ag34
ag20
ag30
ag36
ag20
ag30
ag36
ag24
ag30
ag48
ag20
ag26
ag26
ag28
ag30
ag20
ag22
ag20
ag14
ag26
ag28
ag20
ag26
ag32
ag20
aS'01'
p69
ag28
ag20
ag36
ag20
ag22
ag20
ag20
ag20
ag26
ag24
ag30
ag20
ag26
ag28
ag28
ag20
ag20
ag28
ag26
ag28
ag20
ag26
ag20
ag28
ag32
ag28
ag28
ag20
ag20
ag20
ag26
ag24
ag30
ag20
ag22
ag20
ag20
ag20
ag26
ag36
ag20
ag6
ag26
ag20
ag22
ag34
ag20
ag28
ag24
asS'ls'
p70
I153
sS'cscore'
p71
F0.5924661664439648
sb.
(i__main__
annealpoint
p0
(dp1
S'ccode'
p2
(dp3
S'bNnDQ'
p4
S'z'
p5
sS'51'
p6
S'o'
p7
sS'311'
p8
S'w'
p9
sS'GhVLE'
p10
S'y'
p11
sS'eSQOq'
p12
S'k'
p13
sS'01'
p14
S'a'
p15
sS'07'
p16
S'p'
p17
sS'xCava'
p18
S'g'
p19
sS'1'
p20
S'e'
p21
sS'0'
p22
S's'
p23
sS'3'
p24
S'i'
p25
sS'2'
p26
S'r'
p27
sS'5'
p28
S'n'
p29
sS'4'
p30
S'd'
p31
sS'7'
p32
S'v'
p33
sS'6'
p34
S'j'
p35
sS'9'
p36
S'h'
p37
sS'8'
p38
S'x'
p39
sS'lgNEt'
p40
S'b'
p41
sS'OVyHx'
p42
S'c'
p43
sS'amHxA'
p44
S'u'
p45
sS'10'
p46
S't'
p47
sS'12'
p48
S'l'
p49
sS'cgueA'
p50
S'q'
p51
sS'eYoTd'
p52
S'f'
p53
sS'SBCqK'
p54
S'm'
p55
ssS'cset'
p56
c__builtin__
set
p57
((lp58
g46
ag48
ag16
ag8
ag14
ag6
ag20
ag22
ag24
ag26
ag28
ag30
ag32
ag34
ag36
ag38
atp59
Rp60
sS'annealevel'
p61
F97.59999999999873
sS'strng'
p62
S'1118251011127124915121010111410215117112101112171344831110715142541434109161491493412122541010125127101519101112341255115251215755111234101112915121061534'
p63
sS'csplit'
p64
(lp65
I0
aI1
aI0
aI1
aI0
aI1
aI0
aI1
aI0
aI1
aI0
aI1
aI0
aI1
aI0
aI1
aI1
aI1
aI1
aI1
aI1
aI1
aI1
aI0
aI1
aI1
aI1
aI1
aI1
aI1
aI1
aI1
aI1
aI1
aI1
aI1
aI1
aI1
aI1
aI1
aI1
aI1
aI1
aI1
aI1
aI1
aI1
aI1
aI1
aI1
aI1
aI1
aI1
aI0
aI0
aI1
aI1
aI0
aI1
aI1
aI1
aI1
aI1
aI1
aI1
aI1
aI1
aI1
aI1
aI1
aI0
aI1
aI1
aI1
aI1
aI1
aI1
aI1
aI1
aI1
aI1
aI1
aI1
aI0
aI1
aI1
aI1
aI1
aI1
aI1
aI1
aI1
aI1
aI0
aI1
aI1
aI1
aI1
aI1
aI1
aI1
aI0
aI1
aI1
aI1
aI1
aI1
aI1
aI1
aI1
aI1
aI1
aI1
aI1
aI1
aI1
aI1
aI1
aI1
aI1
aI1
aI1
aI1
aI1
aI1
aI1
aI1
aI1
aI1
aI1
aI1
aI1
aI1
aI1
aI1
aI1
aI1
aI1
aI1
aI1
aI1
aI1
aI1
aI1
aI0
aI1
aI1
aI1
aI1
aI1
aI1
aI1
aI1
asS'spl'
p66
(lp67
g20
ag20
ag20
ag38
ag26
ag28
ag20
ag22
ag20
ag20
ag20
ag26
ag32
ag20
ag26
ag30
ag36
ag20
ag28
ag20
ag26
ag20
ag22
ag46
ag20
ag20
ag20
ag30
ag20
ag22
ag26
ag20
ag28
ag20
ag20
ag32
ag20
ag20
ag26
ag20
ag22
ag20
ag20
ag20
ag26
ag20
ag32
ag20
ag24
ag30
ag30
ag38
ag8
ag20
ag16
ag20
ag28
ag20
ag30
ag26
ag28
ag30
ag20
ag30
ag24
ag30
aS'10'
p68
ag36
ag20
ag34
ag20
ag30
ag36
ag20
ag30
ag36
ag24
ag30
ag48
ag20
ag26
ag26
ag28
ag30
ag20
ag22
ag20
ag14
ag26
ag28
ag20
ag26
ag32
ag20
aS'01'
p69
ag28
ag20
ag36
ag20
ag22
ag20
ag20
ag20
ag26
ag24
ag30
ag20
ag26
ag28
ag28
ag20
ag20
ag28
ag26
ag28
ag20
ag26
ag20
ag28
ag32
ag28
ag28
ag20
ag20
ag20
ag26
ag24
ag30
ag20
ag22
ag20
ag20
ag20
ag26
ag36
ag20
ag6
ag26
ag20
ag22
ag34
ag20
ag28
ag24
asS'ls'
p70
I153
sS'cscore'
p71
F0.5945195664341343
sb.
(i__main__
annealpoint
p0
(dp1
S'ccode'
p2
(dp3
S'bNnDQ'
p4
S'z'
p5
sS'51'
p6
S'c'
p7
sS'311'
p8
S'g'
p9
sS'GhVLE'
p10
S'y'
p11
sS'eSQOq'
p12
S'o'
p13
sS'01'
p14
S'a'
p15
sS'07'
p16
S'p'
p17
sS'xCava'
p18
S'q'
p19
sS'1'
p20
S'e'
p21
sS'0'
p22
S's'
p23
sS'3'
p24
S'i'
p25
sS'2'
p26
S'r'
p27
sS'5'
p28
S'n'
p29
sS'4'
p30
S'd'
p31
sS'7'
p32
S'v'
p33
sS'6'
p34
S'j'
p35
sS'9'
p36
S'h'
p37
sS'8'
p38
S'x'
p39
sS'lgNEt'
p40
S'b'
p41
sS'OVyHx'
p42
S'k'
p43
sS'amHxA'
p44
S'u'
p45
sS'10'
p46
S't'
p47
sS'12'
p48
S'l'
p49
sS'cgueA'
p50
S'w'
p51
sS'eYoTd'
p52
S'f'
p53
sS'SBCqK'
p54
S'm'
p55
ssS'cset'
p56
c__builtin__
set
p57
((lp58
g46
ag48
ag16
ag8
ag14
ag6
ag20
ag22
ag24
ag26
ag28
ag30
ag32
ag34
ag36
ag38
atp59
Rp60
sS'annealevel'
p61
F97.69999999999872
sS'strng'
p62
S'1118251011127124915121010111410215117112101112171344831110715142541434109161491493412122541010125127101519101112341255115251215755111234101112915121061534'
p63
sS'csplit'
p64
(lp65
I0
aI1
aI0
aI1
aI0
aI1
aI0
aI1
aI0
aI1
aI0
aI1
aI0
aI1
aI0
aI1
aI1
aI1
aI1
aI1
aI1
aI1
aI1
aI0
aI1
aI1
aI1
aI1
aI1
aI1
aI1
aI1
aI1
aI1
aI1
aI1
aI1
aI1
aI1
aI1
aI1
aI1
aI1
aI1
aI1
aI1
aI1
aI1
aI1
aI1
aI1
aI1
aI1
aI0
aI0
aI1
aI1
aI0
aI1
aI1
aI1
aI1
aI1
aI1
aI1
aI1
aI1
aI1
aI1
aI1
aI0
aI1
aI1
aI1
aI1
aI1
aI1
aI1
aI1
aI1
aI1
aI1
aI1
aI0
aI1
aI1
aI1
aI1
aI1
aI1
aI1
aI1
aI1
aI0
aI1
aI1
aI1
aI1
aI1
aI1
aI1
aI0
aI1
aI1
aI1
aI1
aI1
aI1
aI1
aI1
aI1
aI1
aI1
aI1
aI1
aI1
aI1
aI1
aI1
aI1
aI1
aI1
aI1
aI1
aI1
aI1
aI1
aI1
aI1
aI1
aI1
aI1
aI1
aI1
aI1
aI1
aI1
aI1
aI1
aI1
aI1
aI1
aI1
aI1
aI0
aI1
aI1
aI1
aI1
aI1
aI1
aI1
aI1
asS'spl'
p66
(lp67
g20
ag20
ag20
ag38
ag26
ag28
ag20
ag22
ag20
ag20
ag20
ag26
ag32
ag20
ag26
ag30
ag36
ag20
ag28
ag20
ag26
ag20
ag22
ag46
ag20
ag20
ag20
ag30
ag20
ag22
ag26
ag20
ag28
ag20
ag20
ag32
ag20
ag20
ag26
ag20
ag22
ag20
ag20
ag20
ag26
ag20
ag32
ag20
ag24
ag30
ag30
ag38
ag8
ag20
ag16
ag20
ag28
ag20
ag30
ag26
ag28
ag30
ag20
ag30
ag24
ag30
aS'10'
p68
ag36
ag20
ag34
ag20
ag30
ag36
ag20
ag30
ag36
ag24
ag30
ag48
ag20
ag26
ag26
ag28
ag30
ag20
ag22
ag20
ag14
ag26
ag28
ag20
ag26
ag32
ag20
aS'01'
p69
ag28
ag20
ag36
ag20
ag22
ag20
ag20
ag20
ag26
ag24
ag30
ag20
ag26
ag28
ag28
ag20
ag20
ag28
ag26
ag28
ag20
ag26
ag20
ag28
ag32
ag28
ag28
ag20
ag20
ag20
ag26
ag24
ag30
ag20
ag22
ag20
ag20
ag20
ag26
ag36
ag20
ag6
ag26
ag20
ag22
ag34
ag20
ag28
ag24
asS'ls'
p70
I153
sS'cscore'
p71
F0.6083832484060493
sb.
(i__main__
annealpoint
p0
(dp1
S'ccode'
p2
(dp3
S'bNnDQ'
p4
S'k'
p5
sS'51'
p6
S'p'
p7
sS'311'
p8
S'f'
p9
sS'GhVLE'
p10
S'x'
p11
sS'eSQOq'
p12
S'q'
p13
sS'01'
p14
S'a'
p15
sS'07'
p16
S'w'
p17
sS'xCava'
p18
S'y'
p19
sS'1'
p20
S'e'
p21
sS'0'
p22
S's'
p23
sS'3'
p24
S'i'
p25
sS'2'
p26
S'r'
p27
sS'5'
p28
S'n'
p29
sS'4'
p30
S'd'
p31
sS'7'
p32
S'v'
p33
sS'6'
p34
S'j'
p35
sS'9'
p36
S'h'
p37
sS'8'
p38
S'u'
p39
sS'lgNEt'
p40
S'z'
p41
sS'OVyHx'
p42
S'm'
p43
sS'amHxA'
p44
S'b'
p45
sS'10'
p46
S't'
p47
sS'12'
p48
S'l'
p49
sS'cgueA'
p50
S'c'
p51
sS'eYoTd'
p52
S'o'
p53
sS'SBCqK'
p54
S'g'
p55
ssS'cset'
p56
c__builtin__
set
p57
((lp58
g46
ag48
ag16
ag8
ag14
ag6
ag20
ag22
ag24
ag26
ag28
ag30
ag32
ag34
ag36
ag38
atp59
Rp60
sS'annealevel'
p61
F97.89999999999871
sS'strng'
p62
S'1118251011127124915121010111410215117112101112171344831110715142541434109161491493412122541010125127101519101112341255115251215755111234101112915121061534'
p63
sS'csplit'
p64
(lp65
I0
aI1
aI0
aI1
aI0
aI1
aI0
aI1
aI0
aI1
aI0
aI1
aI0
aI1
aI0
aI1
aI1
aI1
aI1
aI1
aI1
aI1
aI1
aI0
aI1
aI1
aI1
aI1
aI1
aI1
aI1
aI1
aI1
aI1
aI1
aI1
aI1
aI1
aI1
aI1
aI1
aI1
aI1
aI1
aI1
aI1
aI1
aI1
aI1
aI1
aI1
aI1
aI1
aI0
aI0
aI1
aI1
aI0
aI1
aI1
aI1
aI1
aI1
aI1
aI1
aI1
aI1
aI1
aI1
aI1
aI0
aI1
aI1
aI1
aI1
aI1
aI1
aI1
aI1
aI1
aI1
aI1
aI1
aI0
aI1
aI1
aI1
aI1
aI1
aI1
aI1
aI1
aI1
aI0
aI1
aI1
aI1
aI1
aI1
aI1
aI1
aI0
aI1
aI1
aI1
aI1
aI1
aI1
aI1
aI1
aI1
aI1
aI1
aI1
aI1
aI1
aI1
aI1
aI1
aI1
aI1
aI1
aI1
aI1
aI1
aI1
aI1
aI1
aI1
aI1
aI1
aI1
aI1
aI1
aI1
aI1
aI1
aI1
aI1
aI1
aI1
aI1
aI1
aI1
aI0
aI1
aI1
aI1
aI1
aI1
aI1
aI1
aI1
asS'spl'
p66
(lp67
g20
ag20
ag20
ag38
ag26
ag28
ag20
ag22
ag20
ag20
ag20
ag26
ag32
ag20
ag26
ag30
ag36
ag20
ag28
ag20
ag26
ag20
ag22
ag46
ag20
ag20
ag20
ag30
ag20
ag22
ag26
ag20
ag28
ag20
ag20
ag32
ag20
ag20
ag26
ag20
ag22
ag20
ag20
ag20
ag26
ag20
ag32
ag20
ag24
ag30
ag30
ag38
ag8
ag20
ag16
ag20
ag28
ag20
ag30
ag26
ag28
ag30
ag20
ag30
ag24
ag30
aS'10'
p68
ag36
ag20
ag34
ag20
ag30
ag36
ag20
ag30
ag36
ag24
ag30
ag48
ag20
ag26
ag26
ag28
ag30
ag20
ag22
ag20
ag14
ag26
ag28
ag20
ag26
ag32
ag20
aS'01'
p69
ag28
ag20
ag36
ag20
ag22
ag20
ag20
ag20
ag26
ag24
ag30
ag20
ag26
ag28
ag28
ag20
ag20
ag28
ag26
ag28
ag20
ag26
ag20
ag28
ag32
ag28
ag28
ag20
ag20
ag20
ag26
ag24
ag30
ag20
ag22
ag20
ag20
ag20
ag26
ag36
ag20
ag6
ag26
ag20
ag22
ag34
ag20
ag28
ag24
asS'ls'
p70
I153
sS'cscore'
p71
F0.6179952669730653
sb.
(i__main__
annealpoint
p0
(dp1
S'ccode'
p2
(dp3
S'bNnDQ'
p4
S'b'
p5
sS'51'
p6
S'p'
p7
sS'311'
p8
S'c'
p9
sS'GhVLE'
p10
S'x'
p11
sS'eSQOq'
p12
S'k'
p13
sS'01'
p14
S'a'
p15
sS'07'
p16
S'w'
p17
sS'xCava'
p18
S'y'
p19
sS'1'
p20
S'e'
p21
sS'0'
p22
S's'
p23
sS'3'
p24
S'i'
p25
sS'2'
p26
S'r'
p27
sS'5'
p28
S'n'
p29
sS'4'
p30
S'd'
p31
sS'7'
p32
S'v'
p33
sS'6'
p34
S'j'
p35
sS'9'
p36
S'h'
p37
sS'8'
p38
S'u'
p39
sS'lgNEt'
p40
S'z'
p41
sS'OVyHx'
p42
S'q'
p43
sS'amHxA'
p44
S'f'
p45
sS'10'
p46
S't'
p47
sS'12'
p48
S'l'
p49
sS'cgueA'
p50
S'm'
p51
sS'eYoTd'
p52
S'o'
p53
sS'SBCqK'
p54
S'g'
p55
ssS'cset'
p56
c__builtin__
set
p57
((lp58
g46
ag48
ag16
ag8
ag14
ag6
ag20
ag22
ag24
ag26
ag28
ag30
ag32
ag34
ag36
ag38
atp59
Rp60
sS'annealevel'
p61
F97.9999999999987
sS'strng'
p62
S'1118251011127124915121010111410215117112101112171344831110715142541434109161491493412122541010125127101519101112341255115251215755111234101112915121061534'
p63
sS'csplit'
p64
(lp65
I0
aI1
aI0
aI1
aI0
aI1
aI0
aI1
aI0
aI1
aI0
aI1
aI0
aI1
aI0
aI1
aI1
aI1
aI1
aI1
aI1
aI1
aI1
aI0
aI1
aI1
aI1
aI1
aI1
aI1
aI1
aI1
aI1
aI1
aI1
aI1
aI1
aI1
aI1
aI1
aI1
aI1
aI1
aI1
aI1
aI1
aI1
aI1
aI1
aI1
aI1
aI1
aI1
aI0
aI0
aI1
aI1
aI0
aI1
aI1
aI1
aI1
aI1
aI1
aI1
aI1
aI1
aI1
aI1
aI1
aI0
aI1
aI1
aI1
aI1
aI1
aI1
aI1
aI1
aI1
aI1
aI1
aI1
aI0
aI1
aI1
aI1
aI1
aI1
aI1
aI1
aI1
aI1
aI0
aI1
aI1
aI1
aI1
aI1
aI1
aI1
aI0
aI1
aI1
aI1
aI1
aI1
aI1
aI1
aI1
aI1
aI1
aI1
aI1
aI1
aI1
aI1
aI1
aI1
aI1
aI1
aI1
aI1
aI1
aI1
aI1
aI1
aI1
aI1
aI1
aI1
aI1
aI1
aI1
aI1
aI1
aI1
aI1
aI1
aI1
aI1
aI1
aI1
aI1
aI0
aI1
aI1
aI1
aI1
aI1
aI1
aI1
aI1
asS'spl'
p66
(lp67
g20
ag20
ag20
ag38
ag26
ag28
ag20
ag22
ag20
ag20
ag20
ag26
ag32
ag20
ag26
ag30
ag36
ag20
ag28
ag20
ag26
ag20
ag22
ag46
ag20
ag20
ag20
ag30
ag20
ag22
ag26
ag20
ag28
ag20
ag20
ag32
ag20
ag20
ag26
ag20
ag22
ag20
ag20
ag20
ag26
ag20
ag32
ag20
ag24
ag30
ag30
ag38
ag8
ag20
ag16
ag20
ag28
ag20
ag30
ag26
ag28
ag30
ag20
ag30
ag24
ag30
aS'10'
p68
ag36
ag20
ag34
ag20
ag30
ag36
ag20
ag30
ag36
ag24
ag30
ag48
ag20
ag26
ag26
ag28
ag30
ag20
ag22
ag20
ag14
ag26
ag28
ag20
ag26
ag32
ag20
aS'01'
p69
ag28
ag20
ag36
ag20
ag22
ag20
ag20
ag20
ag26
ag24
ag30
ag20
ag26
ag28
ag28
ag20
ag20
ag28
ag26
ag28
ag20
ag26
ag20
ag28
ag32
ag28
ag28
ag20
ag20
ag20
ag26
ag24
ag30
ag20
ag22
ag20
ag20
ag20
ag26
ag36
ag20
ag6
ag26
ag20
ag22
ag34
ag20
ag28
ag24
asS'ls'
p70
I153
sS'cscore'
p71
F0.6252703992481976
sb.
(i__main__
annealpoint
p0
(dp1
S'ccode'
p2
(dp3
S'bNnDQ'
p4
S'm'
p5
sS'51'
p6
S'p'
p7
sS'311'
p8
S'g'
p9
sS'GhVLE'
p10
S'x'
p11
sS'eSQOq'
p12
S'f'
p13
sS'01'
p14
S'a'
p15
sS'07'
p16
S'j'
p17
sS'xCava'
p18
S'y'
p19
sS'1'
p20
S'e'
p21
sS'0'
p22
S's'
p23
sS'3'
p24
S'i'
p25
sS'2'
p26
S'r'
p27
sS'5'
p28
S'n'
p29
sS'4'
p30
S'd'
p31
sS'7'
p32
S'v'
p33
sS'6'
p34
S'w'
p35
sS'9'
p36
S'h'
p37
sS'8'
p38
S'u'
p39
sS'lgNEt'
p40
S'z'
p41
sS'OVyHx'
p42
S'q'
p43
sS'amHxA'
p44
S'c'
p45
sS'10'
p46
S't'
p47
sS'12'
p48
S'l'
p49
sS'cgueA'
p50
S'b'
p51
sS'eYoTd'
p52
S'o'
p53
sS'SBCqK'
p54
S'k'
p55
ssS'cset'
p56
c__builtin__
set
p57
((lp58
g46
ag48
ag16
ag8
ag14
ag6
ag20
ag22
ag24
ag26
ag28
ag30
ag32
ag34
ag36
ag38
atp59
Rp60
sS'annealevel'
p61
F98.0999999999987
sS'strng'
p62
S'1118251011127124915121010111410215117112101112171344831110715142541434109161491493412122541010125127101519101112341255115251215755111234101112915121061534'
p63
sS'csplit'
p64
(lp65
I0
aI1
aI0
aI1
aI0
aI1
aI0
aI1
aI0
aI1
aI0
aI1
aI0
aI1
aI0
aI1
aI1
aI1
aI1
aI1
aI1
aI1
aI1
aI0
aI1
aI1
aI1
aI1
aI1
aI1
aI1
aI1
aI1
aI1
aI1
aI1
aI1
aI1
aI1
aI1
aI1
aI1
aI1
aI1
aI1
aI1
aI1
aI1
aI1
aI1
aI1
aI1
aI1
aI0
aI0
aI1
aI1
aI0
aI1
aI1
aI1
aI1
aI1
aI1
aI1
aI1
aI1
aI1
aI1
aI1
aI0
aI1
aI1
aI1
aI1
aI1
aI1
aI1
aI1
aI1
aI1
aI1
aI1
aI0
aI1
aI1
aI1
aI1
aI1
aI1
aI1
aI1
aI1
aI0
aI1
aI1
aI1
aI1
aI1
aI1
aI1
aI0
aI1
aI1
aI1
aI1
aI1
aI1
aI1
aI1
aI1
aI1
aI1
aI1
aI1
aI1
aI1
aI1
aI1
aI1
aI1
aI1
aI1
aI1
aI1
aI1
aI1
aI1
aI1
aI1
aI1
aI1
aI1
aI1
aI1
aI1
aI1
aI1
aI1
aI1
aI1
aI1
aI1
aI1
aI0
aI1
aI1
aI1
aI1
aI1
aI1
aI1
aI1
asS'spl'
p66
(lp67
g20
ag20
ag20
ag38
ag26
ag28
ag20
ag22
ag20
ag20
ag20
ag26
ag32
ag20
ag26
ag30
ag36
ag20
ag28
ag20
ag26
ag20
ag22
ag46
ag20
ag20
ag20
ag30
ag20
ag22
ag26
ag20
ag28
ag20
ag20
ag32
ag20
ag20
ag26
ag20
ag22
ag20
ag20
ag20
ag26
ag20
ag32
ag20
ag24
ag30
ag30
ag38
ag8
ag20
ag16
ag20
ag28
ag20
ag30
ag26
ag28
ag30
ag20
ag30
ag24
ag30
aS'10'
p68
ag36
ag20
ag34
ag20
ag30
ag36
ag20
ag30
ag36
ag24
ag30
ag48
ag20
ag26
ag26
ag28
ag30
ag20
ag22
ag20
ag14
ag26
ag28
ag20
ag26
ag32
ag20
aS'01'
p69
ag28
ag20
ag36
ag20
ag22
ag20
ag20
ag20
ag26
ag24
ag30
ag20
ag26
ag28
ag28
ag20
ag20
ag28
ag26
ag28
ag20
ag26
ag20
ag28
ag32
ag28
ag28
ag20
ag20
ag20
ag26
ag24
ag30
ag20
ag22
ag20
ag20
ag20
ag26
ag36
ag20
ag6
ag26
ag20
ag22
ag34
ag20
ag28
ag24
asS'ls'
p70
I153
sS'cscore'
p71
F0.6358097538532321
sb.
(i__main__
annealpoint
p0
(dp1
S'ccode'
p2
(dp3
S'bNnDQ'
p4
S'q'
p5
sS'51'
p6
S'p'
p7
sS'311'
p8
S'f'
p9
sS'GhVLE'
p10
S'k'
p11
sS'eSQOq'
p12
S'u'
p13
sS'01'
p14
S'a'
p15
sS'07'
p16
S'z'
p17
sS'xCava'
p18
S'l'
p19
sS'1'
p20
S'e'
p21
sS'0'
p22
S's'
p23
sS'3'
p24
S'i'
p25
sS'2'
p26
S'r'
p27
sS'5'
p28
S'n'
p29
sS'4'
p30
S'd'
p31
sS'7'
p32
S'v'
p33
sS'6'
p34
S'w'
p35
sS'9'
p36
S'h'
p37
sS'8'
p38
S'o'
p39
sS'lgNEt'
p40
S'c'
p41
sS'OVyHx'
p42
S'j'
p43
sS'amHxA'
p44
S'y'
p45
sS'10'
p46
S't'
p47
sS'12'
p48
S'b'
p49
sS'cgueA'
p50
S'g'
p51
sS'eYoTd'
p52
S'x'
p53
sS'SBCqK'
p54
S'm'
p55
ssS'cset'
p56
c__builtin__
set
p57
((lp58
g46
ag48
ag16
ag8
ag14
ag6
ag20
ag22
ag24
ag26
ag28
ag30
ag32
ag34
ag36
ag38
atp59
Rp60
sS'annealevel'
p61
F115.7999999999977
sS'strng'
p62
S'1118251011127124915121010111410215117112101112171344831110715142541434109161491493412122541010125127101519101112341255115251215755111234101112915121061534'
p63
sS'csplit'
p64
(lp65
I0
aI1
aI0
aI1
aI0
aI1
aI0
aI1
aI0
aI1
aI0
aI1
aI0
aI1
aI0
aI1
aI1
aI1
aI1
aI1
aI1
aI1
aI1
aI0
aI1
aI1
aI1
aI1
aI1
aI1
aI1
aI1
aI1
aI1
aI1
aI1
aI1
aI1
aI1
aI1
aI1
aI1
aI1
aI1
aI1
aI1
aI1
aI1
aI1
aI1
aI1
aI1
aI1
aI0
aI0
aI1
aI1
aI0
aI1
aI1
aI1
aI1
aI1
aI1
aI1
aI1
aI1
aI1
aI1
aI1
aI0
aI1
aI1
aI1
aI1
aI1
aI1
aI1
aI1
aI1
aI1
aI1
aI1
aI0
aI1
aI1
aI1
aI1
aI1
aI1
aI1
aI1
aI1
aI0
aI1
aI1
aI1
aI1
aI1
aI1
aI1
aI0
aI1
aI1
aI1
aI1
aI1
aI1
aI1
aI1
aI1
aI1
aI1
aI1
aI1
aI1
aI1
aI1
aI1
aI1
aI1
aI1
aI1
aI1
aI1
aI1
aI1
aI1
aI1
aI1
aI1
aI1
aI1
aI1
aI1
aI1
aI1
aI1
aI1
aI1
aI1
aI1
aI1
aI1
aI0
aI1
aI1
aI1
aI1
aI1
aI1
aI1
aI1
asS'spl'
p66
(lp67
g20
ag20
ag20
ag38
ag26
ag28
ag20
ag22
ag20
ag20
ag20
ag26
ag32
ag20
ag26
ag30
ag36
ag20
ag28
ag20
ag26
ag20
ag22
ag46
ag20
ag20
ag20
ag30
ag20
ag22
ag26
ag20
ag28
ag20
ag20
ag32
ag20
ag20
ag26
ag20
ag22
ag20
ag20
ag20
ag26
ag20
ag32
ag20
ag24
ag30
ag30
ag38
ag8
ag20
ag16
ag20
ag28
ag20
ag30
ag26
ag28
ag30
ag20
ag30
ag24
ag30
aS'10'
p68
ag36
ag20
ag34
ag20
ag30
ag36
ag20
ag30
ag36
ag24
ag30
ag48
ag20
ag26
ag26
ag28
ag30
ag20
ag22
ag20
ag14
ag26
ag28
ag20
ag26
ag32
ag20
aS'01'
p69
ag28
ag20
ag36
ag20
ag22
ag20
ag20
ag20
ag26
ag24
ag30
ag20
ag26
ag28
ag28
ag20
ag20
ag28
ag26
ag28
ag20
ag26
ag20
ag28
ag32
ag28
ag28
ag20
ag20
ag20
ag26
ag24
ag30
ag20
ag22
ag20
ag20
ag20
ag26
ag36
ag20
ag6
ag26
ag20
ag22
ag34
ag20
ag28
ag24
asS'ls'
p70
I153
sS'cscore'
p71
F0.6403922245226593
sb.
(i__main__
annealpoint
p0
(dp1
S'ccode'
p2
(dp3
S'bNnDQ'
p4
S'l'
p5
sS'51'
p6
S'p'
p7
sS'311'
p8
S'm'
p9
sS'GhVLE'
p10
S'b'
p11
sS'eSQOq'
p12
S'q'
p13
sS'01'
p14
S'a'
p15
sS'07'
p16
S'j'
p17
sS'xCava'
p18
S'z'
p19
sS'1'
p20
S'e'
p21
sS'0'
p22
S's'
p23
sS'3'
p24
S'i'
p25
sS'2'
p26
S'r'
p27
sS'5'
p28
S'n'
p29
sS'4'
p30
S't'
p31
sS'7'
p32
S'v'
p33
sS'6'
p34
S'd'
p35
sS'9'
p36
S'h'
p37
sS'8'
p38
S'o'
p39
sS'lgNEt'
p40
S'w'
p41
sS'OVyHx'
p42
S'g'
p43
sS'amHxA'
p44
S'u'
p45
sS'10'
p46
S'c'
p47
sS'12'
p48
S'f'
p49
sS'cgueA'
p50
S'y'
p51
sS'eYoTd'
p52
S'k'
p53
sS'SBCqK'
p54
S'x'
p55
ssS'cset'
p56
c__builtin__
set
p57
((lp58
g46
ag48
ag16
ag8
ag14
ag6
ag20
ag22
ag24
ag26
ag28
ag30
ag32
ag34
ag36
ag38
atp59
Rp60
sS'annealevel'
p61
F146.39999999999597
sS'strng'
p62
S'1118251011127124915121010111410215117112101112171344831110715142541434109161491493412122541010125127101519101112341255115251215755111234101112915121061534'
p63
sS'csplit'
p64
(lp65
I0
aI1
aI0
aI1
aI0
aI1
aI0
aI1
aI0
aI1
aI0
aI1
aI0
aI1
aI0
aI1
aI1
aI1
aI1
aI1
aI1
aI1
aI1
aI0
aI1
aI1
aI1
aI1
aI1
aI1
aI1
aI1
aI1
aI1
aI1
aI1
aI1
aI1
aI1
aI1
aI1
aI1
aI1
aI1
aI1
aI1
aI1
aI1
aI1
aI1
aI1
aI1
aI1
aI0
aI0
aI1
aI1
aI0
aI1
aI1
aI1
aI1
aI1
aI1
aI1
aI1
aI1
aI1
aI1
aI1
aI0
aI1
aI1
aI1
aI1
aI1
aI1
aI1
aI1
aI1
aI1
aI1
aI1
aI0
aI1
aI1
aI1
aI1
aI1
aI1
aI1
aI1
aI1
aI0
aI1
aI1
aI1
aI1
aI1
aI1
aI1
aI0
aI1
aI1
aI1
aI1
aI1
aI1
aI1
aI1
aI1
aI1
aI1
aI1
aI1
aI1
aI1
aI1
aI1
aI1
aI1
aI1
aI1
aI1
aI1
aI1
aI1
aI1
aI1
aI1
aI1
aI1
aI1
aI1
aI1
aI1
aI1
aI1
aI1
aI1
aI1
aI1
aI1
aI1
aI0
aI1
aI1
aI1
aI1
aI1
aI1
aI1
aI1
asS'spl'
p66
(lp67
g20
ag20
ag20
ag38
ag26
ag28
ag20
ag22
ag20
ag20
ag20
ag26
ag32
ag20
ag26
ag30
ag36
ag20
ag28
ag20
ag26
ag20
ag22
ag46
ag20
ag20
ag20
ag30
ag20
ag22
ag26
ag20
ag28
ag20
ag20
ag32
ag20
ag20
ag26
ag20
ag22
ag20
ag20
ag20
ag26
ag20
ag32
ag20
ag24
ag30
ag30
ag38
ag8
ag20
ag16
ag20
ag28
ag20
ag30
ag26
ag28
ag30
ag20
ag30
ag24
ag30
aS'10'
p68
ag36
ag20
ag34
ag20
ag30
ag36
ag20
ag30
ag36
ag24
ag30
ag48
ag20
ag26
ag26
ag28
ag30
ag20
ag22
ag20
ag14
ag26
ag28
ag20
ag26
ag32
ag20
aS'01'
p69
ag28
ag20
ag36
ag20
ag22
ag20
ag20
ag20
ag26
ag24
ag30
ag20
ag26
ag28
ag28
ag20
ag20
ag28
ag26
ag28
ag20
ag26
ag20
ag28
ag32
ag28
ag28
ag20
ag20
ag20
ag26
ag24
ag30
ag20
ag22
ag20
ag20
ag20
ag26
ag36
ag20
ag6
ag26
ag20
ag22
ag34
ag20
ag28
ag24
asS'ls'
p70
I153
sS'cscore'
p71
F0.644898780768346
sb.
(i__main__
annealpoint
p0
(dp1
S'ccode'
p2
(dp3
S'bNnDQ'
p4
S'z'
p5
sS'51'
p6
S'p'
p7
sS'311'
p8
S'w'
p9
sS'GhVLE'
p10
S'o'
p11
sS'eSQOq'
p12
S'u'
p13
sS'01'
p14
S'a'
p15
sS'07'
p16
S'k'
p17
sS'xCava'
p18
S'q'
p19
sS'1'
p20
S'e'
p21
sS'0'
p22
S's'
p23
sS'3'
p24
S'i'
p25
sS'2'
p26
S'r'
p27
sS'5'
p28
S'n'
p29
sS'4'
p30
S'd'
p31
sS'7'
p32
S'v'
p33
sS'6'
p34
S'm'
p35
sS'9'
p36
S'h'
p37
sS'8'
p38
S'l'
p39
sS'lgNEt'
p40
S'f'
p41
sS'OVyHx'
p42
S'j'
p43
sS'amHxA'
p44
S'g'
p45
sS'10'
p46
S't'
p47
sS'12'
p48
S'b'
p49
sS'cgueA'
p50
S'c'
p51
sS'eYoTd'
p52
S'y'
p53
sS'SBCqK'
p54
S'x'
p55
ssS'cset'
p56
c__builtin__
set
p57
((lp58
g46
ag48
ag16
ag8
ag14
ag6
ag20
ag22
ag24
ag26
ag28
ag30
ag32
ag34
ag36
ag38
atp59
Rp60
sS'annealevel'
p61
F222.59999999999164
sS'strng'
p62
S'1118251011127124915121010111410215117112101112171344831110715142541434109161491493412122541010125127101519101112341255115251215755111234101112915121061534'
p63
sS'csplit'
p64
(lp65
I0
aI1
aI0
aI1
aI0
aI1
aI0
aI1
aI0
aI1
aI0
aI1
aI0
aI1
aI0
aI1
aI1
aI1
aI1
aI1
aI1
aI1
aI1
aI0
aI1
aI1
aI1
aI1
aI1
aI1
aI1
aI1
aI1
aI1
aI1
aI1
aI1
aI1
aI1
aI1
aI1
aI1
aI1
aI1
aI1
aI1
aI1
aI1
aI1
aI1
aI1
aI1
aI1
aI0
aI0
aI1
aI1
aI0
aI1
aI1
aI1
aI1
aI1
aI1
aI1
aI1
aI1
aI1
aI1
aI1
aI0
aI1
aI1
aI1
aI1
aI1
aI1
aI1
aI1
aI1
aI1
aI1
aI1
aI0
aI1
aI1
aI1
aI1
aI1
aI1
aI1
aI1
aI1
aI0
aI1
aI1
aI1
aI1
aI1
aI1
aI1
aI0
aI1
aI1
aI1
aI1
aI1
aI1
aI1
aI1
aI1
aI1
aI1
aI1
aI1
aI1
aI1
aI1
aI1
aI1
aI1
aI1
aI1
aI1
aI1
aI1
aI1
aI1
aI1
aI1
aI1
aI1
aI1
aI1
aI1
aI1
aI1
aI1
aI1
aI1
aI1
aI1
aI1
aI1
aI0
aI1
aI1
aI1
aI1
aI1
aI1
aI1
aI1
asS'spl'
p66
(lp67
g20
ag20
ag20
ag38
ag26
ag28
ag20
ag22
ag20
ag20
ag20
ag26
ag32
ag20
ag26
ag30
ag36
ag20
ag28
ag20
ag26
ag20
ag22
ag46
ag20
ag20
ag20
ag30
ag20
ag22
ag26
ag20
ag28
ag20
ag20
ag32
ag20
ag20
ag26
ag20
ag22
ag20
ag20
ag20
ag26
ag20
ag32
ag20
ag24
ag30
ag30
ag38
ag8
ag20
ag16
ag20
ag28
ag20
ag30
ag26
ag28
ag30
ag20
ag30
ag24
ag30
aS'10'
p68
ag36
ag20
ag34
ag20
ag30
ag36
ag20
ag30
ag36
ag24
ag30
ag48
ag20
ag26
ag26
ag28
ag30
ag20
ag22
ag20
ag14
ag26
ag28
ag20
ag26
ag32
ag20
aS'01'
p69
ag28
ag20
ag36
ag20
ag22
ag20
ag20
ag20
ag26
ag24
ag30
ag20
ag26
ag28
ag28
ag20
ag20
ag28
ag26
ag28
ag20
ag26
ag20
ag28
ag32
ag28
ag28
ag20
ag20
ag20
ag26
ag24
ag30
ag20
ag22
ag20
ag20
ag20
ag26
ag36
ag20
ag6
ag26
ag20
ag22
ag34
ag20
ag28
ag24
asS'ls'
p70
I153
sS'cscore'
p71
F0.64747766862938
sb.
(i__main__
annealpoint
p0
(dp1
S'ccode'
p2
(dp3
S'bNnDQ'
p4
S'k'
p5
sS'51'
p6
S'p'
p7
sS'311'
p8
S'w'
p9
sS'GhVLE'
p10
S'g'
p11
sS'eSQOq'
p12
S'c'
p13
sS'01'
p14
S'a'
p15
sS'07'
p16
S'l'
p17
sS'xCava'
p18
S'q'
p19
sS'1'
p20
S'e'
p21
sS'0'
p22
S's'
p23
sS'3'
p24
S'i'
p25
sS'2'
p26
S'r'
p27
sS'5'
p28
S'n'
p29
sS'4'
p30
S'd'
p31
sS'7'
p32
S'v'
p33
sS'6'
p34
S'm'
p35
sS'9'
p36
S'h'
p37
sS'8'
p38
S'o'
p39
sS'lgNEt'
p40
S'u'
p41
sS'OVyHx'
p42
S'z'
p43
sS'amHxA'
p44
S'j'
p45
sS'10'
p46
S't'
p47
sS'12'
p48
S'b'
p49
sS'cgueA'
p50
S'x'
p51
sS'eYoTd'
p52
S'y'
p53
sS'SBCqK'
p54
S'f'
p55
ssS'cset'
p56
c__builtin__
set
p57
((lp58
g46
ag48
ag16
ag8
ag14
ag6
ag20
ag22
ag24
ag26
ag28
ag30
ag32
ag34
ag36
ag38
atp59
Rp60
sS'annealevel'
p61
F248.99999999999014
sS'strng'
p62
S'1118251011127124915121010111410215117112101112171344831110715142541434109161491493412122541010125127101519101112341255115251215755111234101112915121061534'
p63
sS'csplit'
p64
(lp65
I0
aI1
aI0
aI1
aI0
aI1
aI0
aI1
aI0
aI1
aI0
aI1
aI0
aI1
aI0
aI1
aI1
aI1
aI1
aI1
aI1
aI1
aI1
aI0
aI1
aI1
aI1
aI1
aI1
aI1
aI1
aI1
aI1
aI1
aI1
aI1
aI1
aI1
aI1
aI1
aI1
aI1
aI1
aI1
aI1
aI1
aI1
aI1
aI1
aI1
aI1
aI1
aI1
aI0
aI0
aI1
aI1
aI0
aI1
aI1
aI1
aI1
aI1
aI1
aI1
aI1
aI1
aI1
aI1
aI1
aI0
aI1
aI1
aI1
aI1
aI1
aI1
aI1
aI1
aI1
aI1
aI1
aI1
aI0
aI1
aI1
aI1
aI1
aI1
aI1
aI1
aI1
aI1
aI0
aI1
aI1
aI1
aI1
aI1
aI1
aI1
aI0
aI1
aI1
aI1
aI1
aI1
aI1
aI1
aI1
aI1
aI1
aI1
aI1
aI1
aI1
aI1
aI1
aI1
aI1
aI1
aI1
aI1
aI1
aI1
aI1
aI1
aI1
aI1
aI1
aI1
aI1
aI1
aI1
aI1
aI1
aI1
aI1
aI1
aI1
aI1
aI1
aI1
aI1
aI0
aI1
aI1
aI1
aI1
aI1
aI1
aI1
aI1
asS'spl'
p66
(lp67
g20
ag20
ag20
ag38
ag26
ag28
ag20
ag22
ag20
ag20
ag20
ag26
ag32
ag20
ag26
ag30
ag36
ag20
ag28
ag20
ag26
ag20
ag22
ag46
ag20
ag20
ag20
ag30
ag20
ag22
ag26
ag20
ag28
ag20
ag20
ag32
ag20
ag20
ag26
ag20
ag22
ag20
ag20
ag20
ag26
ag20
ag32
ag20
ag24
ag30
ag30
ag38
ag8
ag20
ag16
ag20
ag28
ag20
ag30
ag26
ag28
ag30
ag20
ag30
ag24
ag30
aS'10'
p68
ag36
ag20
ag34
ag20
ag30
ag36
ag20
ag30
ag36
ag24
ag30
ag48
ag20
ag26
ag26
ag28
ag30
ag20
ag22
ag20
ag14
ag26
ag28
ag20
ag26
ag32
ag20
aS'01'
p69
ag28
ag20
ag36
ag20
ag22
ag20
ag20
ag20
ag26
ag24
ag30
ag20
ag26
ag28
ag28
ag20
ag20
ag28
ag26
ag28
ag20
ag26
ag20
ag28
ag32
ag28
ag28
ag20
ag20
ag20
ag26
ag24
ag30
ag20
ag22
ag20
ag20
ag20
ag26
ag36
ag20
ag6
ag26
ag20
ag22
ag34
ag20
ag28
ag24
asS'ls'
p70
I153
sS'cscore'
p71
F0.654751552795031
sb.
