(i__main__
annealpoint
p0
(dp1
S'ccode'
p2
(dp3
S'jXdlJ'
p4
S'q'
p5
sS'CDtwh'
p6
S'z'
p7
sS'572'
p8
S'h'
p9
sS'GPnKi'
p10
S't'
p11
sS'xnNOB'
p12
S'x'
p13
sS'82'
p14
S'w'
p15
sS'GhJEI'
p16
S'y'
p17
sS'24'
p18
S'p'
p19
sS'27'
p20
S's'
p21
sS'20'
p22
S'd'
p23
sS'KXAie'
p24
S'b'
p25
sS'04'
p26
S'n'
p27
sS'XDpaz'
p28
S'c'
p29
sS'95'
p30
S'l'
p31
sS'zfdlc'
p32
S'g'
p33
sS'BRJOm'
p34
S'i'
p35
sS'IOCgB'
p36
S'v'
p37
sS'UAeSU'
p38
S'f'
p39
sS'02'
p40
S'k'
p41
sS'LIIJl'
p42
S'o'
p43
sS'ZXJTs'
p44
S'm'
p45
sS'Ocuwb'
p46
S'u'
p47
sS'HnQHj'
p48
S'a'
p49
sS'YLzGy'
p50
S'r'
p51
sS'Zcoqu'
p52
S'j'
p53
sS'50'
p54
S'e'
p55
ssS'cset'
p56
c__builtin__
set
p57
((lp58
g18
ag40
aS'27'
p59
ag22
ag26
ag8
ag54
ag14
ag30
atp60
Rp61
sS'annealevel'
p62
F0.1
sS'newwordsplit'
p63
I0
sS'csplit'
p64
(lp65
I0
aI1
aI0
aI1
aI0
aI1
aI0
aI1
aI0
aI1
aI0
aI1
aI0
aI1
aI0
aI1
aI0
aI0
aI1
asS'strng'
p66
S'82502724952004025720'
p67
sS'fullstring'
p68
S'8250272495200402572027344830754254434096494934222540025270590234255525257552340295206534'
p69
sS'strpos'
p70
I20
sS'spl'
p71
(lp72
g14
ag54
ag59
ag18
ag30
ag22
ag26
ag40
ag8
asS'ls'
p73
I19
sS'wordsplit'
p74
I0
sS'cscore'
p75
F0.3888888888888889
sb.
(i__main__
annealpoint
p0
(dp1
S'ccode'
p2
(dp3
S'kfozX'
p4
S'z'
p5
sS'572'
p6
S'd'
p7
sS'SHZOn'
p8
S'u'
p9
sS'82'
p10
S'g'
p11
sS'24'
p12
S'a'
p13
sS'27'
p14
S'r'
p15
sS'20'
p16
S'v'
p17
sS'HcxXj'
p18
S'o'
p19
sS'goois'
p20
S'f'
p21
sS'95'
p22
S'i'
p23
sS'vFfZe'
p24
S'm'
p25
sS'wbezV'
p26
S'p'
p27
sS'pipFw'
p28
S'e'
p29
sS'OBEoY'
p30
S'l'
p31
sS'FLWXB'
p32
S'y'
p33
sS'02'
p34
S'j'
p35
sS'IHycm'
p36
S'c'
p37
sS'DXDZC'
p38
S'q'
p39
sS'WRJfs'
p40
S'n'
p41
sS'zAtrU'
p42
S't'
p43
sS'mQmXf'
p44
S'w'
p45
sS'XjBFZ'
p46
S'k'
p47
sS'04'
p48
S'h'
p49
sS'QwkWO'
p50
S'x'
p51
sS'50'
p52
S's'
p53
sS'bstjJ'
p54
S'b'
p55
ssS'cset'
p56
c__builtin__
set
p57
((lp58
g12
ag34
ag14
aS'20'
p59
ag48
ag6
ag52
aS'82'
p60
ag22
atp61
Rp62
sS'annealevel'
p63
F0.2
sS'newwordsplit'
p64
I0
sS'csplit'
p65
(lp66
I0
aI1
aI0
aI1
aI0
aI1
aI0
aI1
aI0
aI1
aI0
aI1
aI0
aI1
aI0
aI1
aI0
aI0
aI1
asS'strng'
p67
S'82502724952004025720'
p68
sS'fullstring'
p69
S'8250272495200402572027344830754254434096494934222540025270590234255525257552340295206534'
p70
sS'strpos'
p71
I20
sS'spl'
p72
(lp73
g60
ag52
ag14
ag12
ag22
ag59
ag48
ag34
ag6
asS'ls'
p74
I19
sS'wordsplit'
p75
I0
sS'cscore'
p76
F0.4444444444444444
sb.
(i__main__
annealpoint
p0
(dp1
S'ccode'
p2
(dp3
S'cmCvP'
p4
S'y'
p5
sS'kRUiH'
p6
S's'
p7
sS'lhdKi'
p8
S'r'
p9
sS'82'
p10
S'o'
p11
sS'WswfV'
p12
S'b'
p13
sS'cyvQU'
p14
S'z'
p15
sS'24'
p16
S'h'
p17
sS'nPwRO'
p18
S'x'
p19
sS'27'
p20
S't'
p21
sS'20'
p22
S'm'
p23
sS'04'
p24
S'c'
p25
sS'2'
p26
S'n'
p27
sS'dnbrd'
p28
S'q'
p29
sS'CpwuX'
p30
S'w'
p31
sS'02'
p32
S'j'
p33
sS'gSMTx'
p34
S'f'
p35
sS'ySPYN'
p36
S'k'
p37
sS'GeyJO'
p38
S'v'
p39
sS'Fmfyg'
p40
S'p'
p41
sS'95'
p42
S'e'
p43
sS'sxTuS'
p44
S'g'
p45
sS'57'
p46
S'd'
p47
sS'50'
p48
S'l'
p49
sS'jsXab'
p50
S'a'
p51
sS'DzVVg'
p52
S'u'
p53
sS'jeoOe'
p54
S'i'
p55
ssS'cset'
p56
c__builtin__
set
p57
((lp58
g16
ag32
ag20
ag22
ag24
ag46
ag48
ag26
ag10
ag42
atp59
Rp60
sS'annealevel'
p61
F0.30000000000000004
sS'newwordsplit'
p62
I0
sS'csplit'
p63
(lp64
I0
aI1
aI0
aI1
aI0
aI1
aI0
aI1
aI0
aI1
aI0
aI1
aI0
aI1
aI0
aI1
aI0
aI1
aI1
asS'strng'
p65
S'82502724952004025720'
p66
sS'fullstring'
p67
S'8250272495200402572027344830754254434096494934222540025270590234255525257552340295206534'
p68
sS'strpos'
p69
I20
sS'spl'
p70
(lp71
g10
ag48
ag20
ag16
ag42
ag22
ag24
ag32
ag46
ag26
asS'ls'
p72
I19
sS'wordsplit'
p73
I0
sS'cscore'
p74
F0.6296296296296297
sb.
(i__main__
annealpoint
p0
(dp1
S'ccode'
p2
(dp3
S'MvJPu'
p4
S'r'
p5
sS'Pbjwb'
p6
S'q'
p7
sS'82'
p8
S'e'
p9
sS'ZLoUX'
p10
S'x'
p11
sS'QxwFQ'
p12
S't'
p13
sS'NndFc'
p14
S'j'
p15
sS'24'
p16
S'o'
p17
sS'SsBOd'
p18
S'f'
p19
sS'27'
p20
S'c'
p21
sS'20'
p22
S'd'
p23
sS'04'
p24
S'b'
p25
sS'WAIyV'
p26
S'a'
p27
sS'5'
p28
S'i'
p29
sS'kyQlk'
p30
S'v'
p31
sS'02'
p32
S'y'
p33
sS'ePQsf'
p34
S'g'
p35
sS'OCBQV'
p36
S'h'
p37
sS'ImOGN'
p38
S's'
p39
sS'XTzRn'
p40
S'n'
p41
sS'72'
p42
S'u'
p43
sS'mpAGR'
p44
S'w'
p45
sS'95'
p46
S'l'
p47
sS'50'
p48
S'p'
p49
sS'wLkEj'
p50
S'k'
p51
sS'gwnRA'
p52
S'z'
p53
sS'qnCrs'
p54
S'm'
p55
ssS'cset'
p56
c__builtin__
set
p57
((lp58
S'24'
p59
ag32
ag20
ag22
ag24
ag48
ag28
aS'72'
p60
ag8
aS'95'
p61
atp62
Rp63
sS'annealevel'
p64
F0.4
sS'newwordsplit'
p65
I0
sS'csplit'
p66
(lp67
I0
aI1
aI0
aI1
aI0
aI1
aI0
aI1
aI0
aI1
aI0
aI1
aI0
aI1
aI0
aI1
aI1
aI0
aI1
asS'strng'
p68
S'82502724952004025720'
p69
sS'fullstring'
p70
S'8250272495200402572027344830754254434096494934222540025270590234255525257552340295206534'
p71
sS'strpos'
p72
I20
sS'spl'
p73
(lp74
g8
ag48
ag20
ag59
ag61
ag22
ag24
ag32
ag28
ag60
asS'ls'
p75
I19
sS'wordsplit'
p76
I0
sS'cscore'
p77
F1.0
sb.
(i__main__
annealpoint
p0
(dp1
S'ccode'
p2
(dp3
S'bOulU'
p4
S'h'
p5
sS'82'
p6
S'j'
p7
sS'naIXS'
p8
S'q'
p9
sS'FrMtK'
p10
S'a'
p11
sS'fCkBc'
p12
S'w'
p13
sS'24'
p14
S't'
p15
sS'27'
p16
S's'
p17
sS'20'
p18
S'i'
p19
sS'04'
p20
S'n'
p21
sS'oHLwW'
p22
S'c'
p23
sS'yYtlG'
p24
S'p'
p25
sS'MkTjE'
p26
S'l'
p27
sS'wyzlD'
p28
S'y'
p29
sS'02'
p30
S'r'
p31
sS'TgMAx'
p32
S'm'
p33
sS'BmawH'
p34
S'f'
p35
sS'MtoTK'
p36
S'z'
p37
sS'rmwpr'
p38
S'v'
p39
sS'73'
p40
S'b'
p41
sS'2'
p42
S'g'
p43
sS'95'
p44
S'k'
p45
sS'DqLcV'
p46
S'x'
p47
sS'iwIcA'
p48
S'o'
p49
sS'ulKQY'
p50
S'e'
p51
sS'57'
p52
S'd'
p53
sS'50'
p54
S'u'
p55
ssS'cset'
p56
c__builtin__
set
p57
((lp58
S'24'
p59
aS'02'
p60
aS'27'
p61
aS'20'
p62
aS'04'
p63
aS'57'
p64
aS'50'
p65
ag42
ag40
aS'82'
p66
aS'95'
p67
atp68
Rp69
sS'annealevel'
p70
F0.8999999999999999
sS'window'
p71
(lp72
I23
aI23
asS'newwordsplit'
p73
I6
sS'csplit'
p74
(lp75
I0
aI1
aI0
aI1
aI0
aI1
aI0
aI1
aI0
aI1
aI0
aI1
aI0
aI1
aI0
aI1
aI0
aI1
aI1
aI0
aI1
aI0
aI1
aI0
asS'strng'
p76
S'8250272495200402572027344'
p77
sS'fullstring'
p78
S'8250272495200402572027344830754254434096494934222540025270590234255525257552340295206534'
p79
sS'strpos'
p80
I25
sS'spl'
p81
(lp82
g66
ag65
ag61
ag59
ag67
ag62
ag63
ag60
ag64
ag42
aS'02'
p83
ag40
asS'ls'
p84
I24
sS'nextincr'
p85
I7
sS'wordsplit'
p86
I6
sS'naught'
p87
I0
sS'cscore'
p88
F1.9703703703703703
sb.
(i__main__
annealpoint
p0
(dp1
S'ccode'
p2
(dp3
S'bOulU'
p4
S'r'
p5
sS'82'
p6
S'j'
p7
sS'naIXS'
p8
S'm'
p9
sS'FrMtK'
p10
S'w'
p11
sS'fCkBc'
p12
S'a'
p13
sS'24'
p14
S't'
p15
sS'27'
p16
S's'
p17
sS'20'
p18
S'i'
p19
sS'04'
p20
S'n'
p21
sS'oHLwW'
p22
S'v'
p23
sS'yYtlG'
p24
S'o'
p25
sS'MkTjE'
p26
S'l'
p27
sS'wyzlD'
p28
S'y'
p29
sS'02'
p30
S'g'
p31
sS'TgMAx'
p32
S'e'
p33
sS'BmawH'
p34
S'f'
p35
sS'MtoTK'
p36
S'h'
p37
sS'rmwpr'
p38
S'z'
p39
sS'73'
p40
S'b'
p41
sS'2'
p42
S'x'
p43
sS'95'
p44
S'k'
p45
sS'DqLcV'
p46
S'c'
p47
sS'iwIcA'
p48
S'q'
p49
sS'ulKQY'
p50
S'p'
p51
sS'57'
p52
S'd'
p53
sS'50'
p54
S'u'
p55
ssS'cset'
p56
c__builtin__
set
p57
((lp58
S'24'
p59
aS'02'
p60
aS'27'
p61
aS'20'
p62
aS'04'
p63
aS'57'
p64
aS'50'
p65
ag42
ag40
aS'82'
p66
aS'95'
p67
atp68
Rp69
sS'annealevel'
p70
F0.9999999999999999
sS'window'
p71
(lp72
I23
aI23
asS'newwordsplit'
p73
I8
sS'csplit'
p74
(lp75
I0
aI1
aI0
aI1
aI0
aI1
aI0
aI1
aI0
aI1
aI0
aI1
aI0
aI1
aI0
aI1
aI0
aI1
aI1
aI0
aI1
aI0
aI1
aI0
asS'strng'
p76
S'8250272495200402572027344'
p77
sS'fullstring'
p78
S'8250272495200402572027344830754254434096494934222540025270590234255525257552340295206534'
p79
sS'strpos'
p80
I25
sS'spl'
p81
(lp82
g66
ag65
ag61
ag59
ag67
ag62
ag63
ag60
ag64
ag42
aS'02'
p83
ag40
asS'ls'
p84
I24
sS'nextincr'
p85
I7
sS'wordsplit'
p86
I8
sS'naught'
p87
I0
sS'cscore'
p88
F2.1925925925925926
sb.
(i__main__
annealpoint
p0
(dp1
S'ccode'
p2
(dp3
S'zbood'
p4
S'i'
p5
sS'AKOKa'
p6
S'b'
p7
sS'82'
p8
S'g'
p9
sS'yVbfW'
p10
S'z'
p11
sS'24'
p12
S'v'
p13
sS'27'
p14
S'o'
p15
sS'20'
p16
S's'
p17
sS'04'
p18
S'w'
p19
sS'0'
p20
S'd'
p21
sS'BczkS'
p22
S'p'
p23
sS'Wpdxo'
p24
S'j'
p25
sS'2'
p26
S'q'
p27
sS'tkdUx'
p28
S'x'
p29
sS'02'
p30
S't'
p31
sS'iagWJ'
p32
S'm'
p33
sS'XCdir'
p34
S'y'
p35
sS'EsNpS'
p36
S'k'
p37
sS'vcnwC'
p38
S'u'
p39
sS'95'
p40
S'e'
p41
sS'TaHBz'
p42
S'c'
p43
sS'xTtFl'
p44
S'f'
p45
sS'XniAP'
p46
S'h'
p47
sS'57'
p48
S'a'
p49
sS'50'
p50
S'l'
p51
sS'VEIBp'
p52
S'r'
p53
sS'scyxI'
p54
S'n'
p55
ssS'cset'
p56
c__builtin__
set
p57
((lp58
S'24'
p59
aS'02'
p60
aS'27'
p61
aS'20'
p62
aS'04'
p63
aS'57'
p64
aS'50'
p65
ag20
ag26
aS'82'
p66
aS'95'
p67
atp68
Rp69
sS'annealevel'
p70
F2.700000000000001
sS'window'
p71
(lp72
I23
aI23
asS'newwordsplit'
p73
I6
sS'csplit'
p74
(lp75
I0
aI1
aI0
aI1
aI0
aI1
aI0
aI1
aI0
aI1
aI0
aI1
aI0
aI1
aI0
aI1
aI0
aI1
aI1
aI1
aI0
aI1
aI0
aI0
asS'strng'
p76
S'8250272495200402572027344'
p77
sS'fullstring'
p78
S'8250272495200402572027344830754254434096494934222540025270590234255525257552340295206534'
p79
sS'strpos'
p80
I25
sS'spl'
p81
(lp82
g66
ag65
ag61
ag59
ag67
ag62
ag63
ag60
ag64
ag26
ag20
aS'27'
p83
asS'ls'
p84
I24
sS'nextincr'
p85
I7
sS'wordsplit'
p86
I6
sS'naught'
p87
I0
sS'cscore'
p88
F3.3333333333333335
sb.
(i__main__
annealpoint
p0
(dp1
S'ccode'
p2
(dp3
S'zbood'
p4
S'n'
p5
sS'AKOKa'
p6
S'b'
p7
sS'82'
p8
S'g'
p9
sS'yVbfW'
p10
S'x'
p11
sS'24'
p12
S'v'
p13
sS'27'
p14
S'o'
p15
sS'20'
p16
S's'
p17
sS'04'
p18
S'w'
p19
sS'0'
p20
S'z'
p21
sS'BczkS'
p22
S'i'
p23
sS'Wpdxo'
p24
S'k'
p25
sS'2'
p26
S'd'
p27
sS'tkdUx'
p28
S'm'
p29
sS'02'
p30
S'y'
p31
sS'iagWJ'
p32
S'j'
p33
sS'XCdir'
p34
S'a'
p35
sS'EsNpS'
p36
S'f'
p37
sS'vcnwC'
p38
S'u'
p39
sS'95'
p40
S'e'
p41
sS'TaHBz'
p42
S't'
p43
sS'xTtFl'
p44
S'h'
p45
sS'XniAP'
p46
S'p'
p47
sS'57'
p48
S'q'
p49
sS'50'
p50
S'l'
p51
sS'VEIBp'
p52
S'r'
p53
sS'scyxI'
p54
S'c'
p55
ssS'cset'
p56
c__builtin__
set
p57
((lp58
S'24'
p59
aS'02'
p60
aS'27'
p61
aS'20'
p62
aS'04'
p63
aS'57'
p64
aS'50'
p65
ag20
ag26
aS'82'
p66
aS'95'
p67
atp68
Rp69
sS'annealevel'
p70
F2.800000000000001
sS'window'
p71
(lp72
I23
aI23
asS'newwordsplit'
p73
I6
sS'csplit'
p74
(lp75
I0
aI1
aI0
aI1
aI0
aI1
aI0
aI1
aI0
aI1
aI0
aI1
aI0
aI1
aI0
aI1
aI0
aI1
aI1
aI1
aI0
aI1
aI0
aI0
asS'strng'
p76
S'8250272495200402572027344'
p77
sS'fullstring'
p78
S'8250272495200402572027344830754254434096494934222540025270590234255525257552340295206534'
p79
sS'strpos'
p80
I25
sS'spl'
p81
(lp82
g66
ag65
ag61
ag59
ag67
ag62
ag63
ag60
ag64
ag26
ag20
aS'27'
p83
asS'ls'
p84
I24
sS'nextincr'
p85
I7
sS'wordsplit'
p86
I6
sS'naught'
p87
I0
sS'cscore'
p88
F3.3555555555555556
sb.
(i__main__
annealpoint
p0
(dp1
S'ccode'
p2
(dp3
S'zbood'
p4
S'd'
p5
sS'AKOKa'
p6
S'a'
p7
sS'82'
p8
S'g'
p9
sS'yVbfW'
p10
S't'
p11
sS'24'
p12
S'v'
p13
sS'27'
p14
S'o'
p15
sS'20'
p16
S's'
p17
sS'04'
p18
S'w'
p19
sS'0'
p20
S'u'
p21
sS'BczkS'
p22
S'i'
p23
sS'Wpdxo'
p24
S'j'
p25
sS'2'
p26
S'p'
p27
sS'tkdUx'
p28
S'f'
p29
sS'02'
p30
S'y'
p31
sS'iagWJ'
p32
S'k'
p33
sS'XCdir'
p34
S'c'
p35
sS'EsNpS'
p36
S'x'
p37
sS'vcnwC'
p38
S'm'
p39
sS'95'
p40
S'e'
p41
sS'TaHBz'
p42
S'q'
p43
sS'xTtFl'
p44
S'h'
p45
sS'XniAP'
p46
S'n'
p47
sS'57'
p48
S'z'
p49
sS'50'
p50
S'l'
p51
sS'VEIBp'
p52
S'r'
p53
sS'scyxI'
p54
S'b'
p55
ssS'cset'
p56
c__builtin__
set
p57
((lp58
S'24'
p59
aS'02'
p60
aS'27'
p61
aS'20'
p62
aS'04'
p63
aS'57'
p64
aS'50'
p65
ag20
ag26
aS'82'
p66
aS'95'
p67
atp68
Rp69
sS'annealevel'
p70
F2.9000000000000012
sS'window'
p71
(lp72
I23
aI23
asS'newwordsplit'
p73
I6
sS'csplit'
p74
(lp75
I0
aI1
aI0
aI1
aI0
aI1
aI0
aI1
aI0
aI1
aI0
aI1
aI0
aI1
aI0
aI1
aI0
aI1
aI1
aI1
aI0
aI1
aI0
aI0
asS'strng'
p76
S'8250272495200402572027344'
p77
sS'fullstring'
p78
S'8250272495200402572027344830754254434096494934222540025270590234255525257552340295206534'
p79
sS'strpos'
p80
I25
sS'spl'
p81
(lp82
g66
ag65
ag61
ag59
ag67
ag62
ag63
ag60
ag64
ag26
ag20
aS'27'
p83
asS'ls'
p84
I24
sS'nextincr'
p85
I7
sS'wordsplit'
p86
I6
sS'naught'
p87
I0
sS'cscore'
p88
F3.3703703703703702
sb.
(i__main__
annealpoint
p0
(dp1
S'ccode'
p2
(dp3
S'zbood'
p4
S'z'
p5
sS'AKOKa'
p6
S'q'
p7
sS'82'
p8
S'g'
p9
sS'yVbfW'
p10
S'u'
p11
sS'24'
p12
S'v'
p13
sS'27'
p14
S'o'
p15
sS'20'
p16
S's'
p17
sS'04'
p18
S'h'
p19
sS'0'
p20
S'p'
p21
sS'BczkS'
p22
S'm'
p23
sS'Wpdxo'
p24
S't'
p25
sS'2'
p26
S'k'
p27
sS'tkdUx'
p28
S'r'
p29
sS'02'
p30
S'n'
p31
sS'iagWJ'
p32
S'i'
p33
sS'XCdir'
p34
S'f'
p35
sS'EsNpS'
p36
S'j'
p37
sS'vcnwC'
p38
S'y'
p39
sS'95'
p40
S'e'
p41
sS'TaHBz'
p42
S'a'
p43
sS'xTtFl'
p44
S'd'
p45
sS'XniAP'
p46
S'b'
p47
sS'57'
p48
S'w'
p49
sS'50'
p50
S'l'
p51
sS'VEIBp'
p52
S'c'
p53
sS'scyxI'
p54
S'x'
p55
ssS'cset'
p56
c__builtin__
set
p57
((lp58
S'24'
p59
aS'02'
p60
aS'27'
p61
aS'20'
p62
aS'04'
p63
aS'57'
p64
aS'50'
p65
ag20
ag26
aS'82'
p66
aS'95'
p67
atp68
Rp69
sS'annealevel'
p70
F3.1000000000000014
sS'window'
p71
(lp72
I23
aI23
asS'newwordsplit'
p73
I6
sS'csplit'
p74
(lp75
I0
aI1
aI0
aI1
aI0
aI1
aI0
aI1
aI0
aI1
aI0
aI1
aI0
aI1
aI0
aI1
aI0
aI1
aI1
aI1
aI0
aI1
aI0
aI0
asS'strng'
p76
S'8250272495200402572027344'
p77
sS'fullstring'
p78
S'8250272495200402572027344830754254434096494934222540025270590234255525257552340295206534'
p79
sS'strpos'
p80
I25
sS'spl'
p81
(lp82
g66
ag65
ag61
ag59
ag67
ag62
ag63
ag60
ag64
ag26
ag20
aS'27'
p83
asS'ls'
p84
I24
sS'nextincr'
p85
I7
sS'wordsplit'
p86
I6
sS'naught'
p87
I0
sS'cscore'
p88
F3.4074074074074074
sb.
(i__main__
annealpoint
p0
(dp1
S'ccode'
p2
(dp3
S'zbood'
p4
S'u'
p5
sS'AKOKa'
p6
S'x'
p7
sS'82'
p8
S'g'
p9
sS'yVbfW'
p10
S'p'
p11
sS'24'
p12
S'v'
p13
sS'27'
p14
S'o'
p15
sS'20'
p16
S'd'
p17
sS'04'
p18
S'h'
p19
sS'0'
p20
S'n'
p21
sS'BczkS'
p22
S'b'
p23
sS'Wpdxo'
p24
S'k'
p25
sS'2'
p26
S'z'
p27
sS'tkdUx'
p28
S'f'
p29
sS'02'
p30
S'm'
p31
sS'iagWJ'
p32
S's'
p33
sS'XCdir'
p34
S'j'
p35
sS'EsNpS'
p36
S'y'
p37
sS'vcnwC'
p38
S'a'
p39
sS'95'
p40
S'e'
p41
sS'TaHBz'
p42
S'c'
p43
sS'xTtFl'
p44
S'i'
p45
sS'XniAP'
p46
S'q'
p47
sS'57'
p48
S't'
p49
sS'50'
p50
S'l'
p51
sS'VEIBp'
p52
S'w'
p53
sS'scyxI'
p54
S'r'
p55
ssS'cset'
p56
c__builtin__
set
p57
((lp58
S'24'
p59
aS'02'
p60
aS'27'
p61
aS'20'
p62
aS'04'
p63
aS'57'
p64
aS'50'
p65
ag20
ag26
aS'82'
p66
aS'95'
p67
atp68
Rp69
sS'annealevel'
p70
F3.3000000000000016
sS'window'
p71
(lp72
I23
aI23
asS'newwordsplit'
p73
I8
sS'csplit'
p74
(lp75
I0
aI1
aI0
aI1
aI0
aI1
aI0
aI1
aI0
aI1
aI0
aI1
aI0
aI1
aI0
aI1
aI0
aI1
aI1
aI1
aI0
aI1
aI0
aI0
asS'strng'
p76
S'8250272495200402572027344'
p77
sS'fullstring'
p78
S'8250272495200402572027344830754254434096494934222540025270590234255525257552340295206534'
p79
sS'strpos'
p80
I25
sS'spl'
p81
(lp82
g66
ag65
ag61
ag59
ag67
ag62
ag63
ag60
ag64
ag26
ag20
aS'27'
p83
asS'ls'
p84
I24
sS'nextincr'
p85
I7
sS'wordsplit'
p86
I8
sS'naught'
p87
I0
sS'cscore'
p88
F3.5333333333333337
sb.
(i__main__
annealpoint
p0
(dp1
S'ccode'
p2
(dp3
S'SEWNq'
p4
S'm'
p5
sS'NfXCb'
p6
S'w'
p7
sS'uhNEX'
p8
S'v'
p9
sS'82'
p10
S'r'
p11
sS'CfbIP'
p12
S'c'
p13
sS'02'
p14
S'o'
p15
sS'xHEKY'
p16
S'd'
p17
sS'27'
p18
S'n'
p19
sS'20'
p20
S's'
p21
sS'04'
p22
S'k'
p23
sS'bjDDG'
p24
S'q'
p25
sS'gBEOy'
p26
S'y'
p27
sS'5'
p28
S't'
p29
sS'hPUGx'
p30
S'x'
p31
sS'24'
p32
S'g'
p33
sS'VETxy'
p34
S'z'
p35
sS'CfvLc'
p36
S'l'
p37
sS'027'
p38
S'i'
p39
sS'72'
p40
S'u'
p41
sS'95'
p42
S'e'
p43
sS'50'
p44
S'a'
p45
sS'34'
p46
S'p'
p47
sS'ZPxiX'
p48
S'f'
p49
sS'kVgGQ'
p50
S'j'
p51
sS'cBpvS'
p52
S'b'
p53
sS'wByjO'
p54
S'h'
p55
ssS'tc'
p56
S'rareday'
p57
sS'cset'
p58
c__builtin__
set
p59
((lp60
S'24'
p61
aS'02'
p62
aS'27'
p63
aS'20'
p64
aS'04'
p65
aS'50'
p66
ag46
ag38
ag28
aS'72'
p67
aS'82'
p68
aS'95'
p69
atp70
Rp71
sS'annealevel'
p72
F2.2000000000000006
sS'window'
p73
(lp74
I23
aI23
asS'newwordsplit'
p75
I6
sS'csplit'
p76
(lp77
I0
aI1
aI0
aI1
aI0
aI1
aI0
aI1
aI0
aI1
aI0
aI1
aI0
aI1
aI0
aI1
aI1
aI0
aI1
aI0
aI0
aI1
aI0
aI1
asS'strng'
p78
S'8250272495200402572027344'
p79
sS'fullstring'
p80
S'8250272495200402572027344830754254434096494934222540025270590234255525257552340295206534'
p81
sS'strpos'
p82
I25
sS'spl'
p83
(lp84
g68
ag66
ag63
ag61
ag69
ag64
ag65
ag62
ag28
ag67
ag38
ag46
asS'ls'
p85
I24
sS'nextincr'
p86
I7
sS'wordsplit'
p87
I6
sS'naught'
p88
I0
sS'cscore'
p89
F3.5474074074074076
sb.
(i__main__
annealpoint
p0
(dp1
S'ccode'
p2
(dp3
S'SEWNq'
p4
S'k'
p5
sS'NfXCb'
p6
S'v'
p7
sS'uhNEX'
p8
S'j'
p9
sS'82'
p10
S'r'
p11
sS'CfbIP'
p12
S'p'
p13
sS'02'
p14
S'l'
p15
sS'xHEKY'
p16
S'h'
p17
sS'27'
p18
S'n'
p19
sS'20'
p20
S's'
p21
sS'04'
p22
S't'
p23
sS'bjDDG'
p24
S'z'
p25
sS'gBEOy'
p26
S'y'
p27
sS'5'
p28
S'u'
p29
sS'hPUGx'
p30
S'b'
p31
sS'24'
p32
S'g'
p33
sS'VETxy'
p34
S'f'
p35
sS'CfvLc'
p36
S'o'
p37
sS'027'
p38
S'x'
p39
sS'72'
p40
S'm'
p41
sS'95'
p42
S'e'
p43
sS'50'
p44
S'a'
p45
sS'34'
p46
S'w'
p47
sS'ZPxiX'
p48
S'q'
p49
sS'kVgGQ'
p50
S'c'
p51
sS'cBpvS'
p52
S'i'
p53
sS'wByjO'
p54
S'd'
p55
ssS'tc'
p56
S'rareday'
p57
sS'cset'
p58
c__builtin__
set
p59
((lp60
S'24'
p61
aS'02'
p62
aS'27'
p63
aS'20'
p64
aS'04'
p65
aS'50'
p66
ag46
ag38
ag28
aS'72'
p67
aS'82'
p68
aS'95'
p69
atp70
Rp71
sS'annealevel'
p72
F3.0000000000000013
sS'window'
p73
(lp74
I23
aI23
asS'newwordsplit'
p75
I6
sS'csplit'
p76
(lp77
I0
aI1
aI0
aI1
aI0
aI1
aI0
aI1
aI0
aI1
aI0
aI1
aI0
aI1
aI0
aI1
aI1
aI0
aI1
aI0
aI0
aI1
aI0
aI1
asS'strng'
p78
S'8250272495200402572027344'
p79
sS'fullstring'
p80
S'8250272495200402572027344830754254434096494934222540025270590234255525257552340295206534'
p81
sS'strpos'
p82
I25
sS'spl'
p83
(lp84
g68
ag66
ag63
ag61
ag69
ag64
ag65
ag62
ag28
ag67
ag38
ag46
asS'ls'
p85
I24
sS'nextincr'
p86
I7
sS'wordsplit'
p87
I6
sS'naught'
p88
I0
sS'cscore'
p89
F3.64
sb.
(i__main__
annealpoint
p0
(dp1
S'ccode'
p2
(dp3
S'SEWNq'
p4
S't'
p5
sS'NfXCb'
p6
S'k'
p7
sS'uhNEX'
p8
S'v'
p9
sS'82'
p10
S'r'
p11
sS'CfbIP'
p12
S'f'
p13
sS'02'
p14
S'h'
p15
sS'xHEKY'
p16
S'm'
p17
sS'27'
p18
S'n'
p19
sS'20'
p20
S's'
p21
sS'04'
p22
S'o'
p23
sS'bjDDG'
p24
S'y'
p25
sS'gBEOy'
p26
S'j'
p27
sS'5'
p28
S'x'
p29
sS'hPUGx'
p30
S'p'
p31
sS'24'
p32
S'g'
p33
sS'VETxy'
p34
S'u'
p35
sS'CfvLc'
p36
S'l'
p37
sS'027'
p38
S'b'
p39
sS'72'
p40
S'i'
p41
sS'95'
p42
S'e'
p43
sS'50'
p44
S'a'
p45
sS'34'
p46
S'q'
p47
sS'ZPxiX'
p48
S'w'
p49
sS'kVgGQ'
p50
S'c'
p51
sS'cBpvS'
p52
S'z'
p53
sS'wByjO'
p54
S'd'
p55
ssS'tc'
p56
S'rareday'
p57
sS'cset'
p58
c__builtin__
set
p59
((lp60
S'24'
p61
aS'02'
p62
aS'27'
p63
aS'20'
p64
aS'04'
p65
aS'50'
p66
ag46
ag38
ag28
aS'72'
p67
aS'82'
p68
aS'95'
p69
atp70
Rp71
sS'annealevel'
p72
F4.100000000000001
sS'window'
p73
(lp74
I23
aI23
asS'newwordsplit'
p75
I8
sS'csplit'
p76
(lp77
I0
aI1
aI0
aI1
aI0
aI1
aI0
aI1
aI0
aI1
aI0
aI1
aI0
aI1
aI0
aI1
aI1
aI0
aI1
aI0
aI0
aI1
aI0
aI1
asS'strng'
p78
S'8250272495200402572027344'
p79
sS'fullstring'
p80
S'8250272495200402572027344830754254434096494934222540025270590234255525257552340295206534'
p81
sS'strpos'
p82
I25
sS'spl'
p83
(lp84
g68
ag66
ag63
ag61
ag69
ag64
ag65
ag62
ag28
ag67
ag38
ag46
asS'ls'
p85
I24
sS'nextincr'
p86
I7
sS'wordsplit'
p87
I8
sS'naught'
p88
I0
sS'cscore'
p89
F3.7103703703703705
sb.
(i__main__
annealpoint
p0
(dp1
S'ccode'
p2
(dp3
S'pmSTl'
p4
S'b'
p5
sS'82'
p6
S'r'
p7
sS'83'
p8
S'q'
p9
sS'tKVwr'
p10
S'm'
p11
sS'02'
p12
S'h'
p13
sS'27'
p14
S'n'
p15
sS'20'
p16
S's'
p17
sS'SUfau'
p18
S'y'
p19
sS'04'
p20
S'o'
p21
sS'etYlJ'
p22
S'j'
p23
sS'0'
p24
S'v'
p25
sS'5'
p26
S'f'
p27
sS'4'
p28
S't'
p29
sS'jTKme'
p30
S'p'
p31
sS'IOqTe'
p32
S'w'
p33
sS'24'
p34
S'g'
p35
sS'mgDeT'
p36
S'd'
p37
sS'pZNqf'
p38
S'u'
p39
sS'027'
p40
S'x'
p41
sS'DEpjg'
p42
S'c'
p43
sS'72'
p44
S'i'
p45
sS'95'
p46
S'e'
p47
sS'TKvZK'
p48
S'z'
p49
sS'50'
p50
S'a'
p51
sS'34'
p52
S'k'
p53
sS'KJcYk'
p54
S'l'
p55
ssS'tc'
p56
S'rareday'
p57
sS'cset'
p58
c__builtin__
set
p59
((lp60
S'24'
p61
aS'02'
p62
aS'27'
p63
aS'20'
p64
aS'04'
p65
aS'50'
p66
aS'34'
p67
ag24
aS'027'
p68
ag26
aS'72'
p69
aS'82'
p70
ag8
aS'95'
p71
ag28
atp72
Rp73
sS'annealevel'
p74
F4.200000000000001
sS'window'
p75
(lp76
I28
aI28
asS'newwordsplit'
p77
I11
sS'csplit'
p78
(lp79
I0
aI1
aI0
aI1
aI0
aI1
aI0
aI1
aI0
aI1
aI0
aI1
aI0
aI1
aI0
aI1
aI1
aI0
aI1
aI0
aI0
aI1
aI0
aI1
aI1
aI0
aI1
aI1
aI0
asS'strng'
p80
S'825027249520040257202734483075'
p81
sS'fullstring'
p82
S'8250272495200402572027344830754254434096494934222540025270590234255525257552340295206534'
p83
sS'strpos'
p84
I30
sS'spl'
p85
(lp86
g70
ag66
ag63
ag61
ag71
ag64
ag65
ag62
ag26
ag69
ag68
ag67
ag28
ag8
ag24
asS'ls'
p87
I29
sS'nextincr'
p88
I9
sS'wordsplit'
p89
I11
sS'naught'
p90
I0
sS'cscore'
p91
F3.729506172839506
sb.
(i__main__
annealpoint
p0
(dp1
S'ccode'
p2
(dp3
S'wyITX'
p4
S'i'
p5
sS'82'
p6
S'y'
p7
sS'tfDPP'
p8
S'w'
p9
sS'24'
p10
S'n'
p11
sS'27'
p12
S'u'
p13
sS'20'
p14
S'e'
p15
sS'04'
p16
S'r'
p17
sS'rdlia'
p18
S'x'
p19
sS'0'
p20
S'v'
p21
sS'2'
p22
S'a'
p23
sS'5'
p24
S's'
p25
sS'4'
p26
S'z'
p27
sS'7'
p28
S't'
p29
sS'02'
p30
S'k'
p31
sS'zUZwe'
p32
S'm'
p33
sS'344830'
p34
S'h'
p35
sS'egDXB'
p36
S'c'
p37
sS'IzyOb'
p38
S'j'
p39
sS'95'
p40
S'g'
p41
sS'uEcjj'
p42
S'b'
p43
sS'50'
p44
S'o'
p45
sS'uwwwz'
p46
S'f'
p47
sS'IMSDU'
p48
S'p'
p49
sS'7542'
p50
S'q'
p51
sS'laAtC'
p52
S'l'
p53
sS'ILEhB'
p54
S'd'
p55
ssS'tc'
p56
S'rareday'
p57
sS'cset'
p58
c__builtin__
set
p59
((lp60
S'24'
p61
aS'02'
p62
aS'27'
p63
aS'20'
p64
aS'344830'
p65
aS'04'
p66
aS'50'
p67
ag20
ag22
ag24
ag26
ag28
aS'82'
p68
ag50
aS'95'
p69
atp70
Rp71
sS'annealevel'
p72
F25.500000000000092
sS'window'
p73
(lp74
I33
aI33
asS'newwordsplit'
p75
I7
sS'csplit'
p76
(lp77
I0
aI1
aI0
aI1
aI0
aI1
aI0
aI1
aI0
aI1
aI0
aI1
aI0
aI1
aI0
aI1
aI1
aI1
aI1
aI1
aI1
aI1
aI0
aI0
aI0
aI0
aI0
aI1
aI0
aI0
aI0
aI1
aI1
aI1
asS'strng'
p78
S'82502724952004025720273448307542544'
p79
sS'fullstring'
p80
S'8250272495200402572027344830754254434096494934222540025270590234255525257552340295206534'
p81
sS'strpos'
p82
I35
sS'spl'
p83
(lp84
g68
ag67
ag63
ag61
ag69
ag64
ag66
ag62
ag24
ag28
ag22
ag20
ag22
ag28
ag65
ag50
ag24
ag26
asS'ls'
p85
I34
sS'nextincr'
p86
I11
sS'wordsplit'
p87
I7
sS'naught'
p88
I0
sS'cscore'
p89
F4.359259259259259
sb.
(i__main__
annealpoint
p0
(dp1
S'ccode'
p2
(dp3
S'wyITX'
p4
S'c'
p5
sS'82'
p6
S'y'
p7
sS'tfDPP'
p8
S'q'
p9
sS'24'
p10
S'n'
p11
sS'27'
p12
S'u'
p13
sS'20'
p14
S'e'
p15
sS'04'
p16
S'r'
p17
sS'rdlia'
p18
S'x'
p19
sS'0'
p20
S'v'
p21
sS'2'
p22
S'a'
p23
sS'5'
p24
S's'
p25
sS'4'
p26
S'z'
p27
sS'7'
p28
S't'
p29
sS'02'
p30
S'i'
p31
sS'zUZwe'
p32
S'm'
p33
sS'344830'
p34
S'h'
p35
sS'egDXB'
p36
S'l'
p37
sS'IzyOb'
p38
S'j'
p39
sS'95'
p40
S'g'
p41
sS'uEcjj'
p42
S'b'
p43
sS'50'
p44
S'o'
p45
sS'uwwwz'
p46
S'f'
p47
sS'IMSDU'
p48
S'p'
p49
sS'7542'
p50
S'w'
p51
sS'laAtC'
p52
S'd'
p53
sS'ILEhB'
p54
S'k'
p55
ssS'tc'
p56
S'rareday'
p57
sS'cset'
p58
c__builtin__
set
p59
((lp60
S'24'
p61
aS'02'
p62
aS'27'
p63
aS'20'
p64
aS'344830'
p65
aS'04'
p66
aS'50'
p67
ag20
ag22
ag24
ag26
ag28
aS'82'
p68
ag50
aS'95'
p69
atp70
Rp71
sS'annealevel'
p72
F25.600000000000094
sS'window'
p73
(lp74
I33
aI33
asS'newwordsplit'
p75
I15
sS'csplit'
p76
(lp77
I0
aI1
aI0
aI1
aI0
aI1
aI0
aI1
aI0
aI1
aI0
aI1
aI0
aI1
aI0
aI1
aI1
aI1
aI1
aI1
aI1
aI1
aI0
aI0
aI0
aI0
aI0
aI1
aI0
aI0
aI0
aI1
aI1
aI1
asS'strng'
p78
S'82502724952004025720273448307542544'
p79
sS'fullstring'
p80
S'8250272495200402572027344830754254434096494934222540025270590234255525257552340295206534'
p81
sS'strpos'
p82
I35
sS'spl'
p83
(lp84
g68
ag67
ag63
ag61
ag69
ag64
ag66
ag62
ag24
ag28
ag22
ag20
ag22
ag28
ag65
ag50
ag24
ag26
asS'ls'
p85
I34
sS'nextincr'
p86
I11
sS'wordsplit'
p87
I15
sS'naught'
p88
I0
sS'cscore'
p89
F5.15925925925926
sb.
(i__main__
annealpoint
p0
(dp1
S'ccode'
p2
(dp3
S'FKHjl'
p4
S'd'
p5
sS'EXfVy'
p6
S'k'
p7
sS'82'
p8
S'y'
p9
sS'ILcdZ'
p10
S'z'
p11
sS'4340'
p12
S'v'
p13
sS'24'
p14
S'n'
p15
sS'27'
p16
S'u'
p17
sS'20'
p18
S'e'
p19
sS'04'
p20
S'r'
p21
sS'0'
p22
S'f'
p23
sS'PvRKU'
p24
S'j'
p25
sS'2'
p26
S'a'
p27
sS'5'
p28
S's'
p29
sS'4'
p30
S'b'
p31
sS'7'
p32
S't'
p33
sS'9'
p34
S'l'
p35
sS'jcozl'
p36
S'c'
p37
sS'MHcqH'
p38
S'x'
p39
sS'02'
p40
S'i'
p41
sS'344830'
p42
S'h'
p43
sS'OWhHE'
p44
S'q'
p45
sS'UMaqj'
p46
S'w'
p47
sS'95'
p48
S'g'
p49
sS'50'
p50
S'o'
p51
sS'ibmRJ'
p52
S'p'
p53
sS'7542'
p54
S'm'
p55
ssS'tc'
p56
S'rareday'
p57
sS'cset'
p58
c__builtin__
set
p59
((lp60
S'24'
p61
aS'02'
p62
ag34
aS'27'
p63
aS'20'
p64
aS'344830'
p65
aS'04'
p66
aS'50'
p67
ag22
ag26
ag28
ag30
ag32
aS'82'
p68
aS'7542'
p69
aS'95'
p70
ag12
atp71
Rp72
sS'annealevel'
p73
F25.900000000000098
sS'window'
p74
(lp75
I38
aI38
asS'newwordsplit'
p76
I16
sS'csplit'
p77
(lp78
I0
aI1
aI0
aI1
aI0
aI1
aI0
aI1
aI0
aI1
aI0
aI1
aI0
aI1
aI0
aI1
aI1
aI1
aI1
aI1
aI1
aI1
aI0
aI0
aI0
aI0
aI0
aI1
aI0
aI0
aI0
aI1
aI1
aI1
aI0
aI0
aI0
aI1
aI1
asS'strng'
p79
S'8250272495200402572027344830754254434096'
p80
sS'fullstring'
p81
S'8250272495200402572027344830754254434096494934222540025270590234255525257552340295206534'
p82
sS'strpos'
p83
I40
sS'spl'
p84
(lp85
g68
ag67
ag63
ag61
ag70
ag64
ag66
ag62
ag28
ag32
ag26
ag22
ag26
ag32
ag65
ag69
ag28
ag30
ag12
ag34
asS'ls'
p86
I39
sS'nextincr'
p87
I16
sS'wordsplit'
p88
I16
sS'naught'
p89
I0
sS'cscore'
p90
F5.222222222222222
sb.
(i__main__
annealpoint
p0
(dp1
S'ccode'
p2
(dp3
S'KIBLb'
p4
S'c'
p5
sS'82'
p6
S'y'
p7
sS'4340'
p8
S'f'
p9
sS'24'
p10
S'n'
p11
sS'YUUZB'
p12
S'q'
p13
sS'27'
p14
S'u'
p15
sS'20'
p16
S'e'
p17
sS'04'
p18
S'r'
p19
sS'0'
p20
S'v'
p21
sS'2'
p22
S'a'
p23
sS'5'
p24
S'i'
p25
sS'4'
p26
S'b'
p27
sS'7'
p28
S't'
p29
sS'9'
p30
S'x'
p31
sS'02'
p32
S's'
p33
sS'344830'
p34
S'h'
p35
sS'HhBul'
p36
S'j'
p37
sS'95'
p38
S'g'
p39
sS'jCkkX'
p40
S'w'
p41
sS'EZnHQ'
p42
S'd'
p43
sS'FidQf'
p44
S'p'
p45
sS'lJgCC'
p46
S'z'
p47
sS'50'
p48
S'o'
p49
sS'7542'
p50
S'm'
p51
sS'RCrun'
p52
S'k'
p53
sS'UFdht'
p54
S'l'
p55
ssS'tc'
p56
S'rareday'
p57
sS'cset'
p58
c__builtin__
set
p59
((lp60
S'24'
p61
aS'02'
p62
ag30
aS'27'
p63
aS'20'
p64
aS'344830'
p65
aS'04'
p66
aS'50'
p67
ag20
ag22
ag24
ag26
ag28
aS'82'
p68
aS'7542'
p69
aS'95'
p70
aS'4340'
p71
atp72
Rp73
sS'annealevel'
p74
F26.0000000000001
sS'window'
p75
(lp76
I43
aI43
asS'newwordsplit'
p77
I17
sS'csplit'
p78
(lp79
I0
aI1
aI0
aI1
aI0
aI1
aI0
aI1
aI0
aI1
aI0
aI1
aI0
aI1
aI0
aI1
aI1
aI1
aI1
aI1
aI1
aI1
aI0
aI0
aI0
aI0
aI0
aI1
aI0
aI0
aI0
aI1
aI1
aI1
aI0
aI0
aI0
aI1
aI1
aI0
aI0
aI0
aI0
aI0
asS'strng'
p80
S'825027249520040257202734483075425443409649493'
p81
sS'fullstring'
p82
S'8250272495200402572027344830754254434096494934222540025270590234255525257552340295206534'
p83
sS'strpos'
p84
I45
sS'spl'
p85
(lp86
g68
ag67
ag63
ag61
ag70
ag64
ag66
ag62
ag24
ag28
ag22
ag20
ag22
ag28
ag65
ag69
ag24
ag26
ag71
ag30
asS'ls'
p87
I44
sS'nextincr'
p88
I17
sS'wordsplit'
p89
I17
sS'naught'
p90
I0
sS'cscore'
p91
F5.322222222222223
sb.
(i__main__
annealpoint
p0
(dp1
S'ccode'
p2
(dp3
S'6494'
p4
S'l'
p5
sS'BGvSL'
p6
S'v'
p7
sS'kPQJa'
p8
S'q'
p9
sS'82'
p10
S'b'
p11
sS'254'
p12
S'c'
p13
sS'02'
p14
S'o'
p15
sS'27'
p16
S'n'
p17
sS'20'
p18
S'r'
p19
sS'04'
p20
S's'
p21
sS'44'
p22
S'm'
p23
sS'09'
p24
S'p'
p25
sS'42'
p26
S'h'
p27
sS'3'
p28
S'i'
p29
sS'2'
p30
S'g'
p31
sS'qCuWz'
p32
S'x'
p33
sS'075425'
p34
S't'
p35
sS'24'
p36
S'k'
p37
sS'448'
p38
S'w'
p39
sS'73'
p40
S'd'
p41
sS'93'
p42
S'y'
p43
sS'PkSSu'
p44
S'z'
p45
sS'95'
p46
S'e'
p47
sS'AuMck'
p48
S'j'
p49
sS'57'
p50
S'f'
p51
sS'50'
p52
S'u'
p53
sS'34'
p54
S'a'
p55
ssS'cset'
p56
c__builtin__
set
p57
((lp58
S'24'
p59
aS'02'
p60
aS'27'
p61
aS'20'
p62
aS'04'
p63
aS'6494'
p64
aS'57'
p65
aS'09'
p66
aS'42'
p67
aS'50'
p68
aS'34'
p69
ag28
ag30
aS'73'
p70
aS'448'
p71
aS'82'
p72
aS'075425'
p73
aS'93'
p74
aS'95'
p75
aS'44'
p76
ag12
atp77
Rp78
sS'annealevel'
p79
F52.30000000000047
sS'window'
p80
(lp81
I53
aI53
asS'newwordsplit'
p82
I18
sS'csplit'
p83
(lp84
I0
aI1
aI0
aI1
aI0
aI1
aI0
aI1
aI0
aI1
aI0
aI1
aI0
aI1
aI0
aI1
aI0
aI1
aI1
aI0
aI1
aI0
aI1
aI0
aI0
aI1
aI1
aI0
aI0
aI0
aI0
aI0
aI1
aI0
aI1
aI0
aI1
aI0
aI1
aI0
aI0
aI0
aI1
aI0
aI1
aI0
aI1
aI1
aI0
aI0
aI1
aI0
aI0
aI0
asS'strng'
p85
S'8250272495200402572027344830754254434096494934222540025'
p86
sS'fullstring'
p87
S'8250272495200402572027344830754254434096494934222540025270590234255525257552340295206534'
p88
sS'strpos'
p89
I55
sS'spl'
p90
(lp91
g72
ag68
ag61
ag59
ag75
ag62
ag63
ag60
ag65
ag30
aS'02'
p92
ag70
ag71
ag28
ag73
ag76
ag69
ag66
ag64
ag74
ag67
ag30
ag12
asS'ls'
p93
I54
sS'nextincr'
p94
I21
sS'wordsplit'
p95
I18
sS'naught'
p96
I0
sS'cscore'
p97
F5.4067901234567906
sb.
(i__main__
annealpoint
p0
(dp1
S'ccode'
p2
(dp3
S'6494'
p4
S'l'
p5
sS'BGvSL'
p6
S'w'
p7
sS'kPQJa'
p8
S'q'
p9
sS'82'
p10
S'b'
p11
sS'254'
p12
S'j'
p13
sS'02'
p14
S'o'
p15
sS'27'
p16
S'n'
p17
sS'20'
p18
S'r'
p19
sS'04'
p20
S's'
p21
sS'44'
p22
S'm'
p23
sS'09'
p24
S'p'
p25
sS'42'
p26
S'v'
p27
sS'3'
p28
S'i'
p29
sS'2'
p30
S'g'
p31
sS'qCuWz'
p32
S'z'
p33
sS'075425'
p34
S't'
p35
sS'24'
p36
S'k'
p37
sS'448'
p38
S'h'
p39
sS'73'
p40
S'd'
p41
sS'93'
p42
S'y'
p43
sS'PkSSu'
p44
S'x'
p45
sS'95'
p46
S'e'
p47
sS'AuMck'
p48
S'c'
p49
sS'57'
p50
S'f'
p51
sS'50'
p52
S'u'
p53
sS'34'
p54
S'a'
p55
ssS'cset'
p56
c__builtin__
set
p57
((lp58
S'24'
p59
aS'02'
p60
aS'27'
p61
aS'20'
p62
aS'04'
p63
aS'6494'
p64
aS'57'
p65
aS'09'
p66
aS'42'
p67
aS'50'
p68
aS'34'
p69
ag28
ag30
aS'73'
p70
aS'448'
p71
aS'82'
p72
aS'075425'
p73
aS'93'
p74
aS'95'
p75
aS'44'
p76
ag12
atp77
Rp78
sS'annealevel'
p79
F52.80000000000048
sS'window'
p80
(lp81
I53
aI53
asS'newwordsplit'
p82
I18
sS'csplit'
p83
(lp84
I0
aI1
aI0
aI1
aI0
aI1
aI0
aI1
aI0
aI1
aI0
aI1
aI0
aI1
aI0
aI1
aI0
aI1
aI1
aI0
aI1
aI0
aI1
aI0
aI0
aI1
aI1
aI0
aI0
aI0
aI0
aI0
aI1
aI0
aI1
aI0
aI1
aI0
aI1
aI0
aI0
aI0
aI1
aI0
aI1
aI0
aI1
aI1
aI0
aI0
aI1
aI0
aI0
aI0
asS'strng'
p85
S'8250272495200402572027344830754254434096494934222540025'
p86
sS'fullstring'
p87
S'8250272495200402572027344830754254434096494934222540025270590234255525257552340295206534'
p88
sS'strpos'
p89
I55
sS'spl'
p90
(lp91
g72
ag68
ag61
ag59
ag75
ag62
ag63
ag60
ag65
ag30
aS'02'
p92
ag70
ag71
ag28
ag73
ag76
ag69
ag66
ag64
ag74
ag67
ag30
ag12
asS'ls'
p93
I54
sS'nextincr'
p94
I21
sS'wordsplit'
p95
I18
sS'naught'
p96
I0
sS'cscore'
p97
F5.446913580246914
sb.
(i__main__
annealpoint
p0
(dp1
S'ccode'
p2
(dp3
S'6494'
p4
S'v'
p5
sS'BGvSL'
p6
S'j'
p7
sS'kPQJa'
p8
S'l'
p9
sS'82'
p10
S'b'
p11
sS'254'
p12
S'x'
p13
sS'02'
p14
S'o'
p15
sS'27'
p16
S'n'
p17
sS'20'
p18
S'r'
p19
sS'04'
p20
S's'
p21
sS'44'
p22
S'm'
p23
sS'09'
p24
S'y'
p25
sS'42'
p26
S'c'
p27
sS'3'
p28
S'i'
p29
sS'2'
p30
S'g'
p31
sS'qCuWz'
p32
S'z'
p33
sS'075425'
p34
S't'
p35
sS'24'
p36
S'k'
p37
sS'448'
p38
S'h'
p39
sS'73'
p40
S'd'
p41
sS'93'
p42
S'p'
p43
sS'PkSSu'
p44
S'w'
p45
sS'95'
p46
S'e'
p47
sS'AuMck'
p48
S'q'
p49
sS'57'
p50
S'f'
p51
sS'50'
p52
S'u'
p53
sS'34'
p54
S'a'
p55
ssS'cset'
p56
c__builtin__
set
p57
((lp58
S'24'
p59
aS'02'
p60
aS'27'
p61
aS'20'
p62
aS'04'
p63
aS'6494'
p64
aS'57'
p65
aS'09'
p66
aS'42'
p67
aS'50'
p68
aS'34'
p69
ag28
ag30
aS'73'
p70
aS'448'
p71
aS'82'
p72
aS'075425'
p73
aS'93'
p74
aS'95'
p75
aS'44'
p76
ag12
atp77
Rp78
sS'annealevel'
p79
F53.00000000000048
sS'window'
p80
(lp81
I53
aI53
asS'newwordsplit'
p82
I18
sS'csplit'
p83
(lp84
I0
aI1
aI0
aI1
aI0
aI1
aI0
aI1
aI0
aI1
aI0
aI1
aI0
aI1
aI0
aI1
aI0
aI1
aI1
aI0
aI1
aI0
aI1
aI0
aI0
aI1
aI1
aI0
aI0
aI0
aI0
aI0
aI1
aI0
aI1
aI0
aI1
aI0
aI1
aI0
aI0
aI0
aI1
aI0
aI1
aI0
aI1
aI1
aI0
aI0
aI1
aI0
aI0
aI0
asS'strng'
p85
S'8250272495200402572027344830754254434096494934222540025'
p86
sS'fullstring'
p87
S'8250272495200402572027344830754254434096494934222540025270590234255525257552340295206534'
p88
sS'strpos'
p89
I55
sS'spl'
p90
(lp91
g72
ag68
ag61
ag59
ag75
ag62
ag63
ag60
ag65
ag30
aS'02'
p92
ag70
ag71
ag28
ag73
ag76
ag69
ag66
ag64
ag74
ag67
ag30
ag12
asS'ls'
p93
I54
sS'nextincr'
p94
I21
sS'wordsplit'
p95
I18
sS'naught'
p96
I0
sS'cscore'
p97
F5.475485008818342
sb.
(i__main__
annealpoint
p0
(dp1
S'ccode'
p2
(dp3
S'09'
p4
S'm'
p5
sS'nURrQ'
p6
S'b'
p7
sS'bpGRA'
p8
S'c'
p9
sS'uSXGr'
p10
S'j'
p11
sS'82'
p12
S'w'
p13
sS'SXgHR'
p14
S'y'
p15
sS'24'
p16
S'e'
p17
sS'27'
p18
S'n'
p19
sS'20'
p20
S'h'
p21
sS'04'
p22
S'o'
p23
sS'WwqOw'
p24
S'x'
p25
sS'07542'
p26
S'g'
p27
sS'0'
p28
S'f'
p29
sS'3'
p30
S'u'
p31
sS'5'
p32
S'k'
p33
sS'544'
p34
S'q'
p35
sS'8'
p36
S'r'
p37
sS'27344'
p38
S't'
p39
sS'02'
p40
S'p'
p41
sS'MRIQs'
p42
S'z'
p43
sS'72'
p44
S'a'
p45
sS'95'
p46
S's'
p47
sS'50'
p48
S'i'
p49
sS'jeYzM'
p50
S'v'
p51
sS'34'
p52
S'd'
p53
sS'chCoy'
p54
S'l'
p55
ssS'tc'
p56
S'rareday'
p57
sS'cset'
p58
c__builtin__
set
p59
((lp60
S'24'
p61
aS'02'
p62
aS'27'
p63
aS'20'
p64
aS'04'
p65
aS'07542'
p66
aS'50'
p67
ag52
ag28
ag30
ag32
aS'72'
p68
ag34
aS'82'
p69
ag36
ag4
aS'95'
p70
aS'27344'
p71
atp72
Rp73
sS'annealevel'
p74
F18.799999999999997
sS'window'
p75
(lp76
I38
aI38
asS'newwordsplit'
p77
I11
sS'csplit'
p78
(lp79
I0
aI1
aI0
aI1
aI0
aI1
aI0
aI1
aI0
aI1
aI0
aI1
aI0
aI1
aI0
aI1
aI1
aI0
aI1
aI1
aI0
aI0
aI0
aI0
aI1
aI1
aI1
aI0
aI0
aI0
aI0
aI1
aI0
aI0
aI1
aI0
aI1
aI0
aI1
asS'strng'
p80
S'8250272495200402572027344830754254434096'
p81
sS'fullstring'
p82
S'8250272495200402572027344830754254434096494934222540025270590234255525257552340295206534'
p83
sS'strpos'
p84
I40
sS'spl'
p85
(lp86
g69
ag67
ag63
ag61
ag70
ag64
ag65
ag62
ag32
ag68
ag28
ag71
ag36
ag30
ag66
ag34
ag52
ag4
asS'ls'
p87
I39
sS'nextincr'
p88
I16
sS'wordsplit'
p89
I11
sS'naught'
p90
I0
sS'cscore'
p91
F5.9222222222222225
sb.
(i__main__
annealpoint
p0
(dp1
S'ccode'
p2
(dp3
S'09'
p4
S'y'
p5
sS'nURrQ'
p6
S'z'
p7
sS'bpGRA'
p8
S'q'
p9
sS'uSXGr'
p10
S'x'
p11
sS'82'
p12
S'w'
p13
sS'SXgHR'
p14
S'b'
p15
sS'24'
p16
S'e'
p17
sS'27'
p18
S'n'
p19
sS'20'
p20
S'h'
p21
sS'04'
p22
S'o'
p23
sS'WwqOw'
p24
S'm'
p25
sS'07542'
p26
S'g'
p27
sS'0'
p28
S'f'
p29
sS'3'
p30
S'u'
p31
sS'5'
p32
S'k'
p33
sS'544'
p34
S'c'
p35
sS'8'
p36
S'r'
p37
sS'27344'
p38
S't'
p39
sS'02'
p40
S'p'
p41
sS'MRIQs'
p42
S'v'
p43
sS'72'
p44
S'a'
p45
sS'95'
p46
S's'
p47
sS'50'
p48
S'i'
p49
sS'jeYzM'
p50
S'd'
p51
sS'34'
p52
S'l'
p53
sS'chCoy'
p54
S'j'
p55
ssS'tc'
p56
S'rareday'
p57
sS'cset'
p58
c__builtin__
set
p59
((lp60
S'24'
p61
aS'02'
p62
aS'27'
p63
aS'20'
p64
aS'04'
p65
aS'07542'
p66
aS'50'
p67
ag52
ag28
ag30
ag32
aS'72'
p68
ag34
aS'82'
p69
ag36
ag4
aS'95'
p70
aS'27344'
p71
atp72
Rp73
sS'annealevel'
p74
F19.1
sS'window'
p75
(lp76
I38
aI38
asS'newwordsplit'
p77
I11
sS'csplit'
p78
(lp79
I0
aI1
aI0
aI1
aI0
aI1
aI0
aI1
aI0
aI1
aI0
aI1
aI0
aI1
aI0
aI1
aI1
aI0
aI1
aI1
aI0
aI0
aI0
aI0
aI1
aI1
aI1
aI0
aI0
aI0
aI0
aI1
aI0
aI0
aI1
aI0
aI1
aI0
aI1
asS'strng'
p80
S'8250272495200402572027344830754254434096'
p81
sS'fullstring'
p82
S'8250272495200402572027344830754254434096494934222540025270590234255525257552340295206534'
p83
sS'strpos'
p84
I40
sS'spl'
p85
(lp86
g69
ag67
ag63
ag61
ag70
ag64
ag65
ag62
ag32
ag68
ag28
ag71
ag36
ag30
ag66
ag34
ag52
ag4
asS'ls'
p87
I39
sS'nextincr'
p88
I16
sS'wordsplit'
p89
I11
sS'naught'
p90
I0
sS'cscore'
p91
F5.95925925925926
sb.
(i__main__
annealpoint
p0
(dp1
S'ccode'
p2
(dp3
S'09'
p4
S'x'
p5
sS'nURrQ'
p6
S'z'
p7
sS'bpGRA'
p8
S'c'
p9
sS'uSXGr'
p10
S'y'
p11
sS'82'
p12
S'w'
p13
sS'SXgHR'
p14
S'g'
p15
sS'24'
p16
S'e'
p17
sS'27'
p18
S'n'
p19
sS'20'
p20
S'h'
p21
sS'04'
p22
S'o'
p23
sS'WwqOw'
p24
S'l'
p25
sS'07542'
p26
S'b'
p27
sS'0'
p28
S'f'
p29
sS'3'
p30
S'u'
p31
sS'5'
p32
S'd'
p33
sS'544'
p34
S'j'
p35
sS'8'
p36
S'r'
p37
sS'27344'
p38
S't'
p39
sS'02'
p40
S'p'
p41
sS'MRIQs'
p42
S'v'
p43
sS'72'
p44
S'a'
p45
sS'95'
p46
S's'
p47
sS'50'
p48
S'i'
p49
sS'jeYzM'
p50
S'm'
p51
sS'34'
p52
S'q'
p53
sS'chCoy'
p54
S'k'
p55
ssS'tc'
p56
S'rareday'
p57
sS'cset'
p58
c__builtin__
set
p59
((lp60
S'24'
p61
aS'02'
p62
aS'27'
p63
aS'20'
p64
aS'04'
p65
aS'07542'
p66
aS'50'
p67
ag52
ag28
ag30
ag32
aS'72'
p68
ag34
aS'82'
p69
ag36
ag4
aS'95'
p70
aS'27344'
p71
atp72
Rp73
sS'annealevel'
p74
F19.300000000000004
sS'window'
p75
(lp76
I38
aI38
asS'newwordsplit'
p77
I15
sS'csplit'
p78
(lp79
I0
aI1
aI0
aI1
aI0
aI1
aI0
aI1
aI0
aI1
aI0
aI1
aI0
aI1
aI0
aI1
aI1
aI0
aI1
aI1
aI0
aI0
aI0
aI0
aI1
aI1
aI1
aI0
aI0
aI0
aI0
aI1
aI0
aI0
aI1
aI0
aI1
aI0
aI1
asS'strng'
p80
S'8250272495200402572027344830754254434096'
p81
sS'fullstring'
p82
S'8250272495200402572027344830754254434096494934222540025270590234255525257552340295206534'
p83
sS'strpos'
p84
I40
sS'spl'
p85
(lp86
g69
ag67
ag63
ag61
ag70
ag64
ag65
ag62
ag32
ag68
ag28
ag71
ag36
ag30
ag66
ag34
ag52
ag4
asS'ls'
p87
I39
sS'nextincr'
p88
I16
sS'wordsplit'
p89
I15
sS'naught'
p90
I0
sS'cscore'
p91
F6.322222222222223
sb.
(i__main__
annealpoint
p0
(dp1
S'ccode'
p2
(dp3
S'09'
p4
S'l'
p5
sS'nURrQ'
p6
S'j'
p7
sS'bpGRA'
p8
S'm'
p9
sS'uSXGr'
p10
S'v'
p11
sS'82'
p12
S'w'
p13
sS'SXgHR'
p14
S'c'
p15
sS'24'
p16
S'e'
p17
sS'27'
p18
S'n'
p19
sS'20'
p20
S'h'
p21
sS'04'
p22
S'o'
p23
sS'WwqOw'
p24
S'q'
p25
sS'07542'
p26
S'b'
p27
sS'0'
p28
S'f'
p29
sS'3'
p30
S'u'
p31
sS'5'
p32
S'd'
p33
sS'544'
p34
S'y'
p35
sS'8'
p36
S'r'
p37
sS'27344'
p38
S't'
p39
sS'02'
p40
S'p'
p41
sS'MRIQs'
p42
S'x'
p43
sS'72'
p44
S'a'
p45
sS'95'
p46
S's'
p47
sS'50'
p48
S'i'
p49
sS'jeYzM'
p50
S'z'
p51
sS'34'
p52
S'k'
p53
sS'chCoy'
p54
S'g'
p55
ssS'tc'
p56
S'rareday'
p57
sS'cset'
p58
c__builtin__
set
p59
((lp60
S'24'
p61
aS'02'
p62
aS'27'
p63
aS'20'
p64
aS'04'
p65
aS'07542'
p66
aS'50'
p67
ag52
ag28
ag30
ag32
aS'72'
p68
ag34
aS'82'
p69
ag36
ag4
aS'95'
p70
aS'27344'
p71
atp72
Rp73
sS'annealevel'
p74
F19.400000000000006
sS'window'
p75
(lp76
I38
aI38
asS'newwordsplit'
p77
I16
sS'csplit'
p78
(lp79
I0
aI1
aI0
aI1
aI0
aI1
aI0
aI1
aI0
aI1
aI0
aI1
aI0
aI1
aI0
aI1
aI1
aI0
aI1
aI1
aI0
aI0
aI0
aI0
aI1
aI1
aI1
aI0
aI0
aI0
aI0
aI1
aI0
aI0
aI1
aI0
aI1
aI0
aI1
asS'strng'
p80
S'8250272495200402572027344830754254434096'
p81
sS'fullstring'
p82
S'8250272495200402572027344830754254434096494934222540025270590234255525257552340295206534'
p83
sS'strpos'
p84
I40
sS'spl'
p85
(lp86
g69
ag67
ag63
ag61
ag70
ag64
ag65
ag62
ag32
ag68
ag28
ag71
ag36
ag30
ag66
ag34
ag52
ag4
asS'ls'
p87
I39
sS'nextincr'
p88
I16
sS'wordsplit'
p89
I16
sS'naught'
p90
I0
sS'cscore'
p91
F6.45925925925926
sb.
(i__main__
annealpoint
p0
(dp1
S'ccode'
p2
(dp3
S'09'
p4
S'v'
p5
sS'82'
p6
S'w'
p7
sS'VGmvh'
p8
S'x'
p9
sS'UsWqc'
p10
S'z'
p11
sS'24'
p12
S'e'
p13
sS'27'
p14
S'n'
p15
sS'20'
p16
S'h'
p17
sS'04'
p18
S'o'
p19
sS'ZSQMp'
p20
S'q'
p21
sS'07542'
p22
S'b'
p23
sS'0'
p24
S'f'
p25
sS'3'
p26
S'u'
p27
sS'5'
p28
S'd'
p29
sS'4'
p30
S'g'
p31
sS'544'
p32
S'y'
p33
sS'6'
p34
S'c'
p35
sS'8'
p36
S'r'
p37
sS'27344'
p38
S't'
p39
sS'nvVGS'
p40
S'k'
p41
sS'02'
p42
S'p'
p43
sS'72'
p44
S'a'
p45
sS'95'
p46
S's'
p47
sS'Gdqor'
p48
S'l'
p49
sS'50'
p50
S'i'
p51
sS'34'
p52
S'm'
p53
sS'YHntq'
p54
S'j'
p55
ssS'tc'
p56
S'rareday'
p57
sS'cset'
p58
c__builtin__
set
p59
((lp60
S'24'
p61
aS'02'
p62
aS'27'
p63
aS'20'
p64
aS'04'
p65
aS'07542'
p66
aS'50'
p67
aS'34'
p68
ag24
ag26
ag28
aS'72'
p69
aS'544'
p70
ag34
aS'82'
p71
ag36
aS'09'
p72
aS'95'
p73
aS'27344'
p74
ag30
atp75
Rp76
sS'annealevel'
p77
F19.500000000000007
sS'window'
p78
(lp79
I43
aI43
asS'newwordsplit'
p80
I17
sS'csplit'
p81
(lp82
I0
aI1
aI0
aI1
aI0
aI1
aI0
aI1
aI0
aI1
aI0
aI1
aI0
aI1
aI0
aI1
aI1
aI0
aI1
aI1
aI0
aI0
aI0
aI0
aI1
aI1
aI1
aI0
aI0
aI0
aI0
aI1
aI0
aI0
aI1
aI0
aI1
aI0
aI1
aI1
aI1
aI0
aI0
aI0
asS'strng'
p83
S'825027249520040257202734483075425443409649493'
p84
sS'fullstring'
p85
S'8250272495200402572027344830754254434096494934222540025270590234255525257552340295206534'
p86
sS'strpos'
p87
I45
sS'spl'
p88
(lp89
g71
ag67
ag63
ag61
ag73
ag64
ag65
ag62
ag28
ag69
ag24
ag74
ag36
ag26
ag66
ag70
ag68
ag72
ag34
ag30
asS'ls'
p90
I44
sS'nextincr'
p91
I17
sS'wordsplit'
p92
I17
sS'naught'
p93
I0
sS'cscore'
p94
F6.503703703703705
sb.
(i__main__
annealpoint
p0
(dp1
S'ccode'
p2
(dp3
S'82'
p4
S'm'
p5
sS'24'
p6
S'k'
p7
sS'27'
p8
S'r'
p9
sS'20'
p10
S'n'
p11
sS'07'
p12
S'y'
p13
sS'04'
p14
S'g'
p15
sS'42'
p16
S'h'
p17
sS'TTXoE'
p18
S'x'
p19
sS'344'
p20
S'o'
p21
sS'0'
p22
S'l'
p23
sS'3'
p24
S'b'
p25
sS'5'
p26
S't'
p27
sS'4'
p28
S'd'
p29
sS'WMsGa'
p30
S'z'
p31
sS'9'
p32
S'v'
p33
sS'8'
p34
S'w'
p35
sS'02'
p36
S's'
p37
sS'hsPhx'
p38
S'q'
p39
sS'NadML'
p40
S'j'
p41
sS'yxZgu'
p42
S'f'
p43
sS'95'
p44
S'i'
p45
sS'54'
p46
S'e'
p47
sS'57'
p48
S'u'
p49
sS'50'
p50
S'a'
p51
sS'34'
p52
S'p'
p53
sS'sSNVG'
p54
S'c'
p55
ssS'tc'
p56
S'rareday'
p57
sS'cset'
p58
c__builtin__
set
p59
((lp60
S'24'
p61
aS'02'
p62
ag32
aS'27'
p63
aS'20'
p64
aS'07'
p65
aS'04'
p66
aS'54'
p67
aS'57'
p68
aS'42'
p69
aS'50'
p70
ag52
aS'344'
p71
ag22
ag24
ag26
ag28
aS'82'
p72
ag34
aS'95'
p73
atp74
Rp75
sS'annealevel'
p76
F54.1000000000005
sS'window'
p77
(lp78
I38
aI38
asS'newwordsplit'
p79
I18
sS'csplit'
p80
(lp81
I0
aI1
aI0
aI1
aI0
aI1
aI0
aI1
aI0
aI1
aI0
aI1
aI0
aI1
aI0
aI1
aI0
aI1
aI0
aI1
aI0
aI1
aI0
aI0
aI1
aI1
aI1
aI0
aI1
aI1
aI0
aI1
aI0
aI1
aI1
aI0
aI1
aI1
aI1
asS'strng'
p82
S'8250272495200402572027344830754254434096'
p83
sS'fullstring'
p84
S'8250272495200402572027344830754254434096494934222540025270590234255525257552340295206534'
p85
sS'strpos'
p86
I40
sS'spl'
p87
(lp88
g72
ag70
ag63
ag61
ag73
ag64
ag66
ag62
ag68
aS'20'
p89
aS'27'
p90
ag71
ag34
ag24
ag65
ag26
ag69
ag67
ag28
ag52
ag22
ag32
asS'ls'
p91
I39
sS'nextincr'
p92
I17
sS'wordsplit'
p93
I18
sS'naught'
p94
I0
sS'cscore'
p95
F6.606790123456791
sb.
(i__main__
annealpoint
p0
(dp1
S'ccode'
p2
(dp3
S'075'
p4
S'e'
p5
sS'82'
p6
S'c'
p7
sS'02'
p8
S'g'
p9
sS'27'
p10
S'a'
p11
sS'20'
p12
S'i'
p13
sS'04'
p14
S'n'
p15
sS'49'
p16
S'm'
p17
sS'GUdRc'
p18
S'z'
p19
sS'42'
p20
S'k'
p21
sS'0'
p22
S'w'
p23
sS'3'
p24
S't'
p25
sS'2'
p26
S'b'
p27
sS'5'
p28
S'u'
p29
sS'4'
p30
S'r'
p31
sS'9'
p32
S'v'
p33
sS'24'
p34
S's'
p35
sS'SVLpP'
p36
S'd'
p37
sS'34483'
p38
S'y'
p39
sS'zXRTP'
p40
S'j'
p41
sS'95'
p42
S'h'
p43
sS'guUZY'
p44
S'q'
p45
sS'50'
p46
S'l'
p47
sS'34'
p48
S'o'
p49
sS'649'
p50
S'f'
p51
sS'UjFhr'
p52
S'x'
p53
sS'72'
p54
S'p'
p55
ssS'cset'
p56
c__builtin__
set
p57
((lp58
S'24'
p59
aS'02'
p60
ag32
aS'27'
p61
aS'20'
p62
aS'04'
p63
ag30
aS'49'
p64
ag20
aS'50'
p65
aS'34'
p66
ag22
ag24
aS'075'
p67
ag28
aS'72'
p68
aS'82'
p69
ag26
aS'95'
p70
aS'649'
p71
aS'34483'
p72
atp73
Rp74
sS'annealevel'
p75
F56.90000000000054
sS'window'
p76
(lp77
I48
aI48
asS'newwordsplit'
p78
I21
sS'csplit'
p79
(lp80
I0
aI1
aI0
aI1
aI0
aI1
aI0
aI1
aI0
aI1
aI0
aI1
aI0
aI1
aI0
aI1
aI1
aI0
aI1
aI1
aI0
aI1
aI0
aI0
aI0
aI0
aI1
aI0
aI0
aI1
aI1
aI1
aI1
aI1
aI1
aI0
aI1
aI1
aI1
aI0
aI0
aI1
aI0
aI1
aI1
aI0
aI1
aI1
aI1
asS'strng'
p81
S'82502724952004025720273448307542544340964949342225'
p82
sS'fullstring'
p83
S'8250272495200402572027344830754254434096494934222540025270590234255525257552340295206534'
p84
sS'strpos'
p85
I50
sS'spl'
p86
(lp87
g69
ag65
ag61
ag59
ag70
ag62
ag63
ag60
ag28
ag68
ag22
aS'27'
p88
ag72
ag67
ag30
ag26
ag28
ag30
ag30
ag66
ag22
ag32
ag71
ag64
ag24
ag20
ag26
ag26
asS'ls'
p89
I49
sS'nextincr'
p90
I21
sS'wordsplit'
p91
I21
sS'naught'
p92
I0
sS'cscore'
p93
F6.971604938271605
sb.
(i__main__
annealpoint
p0
(dp1
S'ccode'
p2
(dp3
S'075'
p4
S'e'
p5
sS'mFbdY'
p6
S'q'
p7
sS'82'
p8
S'c'
p9
sS'02'
p10
S'g'
p11
sS'27'
p12
S'a'
p13
sS'20'
p14
S'i'
p15
sS'04'
p16
S'n'
p17
sS'49'
p18
S'f'
p19
sS'42'
p20
S'd'
p21
sS'40'
p22
S'k'
p23
sS'0'
p24
S'w'
p25
sS'3'
p26
S'y'
p27
sS'2'
p28
S'b'
p29
sS'5'
p30
S'u'
p31
sS'4'
p32
S'r'
p33
sS'9'
p34
S'v'
p35
sS'24'
p36
S's'
p37
sS'sRpmW'
p38
S'j'
p39
sS'72'
p40
S'p'
p41
sS'95'
p42
S'h'
p43
sS'tvfHd'
p44
S'z'
p45
sS'DxNLC'
p46
S'x'
p47
sS'50'
p48
S'l'
p49
sS'34'
p50
S'o'
p51
sS'649'
p52
S'm'
p53
sS'34483'
p54
S't'
p55
ssS'cset'
p56
c__builtin__
set
p57
((lp58
S'075'
p59
aS'82'
p60
aS'24'
p61
aS'27'
p62
aS'20'
p63
aS'04'
p64
aS'49'
p65
aS'42'
p66
ag22
ag24
ag26
ag28
ag30
ag32
ag34
aS'02'
p67
aS'72'
p68
aS'95'
p69
aS'50'
p70
aS'34'
p71
aS'649'
p72
aS'34483'
p73
atp74
Rp75
sS'annealevel'
p76
F57.00000000000054
sS'window'
p77
(lp78
I53
aI53
asS'newwordsplit'
p79
I21
sS'csplit'
p80
(lp81
I0
aI1
aI0
aI1
aI0
aI1
aI0
aI1
aI0
aI1
aI0
aI1
aI0
aI1
aI0
aI1
aI1
aI0
aI1
aI1
aI0
aI1
aI0
aI0
aI0
aI0
aI1
aI0
aI0
aI1
aI1
aI1
aI1
aI1
aI1
aI0
aI1
aI1
aI1
aI0
aI0
aI1
aI0
aI1
aI1
aI0
aI1
aI1
aI1
aI1
aI0
aI1
aI0
aI0
asS'strng'
p82
S'8250272495200402572027344830754254434096494934222540025'
p83
sS'fullstring'
p84
S'8250272495200402572027344830754254434096494934222540025270590234255525257552340295206534'
p85
sS'strpos'
p86
I55
sS'spl'
p87
(lp88
g60
ag70
ag62
ag61
ag69
ag63
ag64
ag67
ag30
ag68
ag24
aS'27'
p89
ag73
ag59
ag32
ag28
ag30
ag32
ag32
ag71
ag24
ag34
ag72
ag65
ag26
ag66
ag28
ag28
ag30
ag22
asS'ls'
p90
I54
sS'nextincr'
p91
I22
sS'wordsplit'
p92
I21
sS'naught'
p93
I0
sS'cscore'
p94
F6.987918871252205
sb.
(i__main__
annealpoint
p0
(dp1
S'ccode'
p2
(dp3
S'075'
p4
S'e'
p5
sS'mFbdY'
p6
S'j'
p7
sS'82'
p8
S'c'
p9
sS'02'
p10
S'g'
p11
sS'27'
p12
S'a'
p13
sS'20'
p14
S'i'
p15
sS'04'
p16
S'n'
p17
sS'49'
p18
S'v'
p19
sS'42'
p20
S'f'
p21
sS'40'
p22
S'q'
p23
sS'0'
p24
S'w'
p25
sS'3'
p26
S'x'
p27
sS'2'
p28
S'b'
p29
sS'5'
p30
S'u'
p31
sS'4'
p32
S'r'
p33
sS'9'
p34
S'y'
p35
sS'24'
p36
S's'
p37
sS'sRpmW'
p38
S'k'
p39
sS'72'
p40
S'p'
p41
sS'95'
p42
S'h'
p43
sS'tvfHd'
p44
S'd'
p45
sS'DxNLC'
p46
S'z'
p47
sS'50'
p48
S'l'
p49
sS'34'
p50
S'o'
p51
sS'649'
p52
S'm'
p53
sS'34483'
p54
S't'
p55
ssS'cset'
p56
c__builtin__
set
p57
((lp58
S'075'
p59
aS'82'
p60
aS'24'
p61
aS'27'
p62
aS'20'
p63
aS'04'
p64
aS'49'
p65
aS'42'
p66
ag22
ag24
ag26
ag28
ag30
ag32
ag34
aS'02'
p67
aS'72'
p68
aS'95'
p69
aS'50'
p70
aS'34'
p71
aS'649'
p72
aS'34483'
p73
atp74
Rp75
sS'annealevel'
p76
F57.90000000000055
sS'window'
p77
(lp78
I53
aI53
asS'newwordsplit'
p79
I23
sS'csplit'
p80
(lp81
I0
aI1
aI0
aI1
aI0
aI1
aI0
aI1
aI0
aI1
aI0
aI1
aI0
aI1
aI0
aI1
aI1
aI0
aI1
aI1
aI0
aI1
aI0
aI0
aI0
aI0
aI1
aI0
aI0
aI1
aI1
aI1
aI1
aI1
aI1
aI0
aI1
aI1
aI1
aI0
aI0
aI1
aI0
aI1
aI1
aI0
aI1
aI1
aI1
aI1
aI0
aI1
aI0
aI0
asS'strng'
p82
S'8250272495200402572027344830754254434096494934222540025'
p83
sS'fullstring'
p84
S'8250272495200402572027344830754254434096494934222540025270590234255525257552340295206534'
p85
sS'strpos'
p86
I55
sS'spl'
p87
(lp88
g60
ag70
ag62
ag61
ag69
ag63
ag64
ag67
ag30
ag68
ag24
aS'27'
p89
ag73
ag59
ag32
ag28
ag30
ag32
ag32
ag71
ag24
ag34
ag72
ag65
ag26
ag66
ag28
ag28
ag30
ag22
asS'ls'
p90
I54
sS'nextincr'
p91
I22
sS'wordsplit'
p92
I23
sS'naught'
p93
I0
sS'cscore'
p94
F7.17557319223986
sb.
