(i__main__
annealpoint
p0
(dp1
S'ccode'
p2
(dp3
S'wwBhV'
p4
S'h'
p5
sS'OSfrn'
p6
S't'
p7
sS'24'
p8
S'e'
p9
sS'BzJWa'
p10
S'c'
p11
sS'20'
p12
S'm'
p13
sS'40'
p14
S'u'
p15
sS'1'
p16
S'a'
p17
sS'0'
p18
S'd'
p19
sS'3'
p20
S's'
p21
sS'2'
p22
S'l'
p23
sS'5'
p24
S'k'
p25
sS'4'
p26
S'i'
p27
sS'7'
p28
S'w'
p29
sS'9'
p30
S'x'
p31
sS'8'
p32
S'v'
p33
sS'pbhgS'
p34
S'p'
p35
sS'VsXnc'
p36
S'n'
p37
sS'OQtSq'
p38
S'g'
p39
sS'LRKdJ'
p40
S'z'
p41
sS'NhnnS'
p42
S'j'
p43
sS'11'
p44
S'q'
p45
sS'zkgew'
p46
S'b'
p47
sS'31'
p48
S'o'
p49
sS'GYCva'
p50
S'y'
p51
sS'34'
p52
S'r'
p53
sS'124'
p54
S'f'
p55
ssS'cset'
p56
c__builtin__
set
p57
((lp58
g44
ag8
ag12
ag14
ag48
ag54
ag52
ag16
ag18
ag20
ag22
ag24
ag26
ag28
ag30
ag32
atp59
Rp60
sS'annealevel'
p61
F0.1
sS'strng'
p62
(lp63
g16
ag32
ag24
ag18
ag16
ag22
ag16
ag26
ag16
ag16
ag16
ag16
ag16
ag16
ag16
ag22
ag24
ag16
ag16
ag22
ag18
ag16
ag22
ag28
ag20
ag26
ag20
ag16
ag18
ag16
ag16
ag22
ag26
ag26
ag26
ag18
ag16
ag16
ag30
ag26
ag20
ag16
ag16
ag22
ag26
ag18
ag18
ag22
ag16
ag28
ag18
ag24
ag30
ag18
ag16
ag22
ag26
ag22
ag24
ag16
ag22
ag16
ag16
ag28
ag24
ag16
ag22
ag26
ag18
ag16
ag22
ag16
ag16
ag16
aS'6'
p64
ag24
ag26
asS'csplit'
p65
(lp66
I0
aI1
aI0
aI1
aI0
aI1
aI0
aI1
aI0
aI1
aI0
aI1
aI0
aI1
aI0
aI1
aI1
aI1
aI1
aI0
aI1
aI1
aI1
aI1
aI0
aI1
aI0
aI1
aI1
aI1
aI0
aI0
aI1
aI1
aI0
aI1
aI1
aI1
aI1
aI1
aI1
aI1
aI1
aI0
aI1
aI1
aI1
aI1
aI1
aI1
aI1
aI1
aI1
aI1
aI1
aI1
aI1
aI1
aI1
aI1
aI1
aI1
aI1
aI1
aI1
aI1
aI1
aI1
aI1
aI1
aI1
aI1
aI1
aI1
aI0
aI0
asS'spl'
p67
(lp68
g16
ag32
ag24
ag18
ag16
ag22
ag16
ag26
ag16
ag16
ag44
ag16
ag16
ag16
ag22
ag24
ag16
ag16
ag12
ag16
ag22
ag28
ag52
ag48
ag18
ag16
ag54
ag26
ag14
ag16
ag16
ag30
ag26
ag20
ag16
ag16
ag8
ag18
ag18
ag22
ag16
ag28
ag18
ag24
ag30
ag18
ag16
ag22
ag26
ag22
ag24
ag16
ag22
ag16
ag16
ag28
ag24
ag16
ag22
ag26
ag18
ag16
ag22
ag16
ag16
ag16
asS'ls'
p69
I76
sS'cscore'
p70
F0.3138787138787138
sb.
(i__main__
annealpoint
p0
(dp1
S'ccode'
p2
(dp3
S'NIWKY'
p4
S'w'
p5
sS'ggPNo'
p6
S'm'
p7
sS'01'
p8
S'g'
p9
sS'20'
p10
S'b'
p11
sS'21'
p12
S'l'
p13
sS'40'
p14
S'v'
p15
sS'1'
p16
S'e'
p17
sS'0'
p18
S'd'
p19
sS'3'
p20
S't'
p21
sS'2'
p22
S's'
p23
sS'5'
p24
S'n'
p25
sS'4'
p26
S'k'
p27
sS'7'
p28
S'i'
p29
sS'6'
p30
S'j'
p31
sS'9'
p32
S'o'
p33
sS'8'
p34
S'f'
p35
sS'Nirrv'
p36
S'c'
p37
sS'pyloD'
p38
S'q'
p39
sS'fzDXa'
p40
S'y'
p41
sS'xEogH'
p42
S'a'
p43
sS'umQUT'
p44
S'p'
p45
sS'73'
p46
S'z'
p47
sS'11'
p48
S'h'
p49
sS'51'
p50
S'x'
p51
sS'TegNj'
p52
S'u'
p53
sS'sYnsT'
p54
S'r'
p55
ssS'cset'
p56
c__builtin__
set
p57
((lp58
g48
ag8
ag10
ag12
ag50
ag14
ag16
ag18
ag20
ag22
ag24
ag26
ag28
ag30
ag32
ag34
ag46
atp59
Rp60
sS'annealevel'
p61
F0.6
sS'strng'
p62
(lp63
g16
ag34
ag24
ag18
ag16
ag22
ag16
ag26
ag16
ag16
ag16
ag16
ag16
ag16
ag16
ag22
ag24
ag16
ag16
ag22
ag18
ag16
ag22
ag28
ag20
ag26
ag20
ag16
ag18
ag16
ag16
ag22
ag26
ag26
ag26
ag18
ag16
ag16
ag32
ag26
ag20
ag16
ag16
ag22
ag26
ag18
ag18
ag22
ag16
ag28
ag18
ag24
ag32
ag18
ag16
ag22
ag26
ag22
ag24
ag16
ag22
ag16
ag16
ag28
ag24
ag16
ag22
ag26
ag18
ag16
ag22
ag16
ag16
ag16
ag30
ag24
ag26
asS'csplit'
p64
(lp65
I0
aI1
aI0
aI1
aI0
aI1
aI0
aI1
aI0
aI1
aI0
aI1
aI0
aI1
aI0
aI1
aI1
aI1
aI1
aI0
aI1
aI1
aI1
aI0
aI1
aI1
aI1
aI1
aI0
aI1
aI1
aI1
aI1
aI1
aI1
aI1
aI0
aI1
aI1
aI1
aI1
aI1
aI1
aI1
aI0
aI1
aI1
aI0
aI1
aI1
aI1
aI1
aI1
aI1
aI1
aI1
aI1
aI1
aI0
aI1
aI1
aI1
aI1
aI1
aI1
aI1
aI1
aI1
aI1
aI1
aI1
aI1
aI1
aI1
aI1
aI1
asS'spl'
p66
(lp67
g16
ag34
ag24
ag18
ag16
ag12
ag26
ag16
ag16
ag48
ag16
ag16
ag16
ag22
ag24
ag16
ag16
ag10
ag16
ag22
ag46
ag26
ag20
ag16
ag8
ag16
ag22
ag26
ag26
ag26
ag18
aS'11'
p68
ag32
ag26
ag20
ag16
ag16
ag22
ag14
ag18
aS'21'
p69
ag28
ag18
ag24
ag32
ag18
ag16
ag22
ag26
ag22
ag50
ag22
ag16
ag16
ag28
ag24
ag16
ag22
ag26
ag18
ag16
ag22
ag16
ag16
ag16
ag30
ag24
asS'ls'
p70
I76
sS'cscore'
p71
F0.3236208236208235
sb.
(i__main__
annealpoint
p0
(dp1
S'ccode'
p2
(dp3
S'65'
p4
S'y'
p5
sS'24'
p6
S'f'
p7
sS'00'
p8
S'w'
p9
sS'44'
p10
S'u'
p11
sS'94'
p12
S'x'
p13
sS'1'
p14
S'e'
p15
sS'0'
p16
S'i'
p17
sS'3'
p18
S'c'
p19
sS'2'
p20
S'd'
p21
sS'5'
p22
S'l'
p23
sS'xCdcT'
p24
S's'
p25
sS'7'
p26
S'k'
p27
sS'9'
p28
S't'
p29
sS'8'
p30
S'v'
p31
sS'4'
p32
S'r'
p33
sS'VfXpF'
p34
S'z'
p35
sS'cDujE'
p36
S'a'
p37
sS'amtSM'
p38
S'q'
p39
sS'SqPMg'
p40
S'g'
p41
sS'11'
p42
S'j'
p43
sS'mHbVP'
p44
S'o'
p45
sS'51'
p46
S'h'
p47
sS'50'
p48
S'b'
p49
sS'uZjtd'
p50
S'n'
p51
sS'MZkoA'
p52
S'p'
p53
sS'ZwiPx'
p54
S'm'
p55
ssS'cset'
p56
c__builtin__
set
p57
((lp58
g42
ag6
ag8
ag10
ag46
ag48
ag14
ag16
ag18
ag20
ag22
ag32
ag26
ag28
ag30
ag12
ag4
atp59
Rp60
sS'annealevel'
p61
F0.9999999999999999
sS'strng'
p62
(lp63
g14
ag30
ag22
ag16
ag14
ag20
ag14
ag32
ag14
ag14
ag14
ag14
ag14
ag14
ag14
ag20
ag22
ag14
ag14
ag20
ag16
ag14
ag20
ag26
ag18
ag32
ag18
ag14
ag16
ag14
ag14
ag20
ag32
ag32
ag32
ag16
ag14
ag14
ag28
ag32
ag18
ag14
ag14
ag20
ag32
ag16
ag16
ag20
ag14
ag26
ag16
ag22
ag28
ag16
ag14
ag20
ag32
ag20
ag22
ag14
ag20
ag14
ag14
ag26
ag22
ag14
ag20
ag32
ag16
ag14
ag20
ag14
ag14
ag14
aS'6'
p64
ag22
ag32
asS'csplit'
p65
(lp66
I0
aI1
aI0
aI1
aI0
aI1
aI0
aI1
aI0
aI1
aI0
aI1
aI0
aI1
aI0
aI1
aI0
aI1
aI1
aI1
aI1
aI1
aI1
aI1
aI1
aI1
aI1
aI1
aI1
aI1
aI1
aI1
aI0
aI1
aI1
aI1
aI1
aI1
aI0
aI1
aI1
aI1
aI1
aI1
aI1
aI0
aI1
aI1
aI1
aI1
aI1
aI1
aI1
aI1
aI1
aI0
aI1
aI1
aI1
aI1
aI1
aI1
aI1
aI1
aI1
aI1
aI1
aI1
aI1
aI1
aI1
aI1
aI1
aI1
aI0
aI1
asS'spl'
p67
(lp68
g14
ag30
ag48
ag14
ag20
ag14
ag32
ag42
aS'11'
p69
ag14
ag14
ag14
ag20
ag46
ag14
ag20
ag16
ag14
ag20
ag26
ag18
ag32
ag18
ag14
ag16
ag14
ag14
ag20
ag10
ag32
ag16
ag14
ag14
ag12
ag18
ag14
ag14
ag20
ag32
ag8
ag20
ag14
ag26
ag16
ag22
ag28
ag16
ag14
ag6
ag20
ag22
ag14
ag20
ag14
ag14
ag26
ag22
ag14
ag20
ag32
ag16
ag14
ag20
ag14
ag14
ag14
ag4
asS'ls'
p70
I76
sS'cscore'
p71
F0.3352499352499352
sb.
(i__main__
annealpoint
p0
(dp1
S'ccode'
p2
(dp3
S'vYmyC'
p4
S'y'
p5
sS'Oitfn'
p6
S'v'
p7
sS'SZaCE'
p8
S'r'
p9
sS'wXvWc'
p10
S'a'
p11
sS'21'
p12
S'z'
p13
sS'xsrIO'
p14
S'q'
p15
sS'1'
p16
S'i'
p17
sS'0'
p18
S'e'
p19
sS'3'
p20
S'w'
p21
sS'2'
p22
S'c'
p23
sS'5'
p24
S'g'
p25
sS'4'
p26
S'l'
p27
sS'7'
p28
S'n'
p29
sS'6'
p30
S'm'
p31
sS'9'
p32
S'o'
p33
sS'8'
p34
S'p'
p35
sS'jJSCC'
p36
S'u'
p37
sS'eogKs'
p38
S'k'
p39
sS'124'
p40
S't'
p41
sS'90'
p42
S'd'
p43
sS'nrNcl'
p44
S'x'
p45
sS'yQZwX'
p46
S'j'
p47
sS'11'
p48
S'b'
p49
sS'31'
p50
S'f'
p51
sS'50'
p52
S'h'
p53
sS'AbVYe'
p54
S's'
p55
ssS'cset'
p56
c__builtin__
set
p57
((lp58
g48
ag12
ag50
ag30
ag52
ag40
ag16
ag18
ag20
ag22
ag24
ag26
ag28
ag42
ag32
ag34
atp59
Rp60
sS'annealevel'
p61
F0.1
sS'strng'
p62
(lp63
g16
ag34
ag24
ag18
ag16
ag22
ag16
ag26
ag16
ag16
ag16
ag16
ag16
ag16
ag16
ag22
ag24
ag16
ag16
ag22
ag18
ag16
ag22
ag28
ag20
ag26
ag20
ag16
ag18
ag16
ag16
ag22
ag26
ag26
ag26
ag18
ag16
ag16
ag32
ag26
ag20
ag16
ag16
ag22
ag26
ag18
ag18
ag22
ag16
ag28
ag18
ag24
ag32
ag18
ag16
ag22
ag26
ag22
ag24
ag16
ag22
ag16
ag16
ag28
ag24
ag16
ag22
ag26
ag18
ag16
ag22
ag16
ag16
ag16
ag30
ag24
ag26
asS'csplit'
p64
(lp65
I0
aI1
aI0
aI1
aI0
aI1
aI0
aI1
aI0
aI1
aI0
aI1
aI0
aI1
aI0
aI1
aI1
aI1
aI1
aI1
aI1
aI1
aI1
aI1
aI1
aI1
aI0
aI1
aI1
aI1
aI1
aI1
aI1
aI1
aI1
aI1
aI0
aI1
aI1
aI1
aI1
aI1
aI0
aI0
aI1
aI1
aI1
aI1
aI1
aI1
aI1
aI1
aI0
aI1
aI1
aI1
aI1
aI1
aI1
aI1
aI1
aI1
aI1
aI1
aI1
aI1
aI1
aI1
aI1
aI1
aI0
aI1
aI1
aI1
aI1
aI1
asS'spl'
p66
(lp67
g16
ag34
ag52
ag16
ag22
ag16
ag26
ag16
ag16
ag16
ag16
ag16
ag48
ag22
ag24
ag16
ag16
ag22
ag18
ag16
ag22
ag28
ag20
ag26
ag50
ag18
ag16
ag16
ag22
ag26
ag26
ag26
ag18
aS'11'
p68
ag32
ag26
ag20
ag16
ag40
ag18
ag18
ag22
ag16
ag28
ag18
ag24
ag42
ag16
ag22
ag26
ag22
ag24
ag16
ag22
ag16
ag16
ag28
ag24
ag16
ag22
ag26
ag18
ag16
ag12
ag16
ag16
ag30
ag24
asS'ls'
p69
I76
sS'cscore'
p70
F0.268039368039368
sb.
(i__main__
annealpoint
p0
(dp1
S'ccode'
p2
(dp3
S'fjtMg'
p4
S'b'
p5
sS'YtSHL'
p6
S'r'
p7
sS'PeQmj'
p8
S'g'
p9
sS'1'
p10
S'a'
p11
sS'sAekm'
p12
S'x'
p13
sS'40'
p14
S'q'
p15
sS'VinKg'
p16
S'u'
p17
sS'0'
p18
S't'
p19
sS'3'
p20
S'e'
p21
sS'2'
p22
S'd'
p23
sS'5'
p24
S'm'
p25
sS'4'
p26
S's'
p27
sS'7'
p28
S'v'
p29
sS'185'
p30
S'i'
p31
sS'9'
p32
S'n'
p33
sS'425'
p34
S'p'
p35
sS'lKjaR'
p36
S'h'
p37
sS'6'
p38
S'k'
p39
sS'fSqCK'
p40
S'f'
p41
sS'iZYbB'
p42
S'l'
p43
sS'70'
p44
S'y'
p45
sS'PhmhJ'
p46
S'o'
p47
sS'11'
p48
S'c'
p49
sS'12'
p50
S'z'
p51
sS'yWFGC'
p52
S'w'
p53
sS'IyXaj'
p54
S'j'
p55
ssS'cset'
p56
c__builtin__
set
p57
((lp58
g48
ag38
ag50
ag44
ag14
ag10
ag18
ag20
ag22
ag24
ag26
ag28
ag30
ag32
ag34
atp59
Rp60
sS'annealevel'
p61
F0.2
sS'strng'
p62
(lp63
g10
aS'8'
p64
ag24
ag18
ag10
ag22
ag10
ag26
ag10
ag10
ag10
ag10
ag10
ag10
ag10
ag22
ag24
ag10
ag10
ag22
ag18
ag10
ag22
ag28
ag20
ag26
ag20
ag10
ag18
ag10
ag10
ag22
ag26
ag26
ag26
ag18
ag10
ag10
ag32
ag26
ag20
ag10
ag10
ag22
ag26
ag18
ag18
ag22
ag10
ag28
ag18
ag24
ag32
ag18
ag10
ag22
ag26
ag22
ag24
ag10
ag22
ag10
ag10
ag28
ag24
ag10
ag22
ag26
ag18
ag10
ag22
ag10
ag10
ag10
ag38
ag24
ag26
asS'csplit'
p65
(lp66
I0
aI1
aI0
aI1
aI0
aI1
aI0
aI1
aI0
aI1
aI0
aI1
aI0
aI1
aI0
aI1
aI1
aI1
aI0
aI1
aI1
aI1
aI1
aI1
aI1
aI1
aI1
aI1
aI1
aI1
aI0
aI1
aI1
aI1
aI0
aI1
aI1
aI1
aI1
aI1
aI1
aI1
aI0
aI1
aI1
aI1
aI1
aI1
aI1
aI0
aI1
aI1
aI1
aI1
aI1
aI1
aI0
aI0
aI1
aI1
aI1
aI1
aI1
aI1
aI1
aI1
aI1
aI1
aI1
aI1
aI1
aI1
aI1
aI1
aI1
aI1
asS'spl'
p67
(lp68
g30
ag18
ag10
ag22
ag10
ag26
ag10
ag48
ag10
ag10
ag10
ag10
ag22
ag24
ag10
ag50
ag18
ag10
ag22
ag28
ag20
ag26
ag20
ag10
ag18
ag10
aS'12'
p69
ag26
ag26
ag14
ag10
ag10
ag32
ag26
ag20
ag10
aS'12'
p70
ag26
ag18
ag18
ag22
ag10
ag44
ag24
ag32
ag18
ag10
ag22
ag34
ag10
ag22
ag10
ag10
ag28
ag24
ag10
ag22
ag26
ag18
ag10
ag22
ag10
ag10
ag10
ag38
ag24
asS'ls'
p71
I76
sS'cscore'
p72
F0.3142043142043142
sb.
(i__main__
annealpoint
p0
(dp1
S'ccode'
p2
(dp3
S'YHFZf'
p4
S'v'
p5
sS'hJJQZ'
p6
S'z'
p7
sS'01'
p8
S'd'
p9
sS'qyiSa'
p10
S'y'
p11
sS'GBiFj'
p12
S'k'
p13
sS'42'
p14
S'c'
p15
sS'43'
p16
S'w'
p17
sS'1'
p18
S'a'
p19
sS'0'
p20
S't'
p21
sS'3'
p22
S'h'
p23
sS'2'
p24
S's'
p25
sS'5'
p26
S'i'
p27
sS'4'
p28
S'e'
p29
sS'7'
p30
S'n'
p31
sS'6'
p32
S'u'
p33
sS'8'
p34
S'l'
p35
sS'Yaiuh'
p36
S'r'
p37
sS'AqIcI'
p38
S'j'
p39
sS'Iygvx'
p40
S'g'
p41
sS'fZlgZ'
p42
S'm'
p43
sS'90'
p44
S'q'
p45
sS'mYmZe'
p46
S'b'
p47
sS'jPiOU'
p48
S'f'
p49
sS'12'
p50
S'p'
p51
sS'19'
p52
S'x'
p53
sS'431'
p54
S'o'
p55
ssS'cset'
p56
c__builtin__
set
p57
((lp58
g8
ag52
ag32
ag14
ag16
ag18
ag20
ag22
ag24
ag26
ag28
ag30
ag44
ag34
ag50
ag54
atp59
Rp60
sS'annealevel'
p61
F0.7
sS'strng'
p62
(lp63
g18
ag34
ag26
ag20
ag18
ag24
ag18
ag28
ag18
ag18
ag18
ag18
ag18
ag18
ag18
ag24
ag26
ag18
ag18
ag24
ag20
ag18
ag24
ag30
ag22
ag28
ag22
ag18
ag20
ag18
ag18
ag24
ag28
ag28
ag28
ag20
ag18
ag18
aS'9'
p64
ag28
ag22
ag18
ag18
ag24
ag28
ag20
ag20
ag24
ag18
ag30
ag20
ag26
ag64
ag20
ag18
ag24
ag28
ag24
ag26
ag18
ag24
ag18
ag18
ag30
ag26
ag18
ag24
ag28
ag20
ag18
ag24
ag18
ag18
ag18
ag32
ag26
ag28
asS'csplit'
p65
(lp66
I0
aI1
aI0
aI1
aI0
aI1
aI0
aI1
aI0
aI1
aI0
aI1
aI0
aI1
aI0
aI1
aI1
aI1
aI1
aI1
aI1
aI1
aI1
aI1
aI1
aI0
aI0
aI1
aI1
aI1
aI1
aI1
aI1
aI1
aI1
aI0
aI1
aI0
aI1
aI0
aI1
aI1
aI0
aI1
aI1
aI1
aI1
aI1
aI1
aI1
aI1
aI1
aI0
aI1
aI1
aI1
aI0
aI1
aI1
aI0
aI1
aI1
aI1
aI1
aI1
aI1
aI1
aI1
aI1
aI1
aI1
aI1
aI1
aI1
aI1
aI1
asS'spl'
p67
(lp68
g18
ag34
ag26
ag20
ag18
ag24
ag18
ag28
ag18
ag18
ag18
ag18
ag18
ag18
ag18
ag24
ag26
ag18
ag18
ag24
ag20
ag18
ag24
ag30
ag22
ag54
ag20
ag18
ag18
ag24
ag28
ag28
ag28
ag8
ag52
ag16
ag18
ag50
ag28
ag20
ag20
ag24
ag18
ag30
ag20
ag26
ag44
ag18
ag24
ag14
ag26
aS'12'
p69
ag18
ag18
ag30
ag26
ag18
ag24
ag28
ag20
ag18
ag24
ag18
ag18
ag18
ag32
ag26
asS'ls'
p70
I76
sS'cscore'
p71
F0.3273115773115773
sb.
(i__main__
annealpoint
p0
(dp1
S'ccode'
p2
(dp3
S'ueQBx'
p4
S'p'
p5
sS'ibkNI'
p6
S'j'
p7
sS'GCTFC'
p8
S'u'
p9
sS'VJKDb'
p10
S'a'
p11
sS'miWHh'
p12
S'g'
p13
sS'01'
p14
S'y'
p15
sS'lkGVq'
p16
S'q'
p17
sS'40'
p18
S'k'
p19
sS'1'
p20
S'o'
p21
sS'0'
p22
S't'
p23
sS'3'
p24
S'b'
p25
sS'2'
p26
S's'
p27
sS'5'
p28
S'c'
p29
sS'4'
p30
S'e'
p31
sS'7'
p32
S'v'
p33
sS'9'
p34
S'z'
p35
sS'8'
p36
S'r'
p37
sS'cnKUT'
p38
S'f'
p39
sS'PXJtd'
p40
S'i'
p41
sS'70'
p42
S'l'
p43
sS'oMMQx'
p44
S'n'
p45
sS'12'
p46
S'w'
p47
sS'16'
p48
S'x'
p49
sS'31'
p50
S'd'
p51
sS'51'
p52
S'm'
p53
sS'512'
p54
S'h'
p55
ssS'cset'
p56
c__builtin__
set
p57
((lp58
g14
ag54
ag50
ag48
ag52
ag18
ag20
ag22
ag24
ag26
ag28
ag30
ag32
ag42
ag34
ag36
ag46
atp59
Rp60
sS'annealevel'
p61
F0.9999999999999999
sS'strng'
p62
(lp63
g20
ag36
ag28
ag22
ag20
ag26
ag20
ag30
ag20
ag20
ag20
ag20
ag20
ag20
ag20
ag26
ag28
ag20
ag20
ag26
ag22
ag20
ag26
ag32
ag24
ag30
ag24
ag20
ag22
ag20
ag20
ag26
ag30
ag30
ag30
ag22
ag20
ag20
ag34
ag30
ag24
ag20
ag20
ag26
ag30
ag22
ag22
ag26
ag20
ag32
ag22
ag28
ag34
ag22
ag20
ag26
ag30
ag26
ag28
ag20
ag26
ag20
ag20
ag32
ag28
ag20
ag26
ag30
ag22
ag20
ag26
ag20
ag20
ag20
aS'6'
p64
ag28
ag30
asS'csplit'
p65
(lp66
I0
aI1
aI0
aI1
aI0
aI1
aI0
aI1
aI0
aI1
aI0
aI1
aI0
aI1
aI0
aI1
aI1
aI1
aI0
aI1
aI1
aI1
aI1
aI1
aI1
aI1
aI0
aI1
aI1
aI1
aI1
aI1
aI1
aI1
aI1
aI1
aI1
aI1
aI1
aI1
aI1
aI1
aI1
aI1
aI0
aI1
aI1
aI1
aI1
aI0
aI1
aI1
aI1
aI1
aI1
aI1
aI1
aI1
aI0
aI0
aI1
aI1
aI1
aI1
aI0
aI1
aI1
aI1
aI1
aI1
aI1
aI1
aI1
aI0
aI1
aI1
asS'spl'
p67
(lp68
g20
ag36
ag28
ag14
ag26
ag20
ag30
ag20
ag20
ag20
ag20
ag20
ag20
ag20
ag26
ag28
ag20
ag46
ag22
ag20
ag26
ag32
ag24
ag30
ag50
ag22
ag20
ag20
ag26
ag30
ag30
ag30
ag22
ag20
ag20
ag34
ag30
ag24
ag20
ag20
ag26
ag18
ag22
ag26
ag20
ag42
ag28
ag34
ag22
ag20
ag26
ag30
ag26
ag54
ag20
ag20
ag32
ag52
ag26
ag30
ag22
ag20
ag26
ag20
ag20
ag48
ag28
asS'ls'
p69
I76
sS'cscore'
p70
F0.3751618751618751
sb.
(i__main__
annealpoint
p0
(dp1
S'ccode'
p2
(dp3
S'RHZbA'
p4
S'k'
p5
sS'fLhLl'
p6
S'v'
p7
sS'sfUve'
p8
S'j'
p9
sS'lFgjO'
p10
S's'
p11
sS'yljCa'
p12
S'a'
p13
sS'01'
p14
S'r'
p15
sS'850'
p16
S'u'
p17
sS'42'
p18
S'l'
p19
sS'3'
p20
S'b'
p21
sS'1'
p22
S'e'
p23
sS'0'
p24
S'h'
p25
sS'Hnbmp'
p26
S'w'
p27
sS'2'
p28
S'i'
p29
sS'5'
p30
S'n'
p31
sS'4'
p32
S't'
p33
sS'7'
p34
S'q'
p35
sS'6'
p36
S'x'
p37
sS'9'
p38
S'd'
p39
sS'uqsGA'
p40
S'f'
p41
sS'121'
p42
S'g'
p43
sS'11'
p44
S'y'
p45
sS'Nqukt'
p46
S'z'
p47
sS'17'
p48
S'o'
p49
sS'bPhxE'
p50
S'c'
p51
sS'uTzea'
p52
S'm'
p53
sS'UCFCD'
p54
S'p'
p55
ssS'cset'
p56
c__builtin__
set
p57
((lp58
g44
ag14
ag16
ag48
ag42
ag18
ag22
ag24
ag20
ag28
ag30
ag32
ag34
ag36
ag38
atp59
Rp60
sS'annealevel'
p61
F4.799999999999999
sS'strng'
p62
(lp63
g22
aS'8'
p64
ag30
ag24
ag22
ag28
ag22
ag32
ag22
ag22
ag22
ag22
ag22
ag22
ag22
ag28
ag30
ag22
ag22
ag28
ag24
ag22
ag28
ag34
ag20
ag32
ag20
ag22
ag24
ag22
ag22
ag28
ag32
ag32
ag32
ag24
ag22
ag22
ag38
ag32
ag20
ag22
ag22
ag28
ag32
ag24
ag24
ag28
ag22
ag34
ag24
ag30
ag38
ag24
ag22
ag28
ag32
ag28
ag30
ag22
ag28
ag22
ag22
ag34
ag30
ag22
ag28
ag32
ag24
ag22
ag28
ag22
ag22
ag22
ag36
ag30
ag32
asS'csplit'
p65
(lp66
I0
aI1
aI0
aI1
aI0
aI1
aI0
aI1
aI0
aI1
aI0
aI1
aI0
aI1
aI0
aI1
aI1
aI1
aI1
aI1
aI1
aI1
aI1
aI1
aI1
aI1
aI1
aI1
aI0
aI1
aI1
aI1
aI1
aI1
aI1
aI1
aI1
aI1
aI1
aI1
aI1
aI1
aI1
aI1
aI1
aI1
aI1
aI1
aI1
aI1
aI1
aI1
aI1
aI1
aI1
aI1
aI0
aI1
aI1
aI1
aI1
aI1
aI0
aI1
aI1
aI1
aI1
aI1
aI1
aI0
aI0
aI1
aI1
aI1
aI1
aI1
asS'spl'
p67
(lp68
g22
ag16
ag22
ag28
ag22
ag32
ag22
ag44
ag22
ag22
ag22
ag22
ag28
ag30
ag22
ag22
ag28
ag24
ag22
ag28
ag34
ag20
ag32
ag20
ag22
ag14
ag22
ag28
ag32
ag32
ag32
ag24
ag22
ag22
ag38
ag32
ag20
ag22
ag22
ag28
ag32
ag24
ag24
ag28
ag22
ag34
ag24
ag30
ag38
ag24
ag22
ag28
ag18
ag30
ag22
ag28
ag22
ag48
ag30
ag22
ag28
ag32
ag24
ag42
ag22
ag22
ag36
ag30
asS'ls'
p69
I76
sS'cscore'
p70
F0.4024777691444359
sb.
(i__main__
annealpoint
p0
(dp1
S'ccode'
p2
(dp3
S'FkPtH'
p4
S'w'
p5
sS'lrCXq'
p6
S'u'
p7
sS'RDTfl'
p8
S'z'
p9
sS'cfHAY'
p10
S'd'
p11
sS'01'
p12
S'k'
p13
sS'1'
p14
S's'
p15
sS'0'
p16
S'e'
p17
sS'3'
p18
S'i'
p19
sS'2'
p20
S't'
p21
sS'5'
p22
S'm'
p23
sS'4'
p24
S'r'
p25
sS'7'
p26
S'f'
p27
sS'zXPGA'
p28
S'h'
p29
sS'9'
p30
S'n'
p31
sS'8'
p32
S'v'
p33
sS'PFpYt'
p34
S'g'
p35
sS'Jqfra'
p36
S'c'
p37
sS'eQfLN'
p38
S'x'
p39
sS'141'
p40
S'y'
p41
sS'BpFjo'
p42
S'b'
p43
sS'70'
p44
S'q'
p45
sS'11'
p46
S'o'
p47
sS'17'
p48
S'p'
p49
sS'16'
p50
S'l'
p51
sS'51'
p52
S'a'
p53
sS'meBSD'
p54
S'j'
p55
ssS'cset'
p56
c__builtin__
set
p57
((lp58
g46
ag12
ag48
ag40
ag50
ag52
ag14
ag16
ag18
ag20
ag22
ag24
ag26
ag44
ag30
ag32
atp59
Rp60
sS'annealevel'
p61
F9.199999999999983
sS'strng'
p62
(lp63
g14
ag32
ag22
ag16
ag14
ag20
ag14
ag24
ag14
ag14
ag14
ag14
ag14
ag14
ag14
ag20
ag22
ag14
ag14
ag20
ag16
ag14
ag20
ag26
ag18
ag24
ag18
ag14
ag16
ag14
ag14
ag20
ag24
ag24
ag24
ag16
ag14
ag14
ag30
ag24
ag18
ag14
ag14
ag20
ag24
ag16
ag16
ag20
ag14
ag26
ag16
ag22
ag30
ag16
ag14
ag20
ag24
ag20
ag22
ag14
ag20
ag14
ag14
ag26
ag22
ag14
ag20
ag24
ag16
ag14
ag20
ag14
ag14
ag14
aS'6'
p64
ag22
ag24
asS'csplit'
p65
(lp66
I0
aI1
aI0
aI1
aI0
aI1
aI0
aI1
aI0
aI1
aI0
aI1
aI0
aI1
aI0
aI1
aI1
aI0
aI1
aI1
aI1
aI1
aI1
aI1
aI1
aI1
aI1
aI1
aI1
aI1
aI1
aI1
aI1
aI1
aI1
aI1
aI0
aI1
aI1
aI1
aI1
aI1
aI1
aI1
aI1
aI1
aI1
aI1
aI1
aI0
aI1
aI1
aI1
aI1
aI1
aI1
aI1
aI1
aI1
aI1
aI1
aI1
aI0
aI1
aI0
aI1
aI1
aI1
aI1
aI1
aI1
aI1
aI1
aI0
aI1
aI1
asS'spl'
p67
(lp68
g14
ag32
ag22
ag12
ag20
ag40
ag14
ag46
ag14
ag14
ag14
ag20
ag22
aS'11'
p69
ag20
ag16
ag14
ag20
ag26
ag18
ag24
ag18
ag14
ag16
ag14
ag14
ag20
ag24
ag24
ag24
ag16
aS'11'
p70
ag30
ag24
ag18
ag14
ag14
ag20
ag24
ag16
ag16
ag20
ag14
ag44
ag22
ag30
ag16
ag14
ag20
ag24
ag20
ag22
ag14
ag20
ag14
ag48
ag52
ag20
ag24
ag16
ag14
ag20
ag14
ag14
ag50
ag22
asS'ls'
p71
I76
sS'cscore'
p72
F0.4220594220594221
sb.
(i__main__
annealpoint
p0
(dp1
S'ccode'
p2
(dp3
S'LMofH'
p4
S'q'
p5
sS'01'
p6
S'm'
p7
sS'44'
p8
S'o'
p9
sS'41'
p10
S'y'
p11
sS'1'
p12
S'a'
p13
sS'0'
p14
S'l'
p15
sS'3'
p16
S'z'
p17
sS'2'
p18
S'd'
p19
sS'5'
p20
S'e'
p21
sS'4'
p22
S'i'
p23
sS'7'
p24
S'b'
p25
sS'eUHxl'
p26
S'w'
p27
sS'9'
p28
S't'
p29
sS'8'
p30
S'n'
p31
sS'OhkED'
p32
S'v'
p33
sS'HwbUs'
p34
S'p'
p35
sS'Sqpjz'
p36
S'c'
p37
sS'73'
p38
S's'
p39
sS'HSzMI'
p40
S'h'
p41
sS'11'
p42
S'x'
p43
sS'16'
p44
S'r'
p45
sS'19'
p46
S'j'
p47
sS'51'
p48
S'f'
p49
sS'50'
p50
S'k'
p51
sS'SWBNw'
p52
S'u'
p53
sS'FuJku'
p54
S'g'
p55
ssS'cset'
p56
c__builtin__
set
p57
((lp58
g42
ag6
ag44
ag46
ag8
ag48
ag50
ag10
ag12
ag14
ag16
ag18
ag20
ag22
ag24
ag28
ag30
ag38
atp59
Rp60
sS'annealevel'
p61
F21.70000000000004
sS'strng'
p62
(lp63
g12
ag30
ag20
ag14
ag12
ag18
ag12
ag22
ag12
ag12
ag12
ag12
ag12
ag12
ag12
ag18
ag20
ag12
ag12
ag18
ag14
ag12
ag18
ag24
ag16
ag22
ag16
ag12
ag14
ag12
ag12
ag18
ag22
ag22
ag22
ag14
ag12
ag12
ag28
ag22
ag16
ag12
ag12
ag18
ag22
ag14
ag14
ag18
ag12
ag24
ag14
ag20
ag28
ag14
ag12
ag18
ag22
ag18
ag20
ag12
ag18
ag12
ag12
ag24
ag20
ag12
ag18
ag22
ag14
ag12
ag18
ag12
ag12
ag12
aS'6'
p64
ag20
ag22
asS'csplit'
p65
(lp66
I0
aI1
aI0
aI1
aI0
aI1
aI0
aI1
aI0
aI1
aI0
aI1
aI0
aI1
aI0
aI1
aI1
aI1
aI1
aI1
aI1
aI1
aI1
aI0
aI1
aI1
aI1
aI1
aI1
aI1
aI1
aI1
aI0
aI1
aI1
aI0
aI1
aI0
aI1
aI1
aI1
aI0
aI1
aI1
aI1
aI1
aI1
aI1
aI1
aI1
aI1
aI1
aI1
aI1
aI1
aI1
aI1
aI1
aI0
aI1
aI1
aI1
aI1
aI1
aI1
aI1
aI1
aI1
aI1
aI1
aI1
aI1
aI1
aI0
aI1
aI1
asS'spl'
p67
(lp68
g12
ag30
ag50
ag12
ag18
ag12
ag10
ag12
ag12
ag12
ag12
ag12
ag12
ag18
ag20
ag12
ag12
ag18
ag14
ag12
ag18
ag38
ag22
ag16
ag12
ag14
ag12
ag12
ag18
ag8
ag22
ag6
ag46
ag22
ag16
ag42
ag18
ag22
ag14
ag14
ag18
ag12
ag24
ag14
ag20
ag28
ag14
ag12
ag18
ag22
ag18
ag48
ag18
ag12
ag12
ag24
ag20
ag12
ag18
ag22
ag14
ag12
ag18
ag12
ag12
ag44
ag20
asS'ls'
p69
I76
sS'cscore'
p70
F0.4614003280669947
sb.
(i__main__
annealpoint
p0
(dp1
S'ccode'
p2
(dp3
S'LMofH'
p4
S'c'
p5
sS'01'
p6
S'm'
p7
sS'44'
p8
S'j'
p9
sS'41'
p10
S'k'
p11
sS'1'
p12
S'e'
p13
sS'0'
p14
S'l'
p15
sS'3'
p16
S'w'
p17
sS'2'
p18
S'd'
p19
sS'5'
p20
S't'
p21
sS'4'
p22
S'a'
p23
sS'7'
p24
S'i'
p25
sS'eUHxl'
p26
S'v'
p27
sS'9'
p28
S'o'
p29
sS'8'
p30
S'r'
p31
sS'OhkED'
p32
S'g'
p33
sS'HwbUs'
p34
S'p'
p35
sS'Sqpjz'
p36
S'f'
p37
sS'73'
p38
S'z'
p39
sS'HSzMI'
p40
S'b'
p41
sS'11'
p42
S'n'
p43
sS'16'
p44
S'u'
p45
sS'19'
p46
S's'
p47
sS'51'
p48
S'q'
p49
sS'50'
p50
S'h'
p51
sS'SWBNw'
p52
S'y'
p53
sS'FuJku'
p54
S'x'
p55
ssS'cset'
p56
c__builtin__
set
p57
((lp58
g42
ag6
ag44
ag46
ag8
ag48
ag50
ag10
ag12
ag14
ag16
ag18
ag20
ag22
ag24
ag28
ag30
ag38
atp59
Rp60
sS'annealevel'
p61
F28.500000000000135
sS'strng'
p62
(lp63
g12
ag30
ag20
ag14
ag12
ag18
ag12
ag22
ag12
ag12
ag12
ag12
ag12
ag12
ag12
ag18
ag20
ag12
ag12
ag18
ag14
ag12
ag18
ag24
ag16
ag22
ag16
ag12
ag14
ag12
ag12
ag18
ag22
ag22
ag22
ag14
ag12
ag12
ag28
ag22
ag16
ag12
ag12
ag18
ag22
ag14
ag14
ag18
ag12
ag24
ag14
ag20
ag28
ag14
ag12
ag18
ag22
ag18
ag20
ag12
ag18
ag12
ag12
ag24
ag20
ag12
ag18
ag22
ag14
ag12
ag18
ag12
ag12
ag12
aS'6'
p64
ag20
ag22
asS'csplit'
p65
(lp66
I0
aI1
aI0
aI1
aI0
aI1
aI0
aI1
aI0
aI1
aI0
aI1
aI0
aI1
aI0
aI1
aI1
aI1
aI1
aI1
aI1
aI1
aI1
aI0
aI1
aI1
aI1
aI1
aI1
aI1
aI1
aI1
aI0
aI1
aI1
aI0
aI1
aI0
aI1
aI1
aI1
aI0
aI1
aI1
aI1
aI1
aI1
aI1
aI1
aI1
aI1
aI1
aI1
aI1
aI1
aI1
aI1
aI1
aI0
aI1
aI1
aI1
aI1
aI1
aI1
aI1
aI1
aI1
aI1
aI1
aI1
aI1
aI1
aI0
aI1
aI1
asS'spl'
p67
(lp68
g12
ag30
ag50
ag12
ag18
ag12
ag10
ag12
ag12
ag12
ag12
ag12
ag12
ag18
ag20
ag12
ag12
ag18
ag14
ag12
ag18
ag38
ag22
ag16
ag12
ag14
ag12
ag12
ag18
ag8
ag22
ag6
ag46
ag22
ag16
ag42
ag18
ag22
ag14
ag14
ag18
ag12
ag24
ag14
ag20
ag28
ag14
ag12
ag18
ag22
ag18
ag48
ag18
ag12
ag12
ag24
ag20
ag12
ag18
ag22
ag14
ag12
ag18
ag12
ag12
ag44
ag20
asS'ls'
p69
I76
sS'cscore'
p70
F0.4970603470603471
sb.
(i__main__
annealpoint
p0
(dp1
S'ccode'
p2
(dp3
S'LMofH'
p4
S'y'
p5
sS'01'
p6
S'f'
p7
sS'44'
p8
S'j'
p9
sS'41'
p10
S's'
p11
sS'1'
p12
S'e'
p13
sS'0'
p14
S'b'
p15
sS'3'
p16
S'k'
p17
sS'2'
p18
S'n'
p19
sS'5'
p20
S'w'
p21
sS'4'
p22
S'o'
p23
sS'7'
p24
S'd'
p25
sS'eUHxl'
p26
S'h'
p27
sS'9'
p28
S'i'
p29
sS'8'
p30
S'm'
p31
sS'OhkED'
p32
S'p'
p33
sS'HwbUs'
p34
S'c'
p35
sS'Sqpjz'
p36
S'r'
p37
sS'73'
p38
S't'
p39
sS'HSzMI'
p40
S'q'
p41
sS'11'
p42
S'z'
p43
sS'16'
p44
S'v'
p45
sS'19'
p46
S'u'
p47
sS'51'
p48
S'a'
p49
sS'50'
p50
S'g'
p51
sS'SWBNw'
p52
S'l'
p53
sS'FuJku'
p54
S'x'
p55
ssS'cset'
p56
c__builtin__
set
p57
((lp58
g42
ag6
ag44
ag46
ag8
ag48
ag50
ag10
ag12
ag14
ag16
ag18
ag20
ag22
ag24
ag28
ag30
ag38
atp59
Rp60
sS'annealevel'
p61
F36.900000000000254
sS'strng'
p62
(lp63
g12
ag30
ag20
ag14
ag12
ag18
ag12
ag22
ag12
ag12
ag12
ag12
ag12
ag12
ag12
ag18
ag20
ag12
ag12
ag18
ag14
ag12
ag18
ag24
ag16
ag22
ag16
ag12
ag14
ag12
ag12
ag18
ag22
ag22
ag22
ag14
ag12
ag12
ag28
ag22
ag16
ag12
ag12
ag18
ag22
ag14
ag14
ag18
ag12
ag24
ag14
ag20
ag28
ag14
ag12
ag18
ag22
ag18
ag20
ag12
ag18
ag12
ag12
ag24
ag20
ag12
ag18
ag22
ag14
ag12
ag18
ag12
ag12
ag12
aS'6'
p64
ag20
ag22
asS'csplit'
p65
(lp66
I0
aI1
aI0
aI1
aI0
aI1
aI0
aI1
aI0
aI1
aI0
aI1
aI0
aI1
aI0
aI1
aI1
aI1
aI1
aI1
aI1
aI1
aI1
aI0
aI1
aI1
aI1
aI1
aI1
aI1
aI1
aI1
aI0
aI1
aI1
aI0
aI1
aI0
aI1
aI1
aI1
aI0
aI1
aI1
aI1
aI1
aI1
aI1
aI1
aI1
aI1
aI1
aI1
aI1
aI1
aI1
aI1
aI1
aI0
aI1
aI1
aI1
aI1
aI1
aI1
aI1
aI1
aI1
aI1
aI1
aI1
aI1
aI1
aI0
aI1
aI1
asS'spl'
p67
(lp68
g12
ag30
ag50
ag12
ag18
ag12
ag10
ag12
ag12
ag12
ag12
ag12
ag12
ag18
ag20
ag12
ag12
ag18
ag14
ag12
ag18
ag38
ag22
ag16
ag12
ag14
ag12
ag12
ag18
ag8
ag22
ag6
ag46
ag22
ag16
ag42
ag18
ag22
ag14
ag14
ag18
ag12
ag24
ag14
ag20
ag28
ag14
ag12
ag18
ag22
ag18
ag48
ag18
ag12
ag12
ag24
ag20
ag12
ag18
ag22
ag14
ag12
ag18
ag12
ag12
ag44
ag20
asS'ls'
p69
I76
sS'cscore'
p70
F0.5004403004403004
sb.
(i__main__
annealpoint
p0
(dp1
S'ccode'
p2
(dp3
S'xUUSY'
p4
S'y'
p5
sS'btJiA'
p6
S'c'
p7
sS'MbDsg'
p8
S'p'
p9
sS'65'
p10
S'w'
p11
sS'oBpss'
p12
S'x'
p13
sS'02'
p14
S'm'
p15
sS'01'
p16
S'k'
p17
sS'UOdNZ'
p18
S'b'
p19
sS'1'
p20
S'e'
p21
sS'0'
p22
S'd'
p23
sS'3'
p24
S's'
p25
sS'2'
p26
S'n'
p27
sS'5'
p28
S'h'
p29
sS'4'
p30
S'i'
p31
sS'7'
p32
S't'
p33
sS'9'
p34
S'u'
p35
sS'8'
p36
S'a'
p37
sS'RJmCZ'
p38
S'f'
p39
sS'wOulj'
p40
S'j'
p41
sS'94'
p42
S'r'
p43
sS'yYJMQ'
p44
S'g'
p45
sS'11'
p46
S'o'
p47
sS'gBCrd'
p48
S'z'
p49
sS'Wdppo'
p50
S'q'
p51
sS'kMbnb'
p52
S'v'
p53
sS'111'
p54
S'l'
p55
ssS'cset'
p56
c__builtin__
set
p57
((lp58
g46
ag14
ag16
ag24
ag20
ag22
ag54
ag26
ag28
ag30
ag32
ag34
ag36
ag42
ag10
atp59
Rp60
sS'annealevel'
p61
F37.20000000000026
sS'strng'
p62
(lp63
g20
ag36
ag28
ag22
ag20
ag26
ag20
ag30
ag20
ag20
ag20
ag20
ag20
ag20
ag20
ag26
ag28
ag20
ag20
ag26
ag22
ag20
ag26
ag32
ag24
ag30
ag24
ag20
ag22
ag20
ag20
ag26
ag30
ag30
ag30
ag22
ag20
ag20
ag34
ag30
ag24
ag20
ag20
ag26
ag30
ag22
ag22
ag26
ag20
ag32
ag22
ag28
ag34
ag22
ag20
ag26
ag30
ag26
ag28
ag20
ag26
ag20
ag20
ag32
ag28
ag20
ag26
ag30
ag22
ag20
ag26
ag20
ag20
ag20
aS'6'
p64
ag28
ag30
asS'csplit'
p65
(lp66
I0
aI1
aI0
aI1
aI0
aI1
aI0
aI1
aI0
aI1
aI0
aI1
aI0
aI1
aI0
aI1
aI1
aI1
aI1
aI1
aI1
aI1
aI1
aI1
aI1
aI1
aI1
aI1
aI1
aI0
aI1
aI1
aI1
aI1
aI1
aI1
aI0
aI1
aI0
aI1
aI1
aI1
aI1
aI1
aI1
aI1
aI0
aI1
aI1
aI1
aI1
aI1
aI1
aI1
aI1
aI1
aI1
aI1
aI1
aI1
aI1
aI1
aI1
aI1
aI1
aI1
aI1
aI1
aI0
aI1
aI1
aI1
aI1
aI1
aI0
aI1
asS'spl'
p67
(lp68
g20
ag36
ag28
ag16
ag26
ag20
ag30
ag54
ag20
ag20
ag20
ag20
ag26
ag28
ag20
ag20
ag26
ag22
ag20
ag26
ag32
ag24
ag30
ag24
ag20
ag22
ag46
ag26
ag30
ag30
ag30
ag22
aS'11'
p69
ag42
ag24
ag20
ag20
ag26
ag30
ag22
ag14
ag20
ag32
ag22
ag28
ag34
ag22
ag20
ag26
ag30
ag26
ag28
ag20
ag26
ag20
ag20
ag32
ag28
ag20
ag26
ag30
aS'01'
p70
ag26
ag20
ag20
ag20
ag10
asS'ls'
p71
I76
sS'cscore'
p72
F0.5238409738409738
sb.
(i__main__
annealpoint
p0
(dp1
S'ccode'
p2
(dp3
S'LMofH'
p4
S'm'
p5
sS'01'
p6
S'q'
p7
sS'44'
p8
S'b'
p9
sS'41'
p10
S'k'
p11
sS'1'
p12
S'o'
p13
sS'0'
p14
S's'
p15
sS'3'
p16
S'f'
p17
sS'2'
p18
S'n'
p19
sS'5'
p20
S't'
p21
sS'4'
p22
S'e'
p23
sS'7'
p24
S'u'
p25
sS'eUHxl'
p26
S'x'
p27
sS'9'
p28
S'l'
p29
sS'8'
p30
S'd'
p31
sS'OhkED'
p32
S'i'
p33
sS'HwbUs'
p34
S'g'
p35
sS'Sqpjz'
p36
S'z'
p37
sS'73'
p38
S'h'
p39
sS'HSzMI'
p40
S'p'
p41
sS'11'
p42
S'v'
p43
sS'16'
p44
S'c'
p45
sS'19'
p46
S'r'
p47
sS'51'
p48
S'a'
p49
sS'50'
p50
S'y'
p51
sS'SWBNw'
p52
S'j'
p53
sS'FuJku'
p54
S'w'
p55
ssS'cset'
p56
c__builtin__
set
p57
((lp58
g42
ag6
ag44
ag46
ag8
ag48
ag50
ag10
ag12
ag14
ag16
ag18
ag20
ag22
ag24
ag28
ag30
ag38
atp59
Rp60
sS'annealevel'
p61
F44.700000000000365
sS'strng'
p62
(lp63
g12
ag30
ag20
ag14
ag12
ag18
ag12
ag22
ag12
ag12
ag12
ag12
ag12
ag12
ag12
ag18
ag20
ag12
ag12
ag18
ag14
ag12
ag18
ag24
ag16
ag22
ag16
ag12
ag14
ag12
ag12
ag18
ag22
ag22
ag22
ag14
ag12
ag12
ag28
ag22
ag16
ag12
ag12
ag18
ag22
ag14
ag14
ag18
ag12
ag24
ag14
ag20
ag28
ag14
ag12
ag18
ag22
ag18
ag20
ag12
ag18
ag12
ag12
ag24
ag20
ag12
ag18
ag22
ag14
ag12
ag18
ag12
ag12
ag12
aS'6'
p64
ag20
ag22
asS'csplit'
p65
(lp66
I0
aI1
aI0
aI1
aI0
aI1
aI0
aI1
aI0
aI1
aI0
aI1
aI0
aI1
aI0
aI1
aI1
aI1
aI1
aI1
aI1
aI1
aI1
aI0
aI1
aI1
aI1
aI1
aI1
aI1
aI1
aI1
aI0
aI1
aI1
aI0
aI1
aI0
aI1
aI1
aI1
aI0
aI1
aI1
aI1
aI1
aI1
aI1
aI1
aI1
aI1
aI1
aI1
aI1
aI1
aI1
aI1
aI1
aI0
aI1
aI1
aI1
aI1
aI1
aI1
aI1
aI1
aI1
aI1
aI1
aI1
aI1
aI1
aI0
aI1
aI1
asS'spl'
p67
(lp68
g12
ag30
ag50
ag12
ag18
ag12
ag10
ag12
ag12
ag12
ag12
ag12
ag12
ag18
ag20
ag12
ag12
ag18
ag14
ag12
ag18
ag38
ag22
ag16
ag12
ag14
ag12
ag12
ag18
ag8
ag22
ag6
ag46
ag22
ag16
ag42
ag18
ag22
ag14
ag14
ag18
ag12
ag24
ag14
ag20
ag28
ag14
ag12
ag18
ag22
ag18
ag48
ag18
ag12
ag12
ag24
ag20
ag12
ag18
ag22
ag14
ag12
ag18
ag12
ag12
ag44
ag20
asS'ls'
p69
I76
sS'cscore'
p70
F0.5531339031339031
sb.
(i__main__
annealpoint
p0
(dp1
S'ccode'
p2
(dp3
S'LMofH'
p4
S'x'
p5
sS'01'
p6
S'b'
p7
sS'44'
p8
S'w'
p9
sS'41'
p10
S'y'
p11
sS'1'
p12
S'o'
p13
sS'0'
p14
S's'
p15
sS'3'
p16
S'f'
p17
sS'2'
p18
S'n'
p19
sS'5'
p20
S't'
p21
sS'4'
p22
S'e'
p23
sS'7'
p24
S'h'
p25
sS'eUHxl'
p26
S'u'
p27
sS'9'
p28
S'r'
p29
sS'8'
p30
S'l'
p31
sS'OhkED'
p32
S'v'
p33
sS'HwbUs'
p34
S'g'
p35
sS'Sqpjz'
p36
S'z'
p37
sS'73'
p38
S'c'
p39
sS'HSzMI'
p40
S'k'
p41
sS'11'
p42
S'i'
p43
sS'16'
p44
S'm'
p45
sS'19'
p46
S'p'
p47
sS'51'
p48
S'a'
p49
sS'50'
p50
S'd'
p51
sS'SWBNw'
p52
S'j'
p53
sS'FuJku'
p54
S'q'
p55
ssS'cset'
p56
c__builtin__
set
p57
((lp58
g42
ag6
ag44
ag46
ag8
ag48
ag50
ag10
ag12
ag14
ag16
ag18
ag20
ag22
ag24
ag28
ag30
ag38
atp59
Rp60
sS'annealevel'
p61
F45.10000000000037
sS'strng'
p62
(lp63
g12
ag30
ag20
ag14
ag12
ag18
ag12
ag22
ag12
ag12
ag12
ag12
ag12
ag12
ag12
ag18
ag20
ag12
ag12
ag18
ag14
ag12
ag18
ag24
ag16
ag22
ag16
ag12
ag14
ag12
ag12
ag18
ag22
ag22
ag22
ag14
ag12
ag12
ag28
ag22
ag16
ag12
ag12
ag18
ag22
ag14
ag14
ag18
ag12
ag24
ag14
ag20
ag28
ag14
ag12
ag18
ag22
ag18
ag20
ag12
ag18
ag12
ag12
ag24
ag20
ag12
ag18
ag22
ag14
ag12
ag18
ag12
ag12
ag12
aS'6'
p64
ag20
ag22
asS'csplit'
p65
(lp66
I0
aI1
aI0
aI1
aI0
aI1
aI0
aI1
aI0
aI1
aI0
aI1
aI0
aI1
aI0
aI1
aI1
aI1
aI1
aI1
aI1
aI1
aI1
aI0
aI1
aI1
aI1
aI1
aI1
aI1
aI1
aI1
aI0
aI1
aI1
aI0
aI1
aI0
aI1
aI1
aI1
aI0
aI1
aI1
aI1
aI1
aI1
aI1
aI1
aI1
aI1
aI1
aI1
aI1
aI1
aI1
aI1
aI1
aI0
aI1
aI1
aI1
aI1
aI1
aI1
aI1
aI1
aI1
aI1
aI1
aI1
aI1
aI1
aI0
aI1
aI1
asS'spl'
p67
(lp68
g12
ag30
ag50
ag12
ag18
ag12
ag10
ag12
ag12
ag12
ag12
ag12
ag12
ag18
ag20
ag12
ag12
ag18
ag14
ag12
ag18
ag38
ag22
ag16
ag12
ag14
ag12
ag12
ag18
ag8
ag22
ag6
ag46
ag22
ag16
ag42
ag18
ag22
ag14
ag14
ag18
ag12
ag24
ag14
ag20
ag28
ag14
ag12
ag18
ag22
ag18
ag48
ag18
ag12
ag12
ag24
ag20
ag12
ag18
ag22
ag14
ag12
ag18
ag12
ag12
ag44
ag20
asS'ls'
p69
I76
sS'cscore'
p70
F0.5728567728567729
sb.
(i__main__
annealpoint
p0
(dp1
S'ccode'
p2
(dp3
S'LMofH'
p4
S'k'
p5
sS'01'
p6
S'h'
p7
sS'44'
p8
S'a'
p9
sS'41'
p10
S'w'
p11
sS'1'
p12
S'o'
p13
sS'0'
p14
S's'
p15
sS'3'
p16
S'f'
p17
sS'2'
p18
S'n'
p19
sS'5'
p20
S't'
p21
sS'4'
p22
S'e'
p23
sS'7'
p24
S'b'
p25
sS'eUHxl'
p26
S'y'
p27
sS'9'
p28
S'j'
p29
sS'8'
p30
S'u'
p31
sS'OhkED'
p32
S'i'
p33
sS'HwbUs'
p34
S'z'
p35
sS'Sqpjz'
p36
S'g'
p37
sS'73'
p38
S'c'
p39
sS'HSzMI'
p40
S'm'
p41
sS'11'
p42
S'p'
p43
sS'16'
p44
S'x'
p45
sS'19'
p46
S'q'
p47
sS'51'
p48
S'd'
p49
sS'50'
p50
S'r'
p51
sS'SWBNw'
p52
S'l'
p53
sS'FuJku'
p54
S'v'
p55
ssS'cset'
p56
c__builtin__
set
p57
((lp58
g42
ag6
ag44
ag46
ag8
ag48
ag50
ag10
ag12
ag14
ag16
ag18
ag20
ag22
ag24
ag28
ag30
ag38
atp59
Rp60
sS'annealevel'
p61
F45.400000000000375
sS'strng'
p62
(lp63
g12
ag30
ag20
ag14
ag12
ag18
ag12
ag22
ag12
ag12
ag12
ag12
ag12
ag12
ag12
ag18
ag20
ag12
ag12
ag18
ag14
ag12
ag18
ag24
ag16
ag22
ag16
ag12
ag14
ag12
ag12
ag18
ag22
ag22
ag22
ag14
ag12
ag12
ag28
ag22
ag16
ag12
ag12
ag18
ag22
ag14
ag14
ag18
ag12
ag24
ag14
ag20
ag28
ag14
ag12
ag18
ag22
ag18
ag20
ag12
ag18
ag12
ag12
ag24
ag20
ag12
ag18
ag22
ag14
ag12
ag18
ag12
ag12
ag12
aS'6'
p64
ag20
ag22
asS'csplit'
p65
(lp66
I0
aI1
aI0
aI1
aI0
aI1
aI0
aI1
aI0
aI1
aI0
aI1
aI0
aI1
aI0
aI1
aI1
aI1
aI1
aI1
aI1
aI1
aI1
aI0
aI1
aI1
aI1
aI1
aI1
aI1
aI1
aI1
aI0
aI1
aI1
aI0
aI1
aI0
aI1
aI1
aI1
aI0
aI1
aI1
aI1
aI1
aI1
aI1
aI1
aI1
aI1
aI1
aI1
aI1
aI1
aI1
aI1
aI1
aI0
aI1
aI1
aI1
aI1
aI1
aI1
aI1
aI1
aI1
aI1
aI1
aI1
aI1
aI1
aI0
aI1
aI1
asS'spl'
p67
(lp68
g12
ag30
ag50
ag12
ag18
ag12
ag10
ag12
ag12
ag12
ag12
ag12
ag12
ag18
ag20
ag12
ag12
ag18
ag14
ag12
ag18
ag38
ag22
ag16
ag12
ag14
ag12
ag12
ag18
ag8
ag22
ag6
ag46
ag22
ag16
ag42
ag18
ag22
ag14
ag14
ag18
ag12
ag24
ag14
ag20
ag28
ag14
ag12
ag18
ag22
ag18
ag48
ag18
ag12
ag12
ag24
ag20
ag12
ag18
ag22
ag14
ag12
ag18
ag12
ag12
ag44
ag20
asS'ls'
p69
I76
sS'cscore'
p70
F0.5784554951221618
sb.
(i__main__
annealpoint
p0
(dp1
S'ccode'
p2
(dp3
S'xUUSY'
p4
S'f'
p5
sS'btJiA'
p6
S'z'
p7
sS'MbDsg'
p8
S'g'
p9
sS'65'
p10
S'j'
p11
sS'oBpss'
p12
S'l'
p13
sS'02'
p14
S'd'
p15
sS'01'
p16
S'o'
p17
sS'UOdNZ'
p18
S'w'
p19
sS'1'
p20
S'e'
p21
sS'0'
p22
S'i'
p23
sS'3'
p24
S'p'
p25
sS'2'
p26
S's'
p27
sS'5'
p28
S'h'
p29
sS'4'
p30
S'a'
p31
sS'7'
p32
S'k'
p33
sS'9'
p34
S't'
p35
sS'8'
p36
S'c'
p37
sS'RJmCZ'
p38
S'u'
p39
sS'wOulj'
p40
S'q'
p41
sS'94'
p42
S'r'
p43
sS'yYJMQ'
p44
S'x'
p45
sS'11'
p46
S'n'
p47
sS'gBCrd'
p48
S'v'
p49
sS'Wdppo'
p50
S'y'
p51
sS'kMbnb'
p52
S'b'
p53
sS'111'
p54
S'm'
p55
ssS'cset'
p56
c__builtin__
set
p57
((lp58
g46
ag14
ag16
ag24
ag20
ag22
ag54
ag26
ag28
ag30
ag32
ag34
ag36
ag42
ag10
atp59
Rp60
sS'annealevel'
p61
F47.2000000000004
sS'strng'
p62
(lp63
g20
ag36
ag28
ag22
ag20
ag26
ag20
ag30
ag20
ag20
ag20
ag20
ag20
ag20
ag20
ag26
ag28
ag20
ag20
ag26
ag22
ag20
ag26
ag32
ag24
ag30
ag24
ag20
ag22
ag20
ag20
ag26
ag30
ag30
ag30
ag22
ag20
ag20
ag34
ag30
ag24
ag20
ag20
ag26
ag30
ag22
ag22
ag26
ag20
ag32
ag22
ag28
ag34
ag22
ag20
ag26
ag30
ag26
ag28
ag20
ag26
ag20
ag20
ag32
ag28
ag20
ag26
ag30
ag22
ag20
ag26
ag20
ag20
ag20
aS'6'
p64
ag28
ag30
asS'csplit'
p65
(lp66
I0
aI1
aI0
aI1
aI0
aI1
aI0
aI1
aI0
aI1
aI0
aI1
aI0
aI1
aI0
aI1
aI1
aI1
aI1
aI1
aI1
aI1
aI1
aI1
aI1
aI1
aI1
aI1
aI1
aI0
aI1
aI1
aI1
aI1
aI1
aI1
aI0
aI1
aI0
aI1
aI1
aI1
aI1
aI1
aI1
aI1
aI0
aI1
aI1
aI1
aI1
aI1
aI1
aI1
aI1
aI1
aI1
aI1
aI1
aI1
aI1
aI1
aI1
aI1
aI1
aI1
aI1
aI1
aI0
aI1
aI1
aI1
aI1
aI1
aI0
aI1
asS'spl'
p67
(lp68
g20
ag36
ag28
ag16
ag26
ag20
ag30
ag54
ag20
ag20
ag20
ag20
ag26
ag28
ag20
ag20
ag26
ag22
ag20
ag26
ag32
ag24
ag30
ag24
ag20
ag22
ag46
ag26
ag30
ag30
ag30
ag22
aS'11'
p69
ag42
ag24
ag20
ag20
ag26
ag30
ag22
ag14
ag20
ag32
ag22
ag28
ag34
ag22
ag20
ag26
ag30
ag26
ag28
ag20
ag26
ag20
ag20
ag32
ag28
ag20
ag26
ag30
aS'01'
p70
ag26
ag20
ag20
ag20
ag10
asS'ls'
p71
I76
sS'cscore'
p72
F0.6012950012950014
sb.
(i__main__
annealpoint
p0
(dp1
S'ccode'
p2
(dp3
S'xUUSY'
p4
S'j'
p5
sS'btJiA'
p6
S'z'
p7
sS'MbDsg'
p8
S'm'
p9
sS'65'
p10
S'w'
p11
sS'oBpss'
p12
S'l'
p13
sS'02'
p14
S'p'
p15
sS'01'
p16
S'o'
p17
sS'UOdNZ'
p18
S'n'
p19
sS'1'
p20
S'e'
p21
sS'0'
p22
S'r'
p23
sS'3'
p24
S'b'
p25
sS'2'
p26
S's'
p27
sS'5'
p28
S'h'
p29
sS'4'
p30
S'a'
p31
sS'7'
p32
S't'
p33
sS'9'
p34
S'g'
p35
sS'8'
p36
S'c'
p37
sS'RJmCZ'
p38
S'x'
p39
sS'wOulj'
p40
S'y'
p41
sS'94'
p42
S'i'
p43
sS'yYJMQ'
p44
S'f'
p45
sS'11'
p46
S'd'
p47
sS'gBCrd'
p48
S'u'
p49
sS'Wdppo'
p50
S'q'
p51
sS'kMbnb'
p52
S'k'
p53
sS'111'
p54
S'v'
p55
ssS'cset'
p56
c__builtin__
set
p57
((lp58
g46
ag14
ag16
ag24
ag20
ag22
ag54
ag26
ag28
ag30
ag32
ag34
ag36
ag42
ag10
atp59
Rp60
sS'annealevel'
p61
F47.500000000000405
sS'strng'
p62
(lp63
g20
ag36
ag28
ag22
ag20
ag26
ag20
ag30
ag20
ag20
ag20
ag20
ag20
ag20
ag20
ag26
ag28
ag20
ag20
ag26
ag22
ag20
ag26
ag32
ag24
ag30
ag24
ag20
ag22
ag20
ag20
ag26
ag30
ag30
ag30
ag22
ag20
ag20
ag34
ag30
ag24
ag20
ag20
ag26
ag30
ag22
ag22
ag26
ag20
ag32
ag22
ag28
ag34
ag22
ag20
ag26
ag30
ag26
ag28
ag20
ag26
ag20
ag20
ag32
ag28
ag20
ag26
ag30
ag22
ag20
ag26
ag20
ag20
ag20
aS'6'
p64
ag28
ag30
asS'csplit'
p65
(lp66
I0
aI1
aI0
aI1
aI0
aI1
aI0
aI1
aI0
aI1
aI0
aI1
aI0
aI1
aI0
aI1
aI1
aI1
aI1
aI1
aI1
aI1
aI1
aI1
aI1
aI1
aI1
aI1
aI1
aI0
aI1
aI1
aI1
aI1
aI1
aI1
aI0
aI1
aI0
aI1
aI1
aI1
aI1
aI1
aI1
aI1
aI0
aI1
aI1
aI1
aI1
aI1
aI1
aI1
aI1
aI1
aI1
aI1
aI1
aI1
aI1
aI1
aI1
aI1
aI1
aI1
aI1
aI1
aI0
aI1
aI1
aI1
aI1
aI1
aI0
aI1
asS'spl'
p67
(lp68
g20
ag36
ag28
ag16
ag26
ag20
ag30
ag54
ag20
ag20
ag20
ag20
ag26
ag28
ag20
ag20
ag26
ag22
ag20
ag26
ag32
ag24
ag30
ag24
ag20
ag22
ag46
ag26
ag30
ag30
ag30
ag22
aS'11'
p69
ag42
ag24
ag20
ag20
ag26
ag30
ag22
ag14
ag20
ag32
ag22
ag28
ag34
ag22
ag20
ag26
ag30
ag26
ag28
ag20
ag26
ag20
ag20
ag32
ag28
ag20
ag26
ag30
aS'01'
p70
ag26
ag20
ag20
ag20
ag10
asS'ls'
p71
I76
sS'cscore'
p72
F0.6069930069930071
sb.
(i__main__
annealpoint
p0
(dp1
S'ccode'
p2
(dp3
S'xUUSY'
p4
S'z'
p5
sS'btJiA'
p6
S'u'
p7
sS'MbDsg'
p8
S'q'
p9
sS'65'
p10
S'm'
p11
sS'oBpss'
p12
S'x'
p13
sS'02'
p14
S'p'
p15
sS'01'
p16
S'y'
p17
sS'UOdNZ'
p18
S'k'
p19
sS'1'
p20
S'e'
p21
sS'0'
p22
S'r'
p23
sS'3'
p24
S'b'
p25
sS'2'
p26
S's'
p27
sS'5'
p28
S'h'
p29
sS'4'
p30
S'a'
p31
sS'7'
p32
S't'
p33
sS'9'
p34
S'f'
p35
sS'8'
p36
S'c'
p37
sS'RJmCZ'
p38
S'w'
p39
sS'wOulj'
p40
S'v'
p41
sS'94'
p42
S'i'
p43
sS'yYJMQ'
p44
S'g'
p45
sS'11'
p46
S'n'
p47
sS'gBCrd'
p48
S'l'
p49
sS'Wdppo'
p50
S'o'
p51
sS'kMbnb'
p52
S'j'
p53
sS'111'
p54
S'd'
p55
ssS'cset'
p56
c__builtin__
set
p57
((lp58
g46
ag14
ag16
ag24
ag20
ag22
ag54
ag26
ag28
ag30
ag32
ag34
ag36
ag42
ag10
atp59
Rp60
sS'annealevel'
p61
F47.80000000000041
sS'strng'
p62
(lp63
g20
ag36
ag28
ag22
ag20
ag26
ag20
ag30
ag20
ag20
ag20
ag20
ag20
ag20
ag20
ag26
ag28
ag20
ag20
ag26
ag22
ag20
ag26
ag32
ag24
ag30
ag24
ag20
ag22
ag20
ag20
ag26
ag30
ag30
ag30
ag22
ag20
ag20
ag34
ag30
ag24
ag20
ag20
ag26
ag30
ag22
ag22
ag26
ag20
ag32
ag22
ag28
ag34
ag22
ag20
ag26
ag30
ag26
ag28
ag20
ag26
ag20
ag20
ag32
ag28
ag20
ag26
ag30
ag22
ag20
ag26
ag20
ag20
ag20
aS'6'
p64
ag28
ag30
asS'csplit'
p65
(lp66
I0
aI1
aI0
aI1
aI0
aI1
aI0
aI1
aI0
aI1
aI0
aI1
aI0
aI1
aI0
aI1
aI1
aI1
aI1
aI1
aI1
aI1
aI1
aI1
aI1
aI1
aI1
aI1
aI1
aI0
aI1
aI1
aI1
aI1
aI1
aI1
aI0
aI1
aI0
aI1
aI1
aI1
aI1
aI1
aI1
aI1
aI0
aI1
aI1
aI1
aI1
aI1
aI1
aI1
aI1
aI1
aI1
aI1
aI1
aI1
aI1
aI1
aI1
aI1
aI1
aI1
aI1
aI1
aI0
aI1
aI1
aI1
aI1
aI1
aI0
aI1
asS'spl'
p67
(lp68
g20
ag36
ag28
ag16
ag26
ag20
ag30
ag54
ag20
ag20
ag20
ag20
ag26
ag28
ag20
ag20
ag26
ag22
ag20
ag26
ag32
ag24
ag30
ag24
ag20
ag22
ag46
ag26
ag30
ag30
ag30
ag22
aS'11'
p69
ag42
ag24
ag20
ag20
ag26
ag30
ag22
ag14
ag20
ag32
ag22
ag28
ag34
ag22
ag20
ag26
ag30
ag26
ag28
ag20
ag26
ag20
ag20
ag32
ag28
ag20
ag26
ag30
aS'01'
p70
ag26
ag20
ag20
ag20
ag10
asS'ls'
p71
I76
sS'cscore'
p72
F0.6226625226625226
sb.
(i__main__
annealpoint
p0
(dp1
S'ccode'
p2
(dp3
S'xUUSY'
p4
S'z'
p5
sS'btJiA'
p6
S'x'
p7
sS'MbDsg'
p8
S'y'
p9
sS'65'
p10
S'v'
p11
sS'oBpss'
p12
S'q'
p13
sS'02'
p14
S'p'
p15
sS'01'
p16
S'o'
p17
sS'UOdNZ'
p18
S'j'
p19
sS'1'
p20
S'e'
p21
sS'0'
p22
S'i'
p23
sS'3'
p24
S'r'
p25
sS'2'
p26
S's'
p27
sS'5'
p28
S'h'
p29
sS'4'
p30
S't'
p31
sS'7'
p32
S'c'
p33
sS'9'
p34
S'l'
p35
sS'8'
p36
S'w'
p37
sS'RJmCZ'
p38
S'b'
p39
sS'wOulj'
p40
S'n'
p41
sS'94'
p42
S'g'
p43
sS'yYJMQ'
p44
S'k'
p45
sS'11'
p46
S'a'
p47
sS'gBCrd'
p48
S'm'
p49
sS'Wdppo'
p50
S'f'
p51
sS'kMbnb'
p52
S'u'
p53
sS'111'
p54
S'd'
p55
ssS'cset'
p56
c__builtin__
set
p57
((lp58
g46
ag14
ag16
ag24
ag20
ag22
ag54
ag26
ag28
ag30
ag32
ag34
ag36
ag42
ag10
atp59
Rp60
sS'annealevel'
p61
F61.1000000000006
sS'strng'
p62
(lp63
g20
ag36
ag28
ag22
ag20
ag26
ag20
ag30
ag20
ag20
ag20
ag20
ag20
ag20
ag20
ag26
ag28
ag20
ag20
ag26
ag22
ag20
ag26
ag32
ag24
ag30
ag24
ag20
ag22
ag20
ag20
ag26
ag30
ag30
ag30
ag22
ag20
ag20
ag34
ag30
ag24
ag20
ag20
ag26
ag30
ag22
ag22
ag26
ag20
ag32
ag22
ag28
ag34
ag22
ag20
ag26
ag30
ag26
ag28
ag20
ag26
ag20
ag20
ag32
ag28
ag20
ag26
ag30
ag22
ag20
ag26
ag20
ag20
ag20
aS'6'
p64
ag28
ag30
asS'csplit'
p65
(lp66
I0
aI1
aI0
aI1
aI0
aI1
aI0
aI1
aI0
aI1
aI0
aI1
aI0
aI1
aI0
aI1
aI1
aI1
aI1
aI1
aI1
aI1
aI1
aI1
aI1
aI1
aI1
aI1
aI1
aI0
aI1
aI1
aI1
aI1
aI1
aI1
aI0
aI1
aI0
aI1
aI1
aI1
aI1
aI1
aI1
aI1
aI0
aI1
aI1
aI1
aI1
aI1
aI1
aI1
aI1
aI1
aI1
aI1
aI1
aI1
aI1
aI1
aI1
aI1
aI1
aI1
aI1
aI1
aI0
aI1
aI1
aI1
aI1
aI1
aI0
aI1
asS'spl'
p67
(lp68
g20
ag36
ag28
ag16
ag26
ag20
ag30
ag54
ag20
ag20
ag20
ag20
ag26
ag28
ag20
ag20
ag26
ag22
ag20
ag26
ag32
ag24
ag30
ag24
ag20
ag22
ag46
ag26
ag30
ag30
ag30
ag22
aS'11'
p69
ag42
ag24
ag20
ag20
ag26
ag30
ag22
ag14
ag20
ag32
ag22
ag28
ag34
ag22
ag20
ag26
ag30
ag26
ag28
ag20
ag26
ag20
ag20
ag32
ag28
ag20
ag26
ag30
aS'01'
p70
ag26
ag20
ag20
ag20
ag10
asS'ls'
p71
I76
sS'cscore'
p72
F0.6408572908572908
sb.
(i__main__
annealpoint
p0
(dp1
S'ccode'
p2
(dp3
S'xUUSY'
p4
S'x'
p5
sS'btJiA'
p6
S'j'
p7
sS'MbDsg'
p8
S'z'
p9
sS'65'
p10
S'l'
p11
sS'oBpss'
p12
S'd'
p13
sS'02'
p14
S'u'
p15
sS'01'
p16
S'o'
p17
sS'UOdNZ'
p18
S'v'
p19
sS'1'
p20
S'e'
p21
sS'0'
p22
S'r'
p23
sS'3'
p24
S'i'
p25
sS'2'
p26
S's'
p27
sS'5'
p28
S'h'
p29
sS'4'
p30
S't'
p31
sS'7'
p32
S'c'
p33
sS'9'
p34
S'y'
p35
sS'8'
p36
S'w'
p37
sS'RJmCZ'
p38
S'm'
p39
sS'wOulj'
p40
S'n'
p41
sS'94'
p42
S'b'
p43
sS'yYJMQ'
p44
S'k'
p45
sS'11'
p46
S'a'
p47
sS'gBCrd'
p48
S'f'
p49
sS'Wdppo'
p50
S'q'
p51
sS'kMbnb'
p52
S'g'
p53
sS'111'
p54
S'p'
p55
ssS'cset'
p56
c__builtin__
set
p57
((lp58
g46
ag14
ag16
ag24
ag20
ag22
ag54
ag26
ag28
ag30
ag32
ag34
ag36
ag42
ag10
atp59
Rp60
sS'annealevel'
p61
F61.600000000000605
sS'strng'
p62
(lp63
g20
ag36
ag28
ag22
ag20
ag26
ag20
ag30
ag20
ag20
ag20
ag20
ag20
ag20
ag20
ag26
ag28
ag20
ag20
ag26
ag22
ag20
ag26
ag32
ag24
ag30
ag24
ag20
ag22
ag20
ag20
ag26
ag30
ag30
ag30
ag22
ag20
ag20
ag34
ag30
ag24
ag20
ag20
ag26
ag30
ag22
ag22
ag26
ag20
ag32
ag22
ag28
ag34
ag22
ag20
ag26
ag30
ag26
ag28
ag20
ag26
ag20
ag20
ag32
ag28
ag20
ag26
ag30
ag22
ag20
ag26
ag20
ag20
ag20
aS'6'
p64
ag28
ag30
asS'csplit'
p65
(lp66
I0
aI1
aI0
aI1
aI0
aI1
aI0
aI1
aI0
aI1
aI0
aI1
aI0
aI1
aI0
aI1
aI1
aI1
aI1
aI1
aI1
aI1
aI1
aI1
aI1
aI1
aI1
aI1
aI1
aI0
aI1
aI1
aI1
aI1
aI1
aI1
aI0
aI1
aI0
aI1
aI1
aI1
aI1
aI1
aI1
aI1
aI0
aI1
aI1
aI1
aI1
aI1
aI1
aI1
aI1
aI1
aI1
aI1
aI1
aI1
aI1
aI1
aI1
aI1
aI1
aI1
aI1
aI1
aI0
aI1
aI1
aI1
aI1
aI1
aI0
aI1
asS'spl'
p67
(lp68
g20
ag36
ag28
ag16
ag26
ag20
ag30
ag54
ag20
ag20
ag20
ag20
ag26
ag28
ag20
ag20
ag26
ag22
ag20
ag26
ag32
ag24
ag30
ag24
ag20
ag22
ag46
ag26
ag30
ag30
ag30
ag22
aS'11'
p69
ag42
ag24
ag20
ag20
ag26
ag30
ag22
ag14
ag20
ag32
ag22
ag28
ag34
ag22
ag20
ag26
ag30
ag26
ag28
ag20
ag26
ag20
ag20
ag32
ag28
ag20
ag26
ag30
aS'01'
p70
ag26
ag20
ag20
ag20
ag10
asS'ls'
p71
I76
sS'cscore'
p72
F0.6833074333074334
sb.
(i__main__
annealpoint
p0
(dp1
S'ccode'
p2
(dp3
S'xUUSY'
p4
S'm'
p5
sS'btJiA'
p6
S'x'
p7
sS'MbDsg'
p8
S'g'
p9
sS'65'
p10
S'q'
p11
sS'oBpss'
p12
S'b'
p13
sS'02'
p14
S'v'
p15
sS'01'
p16
S'o'
p17
sS'UOdNZ'
p18
S'f'
p19
sS'1'
p20
S'e'
p21
sS'0'
p22
S'l'
p23
sS'3'
p24
S'i'
p25
sS'2'
p26
S's'
p27
sS'5'
p28
S'h'
p29
sS'4'
p30
S't'
p31
sS'7'
p32
S'c'
p33
sS'9'
p34
S'p'
p35
sS'8'
p36
S'w'
p37
sS'RJmCZ'
p38
S'u'
p39
sS'wOulj'
p40
S'n'
p41
sS'94'
p42
S'd'
p43
sS'yYJMQ'
p44
S'k'
p45
sS'11'
p46
S'a'
p47
sS'gBCrd'
p48
S'r'
p49
sS'Wdppo'
p50
S'z'
p51
sS'kMbnb'
p52
S'j'
p53
sS'111'
p54
S'y'
p55
ssS'cset'
p56
c__builtin__
set
p57
((lp58
g46
ag14
ag16
ag24
ag20
ag22
ag54
ag26
ag28
ag30
ag32
ag34
ag36
ag42
ag10
atp59
Rp60
sS'annealevel'
p61
F75.39999999999999
sS'strng'
p62
(lp63
g20
ag36
ag28
ag22
ag20
ag26
ag20
ag30
ag20
ag20
ag20
ag20
ag20
ag20
ag20
ag26
ag28
ag20
ag20
ag26
ag22
ag20
ag26
ag32
ag24
ag30
ag24
ag20
ag22
ag20
ag20
ag26
ag30
ag30
ag30
ag22
ag20
ag20
ag34
ag30
ag24
ag20
ag20
ag26
ag30
ag22
ag22
ag26
ag20
ag32
ag22
ag28
ag34
ag22
ag20
ag26
ag30
ag26
ag28
ag20
ag26
ag20
ag20
ag32
ag28
ag20
ag26
ag30
ag22
ag20
ag26
ag20
ag20
ag20
aS'6'
p64
ag28
ag30
asS'csplit'
p65
(lp66
I0
aI1
aI0
aI1
aI0
aI1
aI0
aI1
aI0
aI1
aI0
aI1
aI0
aI1
aI0
aI1
aI1
aI1
aI1
aI1
aI1
aI1
aI1
aI1
aI1
aI1
aI1
aI1
aI1
aI0
aI1
aI1
aI1
aI1
aI1
aI1
aI0
aI1
aI0
aI1
aI1
aI1
aI1
aI1
aI1
aI1
aI0
aI1
aI1
aI1
aI1
aI1
aI1
aI1
aI1
aI1
aI1
aI1
aI1
aI1
aI1
aI1
aI1
aI1
aI1
aI1
aI1
aI1
aI0
aI1
aI1
aI1
aI1
aI1
aI0
aI1
asS'spl'
p67
(lp68
g20
ag36
ag28
ag16
ag26
ag20
ag30
ag54
ag20
ag20
ag20
ag20
ag26
ag28
ag20
ag20
ag26
ag22
ag20
ag26
ag32
ag24
ag30
ag24
ag20
ag22
ag46
ag26
ag30
ag30
ag30
ag22
aS'11'
p69
ag42
ag24
ag20
ag20
ag26
ag30
ag22
ag14
ag20
ag32
ag22
ag28
ag34
ag22
ag20
ag26
ag30
ag26
ag28
ag20
ag26
ag20
ag20
ag32
ag28
ag20
ag26
ag30
aS'01'
p70
ag26
ag20
ag20
ag20
ag10
asS'ls'
p71
I76
sS'cscore'
p72
F0.6878399378399379
sb.
(i__main__
annealpoint
p0
(dp1
S'ccode'
p2
(dp3
S'xUUSY'
p4
S'z'
p5
sS'btJiA'
p6
S'u'
p7
sS'MbDsg'
p8
S'x'
p9
sS'65'
p10
S'v'
p11
sS'oBpss'
p12
S'g'
p13
sS'02'
p14
S'y'
p15
sS'01'
p16
S'o'
p17
sS'UOdNZ'
p18
S'b'
p19
sS'1'
p20
S'e'
p21
sS'0'
p22
S'l'
p23
sS'3'
p24
S'i'
p25
sS'2'
p26
S's'
p27
sS'5'
p28
S'h'
p29
sS'4'
p30
S't'
p31
sS'7'
p32
S'c'
p33
sS'9'
p34
S'p'
p35
sS'8'
p36
S'w'
p37
sS'RJmCZ'
p38
S'j'
p39
sS'wOulj'
p40
S'k'
p41
sS'94'
p42
S'd'
p43
sS'yYJMQ'
p44
S'q'
p45
sS'11'
p46
S'a'
p47
sS'gBCrd'
p48
S'm'
p49
sS'Wdppo'
p50
S'n'
p51
sS'kMbnb'
p52
S'r'
p53
sS'111'
p54
S'f'
p55
ssS'cset'
p56
c__builtin__
set
p57
((lp58
g46
ag14
ag16
ag24
ag20
ag22
ag54
ag26
ag28
ag30
ag32
ag34
ag36
ag42
ag10
atp59
Rp60
sS'annealevel'
p61
F76.19999999999995
sS'strng'
p62
(lp63
g20
ag36
ag28
ag22
ag20
ag26
ag20
ag30
ag20
ag20
ag20
ag20
ag20
ag20
ag20
ag26
ag28
ag20
ag20
ag26
ag22
ag20
ag26
ag32
ag24
ag30
ag24
ag20
ag22
ag20
ag20
ag26
ag30
ag30
ag30
ag22
ag20
ag20
ag34
ag30
ag24
ag20
ag20
ag26
ag30
ag22
ag22
ag26
ag20
ag32
ag22
ag28
ag34
ag22
ag20
ag26
ag30
ag26
ag28
ag20
ag26
ag20
ag20
ag32
ag28
ag20
ag26
ag30
ag22
ag20
ag26
ag20
ag20
ag20
aS'6'
p64
ag28
ag30
asS'csplit'
p65
(lp66
I0
aI1
aI0
aI1
aI0
aI1
aI0
aI1
aI0
aI1
aI0
aI1
aI0
aI1
aI0
aI1
aI1
aI1
aI1
aI1
aI1
aI1
aI1
aI1
aI1
aI1
aI1
aI1
aI1
aI0
aI1
aI1
aI1
aI1
aI1
aI1
aI0
aI1
aI0
aI1
aI1
aI1
aI1
aI1
aI1
aI1
aI0
aI1
aI1
aI1
aI1
aI1
aI1
aI1
aI1
aI1
aI1
aI1
aI1
aI1
aI1
aI1
aI1
aI1
aI1
aI1
aI1
aI1
aI0
aI1
aI1
aI1
aI1
aI1
aI0
aI1
asS'spl'
p67
(lp68
g20
ag36
ag28
ag16
ag26
ag20
ag30
ag54
ag20
ag20
ag20
ag20
ag26
ag28
ag20
ag20
ag26
ag22
ag20
ag26
ag32
ag24
ag30
ag24
ag20
ag22
ag46
ag26
ag30
ag30
ag30
ag22
aS'11'
p69
ag42
ag24
ag20
ag20
ag26
ag30
ag22
ag14
ag20
ag32
ag22
ag28
ag34
ag22
ag20
ag26
ag30
ag26
ag28
ag20
ag26
ag20
ag20
ag32
ag28
ag20
ag26
ag30
aS'01'
p70
ag26
ag20
ag20
ag20
ag10
asS'ls'
p71
I76
sS'cscore'
p72
F0.7237114737114737
sb.
(i__main__
annealpoint
p0
(dp1
S'ccode'
p2
(dp3
S'DhiNE'
p4
S'm'
p5
sS'RhCRM'
p6
S'u'
p7
sS'01'
p8
S'i'
p9
sS'21'
p10
S'k'
p11
sS'CpNBk'
p12
S'z'
p13
sS'1'
p14
S'e'
p15
sS'0'
p16
S'o'
p17
sS'3'
p18
S'h'
p19
sS'2'
p20
S's'
p21
sS'5'
p22
S'w'
p23
sS'4'
p24
S't'
p25
sS'7'
p26
S'l'
p27
sS'6'
p28
S'f'
p29
sS'9'
p30
S'd'
p31
sS'8'
p32
S'n'
p33
sS'gczls'
p34
S'j'
p35
sS'XIqBt'
p36
S'q'
p37
sS'240'
p38
S'v'
p39
sS'127'
p40
S'c'
p41
sS'CxCBO'
p42
S'x'
p43
sS'11'
p44
S'b'
p45
sS'12'
p46
S'g'
p47
sS'17'
p48
S'a'
p49
sS'50'
p50
S'r'
p51
sS'AqXmc'
p52
S'y'
p53
sS'BZCoE'
p54
S'p'
p55
ssS'cset'
p56
c__builtin__
set
p57
((lp58
g44
ag28
ag46
ag8
ag48
ag38
ag50
ag14
ag16
ag18
ag20
ag22
ag24
ag26
ag40
ag30
ag32
ag10
atp59
Rp60
sS'annealevel'
p61
F79.59999999999975
sS'strng'
p62
(lp63
g14
ag32
ag22
ag16
ag14
ag20
ag14
ag24
ag14
ag14
ag14
ag14
ag14
ag14
ag14
ag20
ag22
ag14
ag14
ag20
ag16
ag14
ag20
ag26
ag18
ag24
ag18
ag14
ag16
ag14
ag14
ag20
ag24
ag24
ag24
ag16
ag14
ag14
ag30
ag24
ag18
ag14
ag14
ag20
ag24
ag16
ag16
ag20
ag14
ag26
ag16
ag22
ag30
ag16
ag14
ag20
ag24
ag20
ag22
ag14
ag20
ag14
ag14
ag26
ag22
ag14
ag20
ag24
ag16
ag14
ag20
ag14
ag14
ag14
ag28
ag22
ag24
asS'csplit'
p64
(lp65
I0
aI1
aI0
aI1
aI0
aI1
aI0
aI1
aI0
aI1
aI0
aI1
aI0
aI1
aI0
aI1
aI1
aI1
aI0
aI1
aI1
aI0
aI0
aI1
aI1
aI1
aI1
aI1
aI1
aI0
aI1
aI1
aI1
aI1
aI1
aI0
aI1
aI1
aI1
aI1
aI1
aI1
aI1
aI1
aI1
aI1
aI1
aI0
aI1
aI1
aI1
aI1
aI1
aI1
aI1
aI1
aI1
aI1
aI1
aI1
aI1
aI1
aI0
aI1
aI1
aI1
aI0
aI0
aI1
aI1
aI1
aI1
aI1
aI1
aI1
aI1
asS'spl'
p66
(lp67
g14
ag32
ag50
ag14
ag20
ag14
ag24
ag14
ag14
ag14
ag14
ag14
ag14
ag14
ag20
ag22
ag14
ag46
ag16
ag40
ag18
ag24
ag18
ag14
ag16
ag44
ag20
ag24
ag24
ag24
ag8
ag14
ag30
ag24
ag18
ag14
ag14
ag20
ag24
ag16
ag16
ag10
ag26
ag16
ag22
ag30
ag16
ag14
ag20
ag24
ag20
ag22
ag14
ag20
ag14
ag48
ag22
ag14
ag38
ag14
ag20
ag14
ag14
ag14
ag28
ag22
asS'ls'
p68
I76
sS'cscore'
p69
F0.7336182336182335
sb.
(i__main__
annealpoint
p0
(dp1
S'ccode'
p2
(dp3
S'DhiNE'
p4
S'y'
p5
sS'RhCRM'
p6
S'q'
p7
sS'01'
p8
S'r'
p9
sS'21'
p10
S'k'
p11
sS'CpNBk'
p12
S'i'
p13
sS'1'
p14
S'e'
p15
sS'0'
p16
S'o'
p17
sS'3'
p18
S'h'
p19
sS'2'
p20
S's'
p21
sS'5'
p22
S'w'
p23
sS'4'
p24
S't'
p25
sS'7'
p26
S'l'
p27
sS'6'
p28
S'x'
p29
sS'9'
p30
S'd'
p31
sS'8'
p32
S'n'
p33
sS'gczls'
p34
S'p'
p35
sS'XIqBt'
p36
S'u'
p37
sS'240'
p38
S'v'
p39
sS'127'
p40
S'f'
p41
sS'CxCBO'
p42
S'z'
p43
sS'11'
p44
S'b'
p45
sS'12'
p46
S'a'
p47
sS'17'
p48
S'm'
p49
sS'50'
p50
S'c'
p51
sS'AqXmc'
p52
S'j'
p53
sS'BZCoE'
p54
S'g'
p55
ssS'cset'
p56
c__builtin__
set
p57
((lp58
g44
ag28
ag46
ag8
ag48
ag38
ag50
ag14
ag16
ag18
ag20
ag22
ag24
ag26
ag40
ag30
ag32
ag10
atp59
Rp60
sS'annealevel'
p61
F85.99999999999939
sS'strng'
p62
(lp63
g14
ag32
ag22
ag16
ag14
ag20
ag14
ag24
ag14
ag14
ag14
ag14
ag14
ag14
ag14
ag20
ag22
ag14
ag14
ag20
ag16
ag14
ag20
ag26
ag18
ag24
ag18
ag14
ag16
ag14
ag14
ag20
ag24
ag24
ag24
ag16
ag14
ag14
ag30
ag24
ag18
ag14
ag14
ag20
ag24
ag16
ag16
ag20
ag14
ag26
ag16
ag22
ag30
ag16
ag14
ag20
ag24
ag20
ag22
ag14
ag20
ag14
ag14
ag26
ag22
ag14
ag20
ag24
ag16
ag14
ag20
ag14
ag14
ag14
ag28
ag22
ag24
asS'csplit'
p64
(lp65
I0
aI1
aI0
aI1
aI0
aI1
aI0
aI1
aI0
aI1
aI0
aI1
aI0
aI1
aI0
aI1
aI1
aI1
aI0
aI1
aI1
aI0
aI0
aI1
aI1
aI1
aI1
aI1
aI1
aI0
aI1
aI1
aI1
aI1
aI1
aI0
aI1
aI1
aI1
aI1
aI1
aI1
aI1
aI1
aI1
aI1
aI1
aI0
aI1
aI1
aI1
aI1
aI1
aI1
aI1
aI1
aI1
aI1
aI1
aI1
aI1
aI1
aI0
aI1
aI1
aI1
aI0
aI0
aI1
aI1
aI1
aI1
aI1
aI1
aI1
aI1
asS'spl'
p66
(lp67
g14
ag32
ag50
ag14
ag20
ag14
ag24
ag14
ag14
ag14
ag14
ag14
ag14
ag14
ag20
ag22
ag14
ag46
ag16
ag40
ag18
ag24
ag18
ag14
ag16
ag44
ag20
ag24
ag24
ag24
ag8
ag14
ag30
ag24
ag18
ag14
ag14
ag20
ag24
ag16
ag16
ag10
ag26
ag16
ag22
ag30
ag16
ag14
ag20
ag24
ag20
ag22
ag14
ag20
ag14
ag48
ag22
ag14
ag38
ag14
ag20
ag14
ag14
ag14
ag28
ag22
asS'ls'
p68
I76
sS'cscore'
p69
F0.7401709401709401
sb.
(i__main__
annealpoint
p0
(dp1
S'ccode'
p2
(dp3
S'DhiNE'
p4
S'j'
p5
sS'RhCRM'
p6
S'v'
p7
sS'01'
p8
S'l'
p9
sS'21'
p10
S'k'
p11
sS'CpNBk'
p12
S'p'
p13
sS'1'
p14
S'e'
p15
sS'0'
p16
S'o'
p17
sS'3'
p18
S'h'
p19
sS'2'
p20
S's'
p21
sS'5'
p22
S'w'
p23
sS'4'
p24
S't'
p25
sS'7'
p26
S'n'
p27
sS'6'
p28
S'x'
p29
sS'9'
p30
S'd'
p31
sS'8'
p32
S'm'
p33
sS'gczls'
p34
S'z'
p35
sS'XIqBt'
p36
S'g'
p37
sS'240'
p38
S'r'
p39
sS'127'
p40
S'i'
p41
sS'CxCBO'
p42
S'q'
p43
sS'11'
p44
S'b'
p45
sS'12'
p46
S'a'
p47
sS'17'
p48
S'f'
p49
sS'50'
p50
S'y'
p51
sS'AqXmc'
p52
S'u'
p53
sS'BZCoE'
p54
S'c'
p55
ssS'cset'
p56
c__builtin__
set
p57
((lp58
g44
ag28
ag46
ag8
ag48
ag38
ag50
ag14
ag16
ag18
ag20
ag22
ag24
ag26
ag40
ag30
ag32
ag10
atp59
Rp60
sS'annealevel'
p61
F120.39999999999743
sS'strng'
p62
(lp63
g14
ag32
ag22
ag16
ag14
ag20
ag14
ag24
ag14
ag14
ag14
ag14
ag14
ag14
ag14
ag20
ag22
ag14
ag14
ag20
ag16
ag14
ag20
ag26
ag18
ag24
ag18
ag14
ag16
ag14
ag14
ag20
ag24
ag24
ag24
ag16
ag14
ag14
ag30
ag24
ag18
ag14
ag14
ag20
ag24
ag16
ag16
ag20
ag14
ag26
ag16
ag22
ag30
ag16
ag14
ag20
ag24
ag20
ag22
ag14
ag20
ag14
ag14
ag26
ag22
ag14
ag20
ag24
ag16
ag14
ag20
ag14
ag14
ag14
ag28
ag22
ag24
asS'csplit'
p64
(lp65
I0
aI1
aI0
aI1
aI0
aI1
aI0
aI1
aI0
aI1
aI0
aI1
aI0
aI1
aI0
aI1
aI1
aI1
aI0
aI1
aI1
aI0
aI0
aI1
aI1
aI1
aI1
aI1
aI1
aI0
aI1
aI1
aI1
aI1
aI1
aI0
aI1
aI1
aI1
aI1
aI1
aI1
aI1
aI1
aI1
aI1
aI1
aI0
aI1
aI1
aI1
aI1
aI1
aI1
aI1
aI1
aI1
aI1
aI1
aI1
aI1
aI1
aI0
aI1
aI1
aI1
aI0
aI0
aI1
aI1
aI1
aI1
aI1
aI1
aI1
aI1
asS'spl'
p66
(lp67
g14
ag32
ag50
ag14
ag20
ag14
ag24
ag14
ag14
ag14
ag14
ag14
ag14
ag14
ag20
ag22
ag14
ag46
ag16
ag40
ag18
ag24
ag18
ag14
ag16
ag44
ag20
ag24
ag24
ag24
ag8
ag14
ag30
ag24
ag18
ag14
ag14
ag20
ag24
ag16
ag16
ag10
ag26
ag16
ag22
ag30
ag16
ag14
ag20
ag24
ag20
ag22
ag14
ag20
ag14
ag48
ag22
ag14
ag38
ag14
ag20
ag14
ag14
ag14
ag28
ag22
asS'ls'
p68
I76
sS'cscore'
p69
F0.7447293447293447
sb.
(i__main__
annealpoint
p0
(dp1
S'ccode'
p2
(dp3
S'DhiNE'
p4
S'j'
p5
sS'RhCRM'
p6
S'u'
p7
sS'01'
p8
S'l'
p9
sS'21'
p10
S'k'
p11
sS'CpNBk'
p12
S'q'
p13
sS'1'
p14
S'e'
p15
sS'0'
p16
S'o'
p17
sS'3'
p18
S'h'
p19
sS'2'
p20
S's'
p21
sS'5'
p22
S'w'
p23
sS'4'
p24
S't'
p25
sS'7'
p26
S'n'
p27
sS'6'
p28
S'x'
p29
sS'9'
p30
S'd'
p31
sS'8'
p32
S'm'
p33
sS'gczls'
p34
S'z'
p35
sS'XIqBt'
p36
S'a'
p37
sS'240'
p38
S'r'
p39
sS'127'
p40
S'i'
p41
sS'CxCBO'
p42
S'p'
p43
sS'11'
p44
S'b'
p45
sS'12'
p46
S'g'
p47
sS'17'
p48
S'f'
p49
sS'50'
p50
S'y'
p51
sS'AqXmc'
p52
S'c'
p53
sS'BZCoE'
p54
S'v'
p55
ssS'cset'
p56
c__builtin__
set
p57
((lp58
g44
ag28
ag46
ag8
ag48
ag38
ag50
ag14
ag16
ag18
ag20
ag22
ag24
ag26
ag40
ag30
ag32
ag10
atp59
Rp60
sS'annealevel'
p61
F120.49999999999743
sS'strng'
p62
(lp63
g14
ag32
ag22
ag16
ag14
ag20
ag14
ag24
ag14
ag14
ag14
ag14
ag14
ag14
ag14
ag20
ag22
ag14
ag14
ag20
ag16
ag14
ag20
ag26
ag18
ag24
ag18
ag14
ag16
ag14
ag14
ag20
ag24
ag24
ag24
ag16
ag14
ag14
ag30
ag24
ag18
ag14
ag14
ag20
ag24
ag16
ag16
ag20
ag14
ag26
ag16
ag22
ag30
ag16
ag14
ag20
ag24
ag20
ag22
ag14
ag20
ag14
ag14
ag26
ag22
ag14
ag20
ag24
ag16
ag14
ag20
ag14
ag14
ag14
ag28
ag22
ag24
asS'csplit'
p64
(lp65
I0
aI1
aI0
aI1
aI0
aI1
aI0
aI1
aI0
aI1
aI0
aI1
aI0
aI1
aI0
aI1
aI1
aI1
aI0
aI1
aI1
aI0
aI0
aI1
aI1
aI1
aI1
aI1
aI1
aI0
aI1
aI1
aI1
aI1
aI1
aI0
aI1
aI1
aI1
aI1
aI1
aI1
aI1
aI1
aI1
aI1
aI1
aI0
aI1
aI1
aI1
aI1
aI1
aI1
aI1
aI1
aI1
aI1
aI1
aI1
aI1
aI1
aI0
aI1
aI1
aI1
aI0
aI0
aI1
aI1
aI1
aI1
aI1
aI1
aI1
aI1
asS'spl'
p66
(lp67
g14
ag32
ag50
ag14
ag20
ag14
ag24
ag14
ag14
ag14
ag14
ag14
ag14
ag14
ag20
ag22
ag14
ag46
ag16
ag40
ag18
ag24
ag18
ag14
ag16
ag44
ag20
ag24
ag24
ag24
ag8
ag14
ag30
ag24
ag18
ag14
ag14
ag20
ag24
ag16
ag16
ag10
ag26
ag16
ag22
ag30
ag16
ag14
ag20
ag24
ag20
ag22
ag14
ag20
ag14
ag48
ag22
ag14
ag38
ag14
ag20
ag14
ag14
ag14
ag28
ag22
asS'ls'
p68
I76
sS'cscore'
p69
F0.7492877492877492
sb.
(i__main__
annealpoint
p0
(dp1
S'ccode'
p2
(dp3
S'DhiNE'
p4
S'g'
p5
sS'RhCRM'
p6
S'f'
p7
sS'01'
p8
S'l'
p9
sS'21'
p10
S'p'
p11
sS'CpNBk'
p12
S'x'
p13
sS'1'
p14
S'e'
p15
sS'0'
p16
S'o'
p17
sS'3'
p18
S'h'
p19
sS'2'
p20
S's'
p21
sS'5'
p22
S'w'
p23
sS'4'
p24
S't'
p25
sS'7'
p26
S'n'
p27
sS'6'
p28
S'a'
p29
sS'9'
p30
S'd'
p31
sS'8'
p32
S'k'
p33
sS'gczls'
p34
S'c'
p35
sS'XIqBt'
p36
S'q'
p37
sS'240'
p38
S'v'
p39
sS'127'
p40
S'u'
p41
sS'CxCBO'
p42
S'i'
p43
sS'11'
p44
S'b'
p45
sS'12'
p46
S'y'
p47
sS'17'
p48
S'm'
p49
sS'50'
p50
S'r'
p51
sS'AqXmc'
p52
S'z'
p53
sS'BZCoE'
p54
S'j'
p55
ssS'cset'
p56
c__builtin__
set
p57
((lp58
g44
ag28
ag46
ag8
ag48
ag38
ag50
ag14
ag16
ag18
ag20
ag22
ag24
ag26
ag40
ag30
ag32
ag10
atp59
Rp60
sS'annealevel'
p61
F129.7999999999969
sS'strng'
p62
(lp63
g14
ag32
ag22
ag16
ag14
ag20
ag14
ag24
ag14
ag14
ag14
ag14
ag14
ag14
ag14
ag20
ag22
ag14
ag14
ag20
ag16
ag14
ag20
ag26
ag18
ag24
ag18
ag14
ag16
ag14
ag14
ag20
ag24
ag24
ag24
ag16
ag14
ag14
ag30
ag24
ag18
ag14
ag14
ag20
ag24
ag16
ag16
ag20
ag14
ag26
ag16
ag22
ag30
ag16
ag14
ag20
ag24
ag20
ag22
ag14
ag20
ag14
ag14
ag26
ag22
ag14
ag20
ag24
ag16
ag14
ag20
ag14
ag14
ag14
ag28
ag22
ag24
asS'csplit'
p64
(lp65
I0
aI1
aI0
aI1
aI0
aI1
aI0
aI1
aI0
aI1
aI0
aI1
aI0
aI1
aI0
aI1
aI1
aI1
aI0
aI1
aI1
aI0
aI0
aI1
aI1
aI1
aI1
aI1
aI1
aI0
aI1
aI1
aI1
aI1
aI1
aI0
aI1
aI1
aI1
aI1
aI1
aI1
aI1
aI1
aI1
aI1
aI1
aI0
aI1
aI1
aI1
aI1
aI1
aI1
aI1
aI1
aI1
aI1
aI1
aI1
aI1
aI1
aI0
aI1
aI1
aI1
aI0
aI0
aI1
aI1
aI1
aI1
aI1
aI1
aI1
aI1
asS'spl'
p66
(lp67
g14
ag32
ag50
ag14
ag20
ag14
ag24
ag14
ag14
ag14
ag14
ag14
ag14
ag14
ag20
ag22
ag14
ag46
ag16
ag40
ag18
ag24
ag18
ag14
ag16
ag44
ag20
ag24
ag24
ag24
ag8
ag14
ag30
ag24
ag18
ag14
ag14
ag20
ag24
ag16
ag16
ag10
ag26
ag16
ag22
ag30
ag16
ag14
ag20
ag24
ag20
ag22
ag14
ag20
ag14
ag48
ag22
ag14
ag38
ag14
ag20
ag14
ag14
ag14
ag28
ag22
asS'ls'
p68
I76
sS'cscore'
p69
F0.7492877492877494
sb.
(i__main__
annealpoint
p0
(dp1
S'ccode'
p2
(dp3
S'DhiNE'
p4
S'q'
p5
sS'RhCRM'
p6
S'i'
p7
sS'01'
p8
S'l'
p9
sS'21'
p10
S'k'
p11
sS'CpNBk'
p12
S'c'
p13
sS'1'
p14
S'e'
p15
sS'0'
p16
S'o'
p17
sS'3'
p18
S'h'
p19
sS'2'
p20
S's'
p21
sS'5'
p22
S'w'
p23
sS'4'
p24
S't'
p25
sS'7'
p26
S'n'
p27
sS'6'
p28
S'x'
p29
sS'9'
p30
S'd'
p31
sS'8'
p32
S'm'
p33
sS'gczls'
p34
S'z'
p35
sS'XIqBt'
p36
S'p'
p37
sS'240'
p38
S'v'
p39
sS'127'
p40
S'u'
p41
sS'CxCBO'
p42
S'j'
p43
sS'11'
p44
S'b'
p45
sS'12'
p46
S'a'
p47
sS'17'
p48
S'r'
p49
sS'50'
p50
S'y'
p51
sS'AqXmc'
p52
S'g'
p53
sS'BZCoE'
p54
S'f'
p55
ssS'cset'
p56
c__builtin__
set
p57
((lp58
g44
ag28
ag46
ag8
ag48
ag38
ag50
ag14
ag16
ag18
ag20
ag22
ag24
ag26
ag40
ag30
ag32
ag10
atp59
Rp60
sS'annealevel'
p61
F139.09999999999638
sS'strng'
p62
(lp63
g14
ag32
ag22
ag16
ag14
ag20
ag14
ag24
ag14
ag14
ag14
ag14
ag14
ag14
ag14
ag20
ag22
ag14
ag14
ag20
ag16
ag14
ag20
ag26
ag18
ag24
ag18
ag14
ag16
ag14
ag14
ag20
ag24
ag24
ag24
ag16
ag14
ag14
ag30
ag24
ag18
ag14
ag14
ag20
ag24
ag16
ag16
ag20
ag14
ag26
ag16
ag22
ag30
ag16
ag14
ag20
ag24
ag20
ag22
ag14
ag20
ag14
ag14
ag26
ag22
ag14
ag20
ag24
ag16
ag14
ag20
ag14
ag14
ag14
ag28
ag22
ag24
asS'csplit'
p64
(lp65
I0
aI1
aI0
aI1
aI0
aI1
aI0
aI1
aI0
aI1
aI0
aI1
aI0
aI1
aI0
aI1
aI1
aI1
aI0
aI1
aI1
aI0
aI0
aI1
aI1
aI1
aI1
aI1
aI1
aI0
aI1
aI1
aI1
aI1
aI1
aI0
aI1
aI1
aI1
aI1
aI1
aI1
aI1
aI1
aI1
aI1
aI1
aI0
aI1
aI1
aI1
aI1
aI1
aI1
aI1
aI1
aI1
aI1
aI1
aI1
aI1
aI1
aI0
aI1
aI1
aI1
aI0
aI0
aI1
aI1
aI1
aI1
aI1
aI1
aI1
aI1
asS'spl'
p66
(lp67
g14
ag32
ag50
ag14
ag20
ag14
ag24
ag14
ag14
ag14
ag14
ag14
ag14
ag14
ag20
ag22
ag14
ag46
ag16
ag40
ag18
ag24
ag18
ag14
ag16
ag44
ag20
ag24
ag24
ag24
ag8
ag14
ag30
ag24
ag18
ag14
ag14
ag20
ag24
ag16
ag16
ag10
ag26
ag16
ag22
ag30
ag16
ag14
ag20
ag24
ag20
ag22
ag14
ag20
ag14
ag48
ag22
ag14
ag38
ag14
ag20
ag14
ag14
ag14
ag28
ag22
asS'ls'
p68
I76
sS'cscore'
p69
F0.7558404558404557
sb.
(i__main__
annealpoint
p0
(dp1
S'ccode'
p2
(dp3
S'DhiNE'
p4
S'f'
p5
sS'RhCRM'
p6
S'j'
p7
sS'01'
p8
S'l'
p9
sS'21'
p10
S'p'
p11
sS'CpNBk'
p12
S'c'
p13
sS'1'
p14
S'e'
p15
sS'0'
p16
S'o'
p17
sS'3'
p18
S'h'
p19
sS'2'
p20
S's'
p21
sS'5'
p22
S'w'
p23
sS'4'
p24
S't'
p25
sS'7'
p26
S'n'
p27
sS'6'
p28
S'x'
p29
sS'9'
p30
S'd'
p31
sS'8'
p32
S'k'
p33
sS'gczls'
p34
S'y'
p35
sS'XIqBt'
p36
S'z'
p37
sS'240'
p38
S'v'
p39
sS'127'
p40
S'u'
p41
sS'CxCBO'
p42
S'g'
p43
sS'11'
p44
S'b'
p45
sS'12'
p46
S'a'
p47
sS'17'
p48
S'm'
p49
sS'50'
p50
S'r'
p51
sS'AqXmc'
p52
S'i'
p53
sS'BZCoE'
p54
S'q'
p55
ssS'cset'
p56
c__builtin__
set
p57
((lp58
g44
ag28
ag46
ag8
ag48
ag38
ag50
ag14
ag16
ag18
ag20
ag22
ag24
ag26
ag40
ag30
ag32
ag10
atp59
Rp60
sS'annealevel'
p61
F163.399999999995
sS'strng'
p62
(lp63
g14
ag32
ag22
ag16
ag14
ag20
ag14
ag24
ag14
ag14
ag14
ag14
ag14
ag14
ag14
ag20
ag22
ag14
ag14
ag20
ag16
ag14
ag20
ag26
ag18
ag24
ag18
ag14
ag16
ag14
ag14
ag20
ag24
ag24
ag24
ag16
ag14
ag14
ag30
ag24
ag18
ag14
ag14
ag20
ag24
ag16
ag16
ag20
ag14
ag26
ag16
ag22
ag30
ag16
ag14
ag20
ag24
ag20
ag22
ag14
ag20
ag14
ag14
ag26
ag22
ag14
ag20
ag24
ag16
ag14
ag20
ag14
ag14
ag14
ag28
ag22
ag24
asS'csplit'
p64
(lp65
I0
aI1
aI0
aI1
aI0
aI1
aI0
aI1
aI0
aI1
aI0
aI1
aI0
aI1
aI0
aI1
aI1
aI1
aI0
aI1
aI1
aI0
aI0
aI1
aI1
aI1
aI1
aI1
aI1
aI0
aI1
aI1
aI1
aI1
aI1
aI0
aI1
aI1
aI1
aI1
aI1
aI1
aI1
aI1
aI1
aI1
aI1
aI0
aI1
aI1
aI1
aI1
aI1
aI1
aI1
aI1
aI1
aI1
aI1
aI1
aI1
aI1
aI0
aI1
aI1
aI1
aI0
aI0
aI1
aI1
aI1
aI1
aI1
aI1
aI1
aI1
asS'spl'
p66
(lp67
g14
ag32
ag50
ag14
ag20
ag14
ag24
ag14
ag14
ag14
ag14
ag14
ag14
ag14
ag20
ag22
ag14
ag46
ag16
ag40
ag18
ag24
ag18
ag14
ag16
ag44
ag20
ag24
ag24
ag24
ag8
ag14
ag30
ag24
ag18
ag14
ag14
ag20
ag24
ag16
ag16
ag10
ag26
ag16
ag22
ag30
ag16
ag14
ag20
ag24
ag20
ag22
ag14
ag20
ag14
ag48
ag22
ag14
ag38
ag14
ag20
ag14
ag14
ag14
ag28
ag22
asS'ls'
p68
I76
sS'cscore'
p69
F0.7558404558404559
sb.
(i__main__
annealpoint
p0
(dp1
S'ccode'
p2
(dp3
S'DhiNE'
p4
S'j'
p5
sS'RhCRM'
p6
S'g'
p7
sS'01'
p8
S'l'
p9
sS'21'
p10
S'k'
p11
sS'CpNBk'
p12
S'y'
p13
sS'1'
p14
S'e'
p15
sS'0'
p16
S'o'
p17
sS'3'
p18
S'h'
p19
sS'2'
p20
S's'
p21
sS'5'
p22
S'w'
p23
sS'4'
p24
S't'
p25
sS'7'
p26
S'n'
p27
sS'6'
p28
S'f'
p29
sS'9'
p30
S'd'
p31
sS'8'
p32
S'a'
p33
sS'gczls'
p34
S'p'
p35
sS'XIqBt'
p36
S'q'
p37
sS'240'
p38
S'v'
p39
sS'127'
p40
S'u'
p41
sS'CxCBO'
p42
S'x'
p43
sS'11'
p44
S'b'
p45
sS'12'
p46
S'r'
p47
sS'17'
p48
S'm'
p49
sS'50'
p50
S'c'
p51
sS'AqXmc'
p52
S'z'
p53
sS'BZCoE'
p54
S'i'
p55
ssS'cset'
p56
c__builtin__
set
p57
((lp58
g44
ag28
ag46
ag8
ag48
ag38
ag50
ag14
ag16
ag18
ag20
ag22
ag24
ag26
ag40
ag30
ag32
ag10
atp59
Rp60
sS'annealevel'
p61
F182.49999999999392
sS'strng'
p62
(lp63
g14
ag32
ag22
ag16
ag14
ag20
ag14
ag24
ag14
ag14
ag14
ag14
ag14
ag14
ag14
ag20
ag22
ag14
ag14
ag20
ag16
ag14
ag20
ag26
ag18
ag24
ag18
ag14
ag16
ag14
ag14
ag20
ag24
ag24
ag24
ag16
ag14
ag14
ag30
ag24
ag18
ag14
ag14
ag20
ag24
ag16
ag16
ag20
ag14
ag26
ag16
ag22
ag30
ag16
ag14
ag20
ag24
ag20
ag22
ag14
ag20
ag14
ag14
ag26
ag22
ag14
ag20
ag24
ag16
ag14
ag20
ag14
ag14
ag14
ag28
ag22
ag24
asS'csplit'
p64
(lp65
I0
aI1
aI0
aI1
aI0
aI1
aI0
aI1
aI0
aI1
aI0
aI1
aI0
aI1
aI0
aI1
aI1
aI1
aI0
aI1
aI1
aI0
aI0
aI1
aI1
aI1
aI1
aI1
aI1
aI0
aI1
aI1
aI1
aI1
aI1
aI0
aI1
aI1
aI1
aI1
aI1
aI1
aI1
aI1
aI1
aI1
aI1
aI0
aI1
aI1
aI1
aI1
aI1
aI1
aI1
aI1
aI1
aI1
aI1
aI1
aI1
aI1
aI0
aI1
aI1
aI1
aI0
aI0
aI1
aI1
aI1
aI1
aI1
aI1
aI1
aI1
asS'spl'
p66
(lp67
g14
ag32
ag50
ag14
ag20
ag14
ag24
ag14
ag14
ag14
ag14
ag14
ag14
ag14
ag20
ag22
ag14
ag46
ag16
ag40
ag18
ag24
ag18
ag14
ag16
ag44
ag20
ag24
ag24
ag24
ag8
ag14
ag30
ag24
ag18
ag14
ag14
ag20
ag24
ag16
ag16
ag10
ag26
ag16
ag22
ag30
ag16
ag14
ag20
ag24
ag20
ag22
ag14
ag20
ag14
ag48
ag22
ag14
ag38
ag14
ag20
ag14
ag14
ag14
ag28
ag22
asS'ls'
p68
I76
sS'cscore'
p69
F0.7715099715099714
sb.
(i__main__
annealpoint
p0
(dp1
S'ccode'
p2
(dp3
S'rDpcV'
p4
S'y'
p5
sS'214'
p6
S'a'
p7
sS'YhERD'
p8
S't'
p9
sS'EISYO'
p10
S'o'
p11
sS'EBenw'
p12
S'm'
p13
sS'SuQlQ'
p14
S'l'
p15
sS'wcSey'
p16
S'f'
p17
sS'dSHcR'
p18
S'v'
p19
sS'1850'
p20
S'c'
p21
sS'1'
p22
S'e'
p23
sS'viEvy'
p24
S'd'
p25
sS'sDtwZ'
p26
S'z'
p27
sS'NKJwg'
p28
S'q'
p29
sS'TVpef'
p30
S'u'
p31
sS'wrcBD'
p32
S'b'
p33
sS'ZzfzZ'
p34
S'i'
p35
sS'LyJpe'
p36
S'n'
p37
sS'11'
p38
S'p'
p39
sS'uCDpc'
p40
S'x'
p41
sS'ywfuK'
p42
S'j'
p43
sS'SFnlR'
p44
S'w'
p45
sS'Kyzbp'
p46
S'k'
p47
sS'KWUSM'
p48
S's'
p49
sS'iuzNS'
p50
S'h'
p51
sS'yTbFg'
p52
S'r'
p53
sS'bJKpl'
p54
S'g'
p55
ssS'cset'
p56
c__builtin__
set
p57
((lp58
g20
ag22
ag6
ag38
atp59
Rp60
sS'annealevel'
p61
F0.1
sS'strng'
p62
(lp63
g22
aS'8'
p64
aS'5'
p65
aS'0'
p66
ag22
aS'2'
p67
ag22
aS'4'
p68
ag22
ag22
ag22
ag22
ag22
ag22
ag22
asS'csplit'
p69
(lp70
I0
aI1
aI0
aI1
aI0
aI1
aI0
aI1
aI0
aI1
aI0
aI1
aI0
aI1
aI0
aI1
asS'spl'
p71
(lp72
g20
ag22
ag6
ag38
ag22
ag22
asS'ls'
p73
I14
sS'cscore'
p74
F0.5185185185185185
sb.
(i__main__
annealpoint
p0
(dp1
S'ccode'
p2
(dp3
S'DLpYY'
p4
S'r'
p5
sS'xTsto'
p6
S'i'
p7
sS'cayps'
p8
S'y'
p9
sS'tOkaP'
p10
S'g'
p11
sS'111'
p12
S'd'
p13
sS'HnOMC'
p14
S'h'
p15
sS'85'
p16
S'u'
p17
sS'zWIch'
p18
S'k'
p19
sS'1214'
p20
S'e'
p21
sS'wMKYl'
p22
S'j'
p23
sS'gCogn'
p24
S'f'
p25
sS'1'
p26
S'o'
p27
sS'0'
p28
S'm'
p29
sS'ahlrH'
p30
S'l'
p31
sS'HVjwV'
p32
S'q'
p33
sS'DXyTh'
p34
S'v'
p35
sS'CcwNz'
p36
S'z'
p37
sS'GyFiK'
p38
S'w'
p39
sS'tVjEJ'
p40
S'x'
p41
sS'sKQUc'
p42
S'p'
p43
sS'dGRth'
p44
S'a'
p45
sS'rUqBj'
p46
S'n'
p47
sS'KkSxN'
p48
S'b'
p49
sS'OxyFe'
p50
S't'
p51
sS'MLZmU'
p52
S'c'
p53
sS'ZiDsq'
p54
S's'
p55
ssS'cset'
p56
c__builtin__
set
p57
((lp58
g26
ag28
ag12
ag20
ag16
atp59
Rp60
sS'annealevel'
p61
F0.2
sS'strng'
p62
(lp63
g26
aS'8'
p64
aS'5'
p65
ag28
ag26
aS'2'
p66
ag26
aS'4'
p67
ag26
ag26
ag26
ag26
ag26
ag26
ag26
asS'csplit'
p68
(lp69
I0
aI1
aI0
aI1
aI0
aI1
aI0
aI1
aI0
aI1
aI0
aI1
aI0
aI1
aI0
aI1
asS'spl'
p70
(lp71
g26
ag16
ag28
ag20
ag26
ag12
ag26
ag26
asS'ls'
p72
I14
sS'cscore'
p73
F0.5444444444444444
sb.
(i__main__
annealpoint
p0
(dp1
S'ccode'
p2
(dp3
S'jzNhN'
p4
S'n'
p5
sS'OMgEq'
p6
S'u'
p7
sS'aQSXF'
p8
S'z'
p9
sS'FBGDg'
p10
S'y'
p11
sS'uuZMw'
p12
S'q'
p13
sS'012'
p14
S'c'
p15
sS'111'
p16
S'f'
p17
sS'oRhpL'
p18
S'g'
p19
sS'kvDuZ'
p20
S'v'
p21
sS'HihUw'
p22
S'x'
p23
sS'aeSGV'
p24
S'j'
p25
sS'hwSqD'
p26
S'r'
p27
sS'dSLNw'
p28
S'b'
p29
sS'rQhtj'
p30
S'k'
p31
sS'csqJH'
p32
S't'
p33
sS'1'
p34
S'a'
p35
sS'5'
p36
S'e'
p37
sS'TtBzo'
p38
S'l'
p39
sS'8'
p40
S'p'
p41
sS'ELliW'
p42
S'o'
p43
sS'11'
p44
S's'
p45
sS'14'
p46
S'h'
p47
sS'SbVes'
p48
S'd'
p49
sS'jxMuS'
p50
S'm'
p51
sS'FdHVH'
p52
S'i'
p53
sS'VYhUA'
p54
S'w'
p55
ssS'cset'
p56
c__builtin__
set
p57
((lp58
g44
ag46
ag34
ag14
ag36
ag40
ag16
atp59
Rp60
sS'annealevel'
p61
F0.30000000000000004
sS'strng'
p62
(lp63
g34
ag40
ag36
aS'0'
p64
ag34
aS'2'
p65
ag34
aS'4'
p66
ag34
ag34
ag34
ag34
ag34
ag34
ag34
asS'csplit'
p67
(lp68
I0
aI1
aI0
aI1
aI0
aI1
aI0
aI1
aI0
aI1
aI0
aI1
aI0
aI1
aI0
aI1
asS'spl'
p69
(lp70
g34
ag40
ag36
ag14
ag46
ag34
ag16
ag44
asS'ls'
p71
I14
sS'cscore'
p72
F0.7666666666666666
sb.
(i__main__
annealpoint
p0
(dp1
S'ccode'
p2
(dp3
S'viZDY'
p4
S'k'
p5
sS'MVUHd'
p6
S'g'
p7
sS'LnsGe'
p8
S'h'
p9
sS'yepXf'
p10
S'b'
p11
sS'01'
p12
S'o'
p13
sS'ABGEz'
p14
S'd'
p15
sS'11111'
p16
S'a'
p17
sS'bNLkI'
p18
S'i'
p19
sS'TbCec'
p20
S'w'
p21
sS'WtOgr'
p22
S'm'
p23
sS'41'
p24
S't'
p25
sS'1'
p26
S'e'
p27
sS'2'
p28
S'v'
p29
sS'5'
p30
S'c'
p31
sS'8'
p32
S'r'
p33
sS'uRpId'
p34
S's'
p35
sS'gSWtu'
p36
S'x'
p37
sS'WNJMq'
p38
S'u'
p39
sS'epIpQ'
p40
S'q'
p41
sS'nuBik'
p42
S'f'
p43
sS'UJqdY'
p44
S'p'
p45
sS'Yeddk'
p46
S'l'
p47
sS'efNZZ'
p48
S'z'
p49
sS'zcXwo'
p50
S'j'
p51
sS'YUnqu'
p52
S'y'
p53
sS'qnUzk'
p54
S'n'
p55
ssS'cset'
p56
c__builtin__
set
p57
((lp58
g12
ag16
ag24
ag26
ag28
ag30
ag32
atp59
Rp60
sS'annealevel'
p61
F0.9999999999999999
sS'strng'
p62
(lp63
g26
ag32
ag30
aS'0'
p64
ag26
ag28
ag26
aS'4'
p65
ag26
ag26
ag26
ag26
ag26
ag26
ag26
asS'csplit'
p66
(lp67
I0
aI1
aI0
aI1
aI0
aI1
aI0
aI1
aI0
aI1
aI0
aI1
aI0
aI1
aI0
aI1
asS'spl'
p68
(lp69
g26
ag32
ag30
ag12
ag28
ag26
ag24
ag16
asS'ls'
p70
I14
sS'cscore'
p71
F2.0
sb.
(i__main__
annealpoint
p0
(dp1
S'ccode'
p2
(dp3
S'viZDY'
p4
S'k'
p5
sS'MVUHd'
p6
S'g'
p7
sS'LnsGe'
p8
S'c'
p9
sS'yepXf'
p10
S'd'
p11
sS'01'
p12
S'e'
p13
sS'ABGEz'
p14
S'q'
p15
sS'11111'
p16
S'n'
p17
sS'bNLkI'
p18
S'z'
p19
sS'TbCec'
p20
S'f'
p21
sS'WtOgr'
p22
S'j'
p23
sS'41'
p24
S'b'
p25
sS'1'
p26
S't'
p27
sS'2'
p28
S'l'
p29
sS'5'
p30
S'm'
p31
sS'8'
p32
S'o'
p33
sS'uRpId'
p34
S'v'
p35
sS'gSWtu'
p36
S'h'
p37
sS'WNJMq'
p38
S'i'
p39
sS'epIpQ'
p40
S'a'
p41
sS'nuBik'
p42
S'w'
p43
sS'UJqdY'
p44
S'x'
p45
sS'Yeddk'
p46
S'y'
p47
sS'efNZZ'
p48
S'p'
p49
sS'zcXwo'
p50
S's'
p51
sS'YUnqu'
p52
S'u'
p53
sS'qnUzk'
p54
S'r'
p55
ssS'cset'
p56
c__builtin__
set
p57
((lp58
g12
ag16
ag24
ag26
ag28
ag30
ag32
atp59
Rp60
sS'annealevel'
p61
F4.4
sS'strng'
p62
(lp63
g26
ag32
ag30
aS'0'
p64
ag26
ag28
ag26
aS'4'
p65
ag26
ag26
ag26
ag26
ag26
ag26
ag26
asS'csplit'
p66
(lp67
I0
aI1
aI0
aI1
aI0
aI1
aI0
aI1
aI0
aI1
aI0
aI1
aI0
aI1
aI0
aI1
asS'spl'
p68
(lp69
g26
ag32
ag30
ag12
ag28
ag26
ag24
ag16
asS'ls'
p70
I14
sS'cscore'
p71
F2.6
sb.
(i__main__
annealpoint
p0
(dp1
S'ccode'
p2
(dp3
S'JzcFJ'
p4
S'x'
p5
sS'MTilm'
p6
S'd'
p7
sS'111'
p8
S'f'
p9
sS'soUAt'
p10
S'a'
p11
sS'JaZEe'
p12
S'j'
p13
sS'QbrML'
p14
S'g'
p15
sS'gWOXJ'
p16
S'z'
p17
sS'LZWPg'
p18
S'p'
p19
sS'fCLmI'
p20
S'q'
p21
sS'NFtSa'
p22
S'c'
p23
sS'41'
p24
S'l'
p25
sS'1'
p26
S'o'
p27
sS'2'
p28
S't'
p29
sS'ZPVIy'
p30
S'w'
p31
sS'501'
p32
S'n'
p33
sS'CEjEK'
p34
S'e'
p35
sS'pqIyD'
p36
S'i'
p37
sS'lNLlt'
p38
S'k'
p39
sS'KgDrI'
p40
S'm'
p41
sS'AvhFW'
p42
S'y'
p43
sS'avtWE'
p44
S'h'
p45
sS'WApNH'
p46
S'r'
p47
sS'TGaqc'
p48
S'v'
p49
sS'18'
p50
S'u'
p51
sS'LFXCD'
p52
S's'
p53
sS'fCMUS'
p54
S'b'
p55
ssS'cset'
p56
c__builtin__
set
p57
((lp58
g50
ag24
ag26
ag28
ag8
ag32
atp59
Rp60
sS'annealevel'
p61
F14.599999999999964
sS'strng'
p62
(lp63
g26
aS'8'
p64
aS'5'
p65
aS'0'
p66
ag26
ag28
ag26
aS'4'
p67
ag26
ag26
ag26
ag26
ag26
ag26
ag26
asS'csplit'
p68
(lp69
I0
aI1
aI0
aI1
aI0
aI1
aI0
aI1
aI0
aI1
aI0
aI1
aI0
aI1
aI0
aI1
asS'spl'
p70
(lp71
g50
ag32
ag28
ag26
ag24
ag26
ag26
ag8
asS'ls'
p72
I14
sS'cscore'
p73
F3.0
sb.
(i__main__
annealpoint
p0
(dp1
S'ccode'
p2
(dp3
S'raLIU'
p4
S'd'
p5
sS'yeYJu'
p6
S'b'
p7
sS'FndhG'
p8
S'z'
p9
sS'eaiAC'
p10
S'c'
p11
sS'jxRYo'
p12
S'x'
p13
sS'LqqEN'
p14
S'u'
p15
sS'50121'
p16
S'a'
p17
sS'peKBV'
p18
S'p'
p19
sS'jOeZD'
p20
S'g'
p21
sS'1'
p22
S's'
p23
sS'4'
p24
S'r'
p25
sS'8'
p26
S't'
p27
sS'LnRWg'
p28
S'n'
p29
sS'hboYm'
p30
S'q'
p31
sS'zgDjl'
p32
S'o'
p33
sS'SKjEH'
p34
S'e'
p35
sS'11'
p36
S'h'
p37
sS'poRyq'
p38
S'i'
p39
sS'MGrvl'
p40
S'k'
p41
sS'Aropb'
p42
S'm'
p43
sS'rKxzP'
p44
S'j'
p45
sS'XmBwd'
p46
S'y'
p47
sS'xIvLn'
p48
S'f'
p49
sS'NBXVT'
p50
S'l'
p51
sS'KqxBb'
p52
S'v'
p53
sS'sBThM'
p54
S'w'
p55
ssS'cset'
p56
c__builtin__
set
p57
((lp58
g22
ag26
ag24
ag16
ag36
atp59
Rp60
sS'annealevel'
p61
F19.500000000000007
sS'strng'
p62
(lp63
g22
ag26
aS'5'
p64
aS'0'
p65
ag22
aS'2'
p66
ag22
ag24
ag22
ag22
ag22
ag22
ag22
ag22
ag22
asS'csplit'
p67
(lp68
I0
aI1
aI0
aI1
aI0
aI1
aI0
aI1
aI0
aI1
aI0
aI1
aI0
aI1
aI0
aI1
asS'spl'
p69
(lp70
g22
ag26
ag16
ag24
ag22
ag22
ag36
aS'11'
p71
asS'ls'
p72
I14
sS'cscore'
p73
F3.7
sb.
