(i__main__
annealpoint
p0
(dp1
S'ccode'
p2
(dp3
S'wwBhV'
p4
S'h'
p5
sS'OSfrn'
p6
S't'
p7
sS'24'
p8
S'e'
p9
sS'BzJWa'
p10
S'c'
p11
sS'20'
p12
S'm'
p13
sS'40'
p14
S'u'
p15
sS'1'
p16
S'a'
p17
sS'0'
p18
S'd'
p19
sS'3'
p20
S's'
p21
sS'2'
p22
S'l'
p23
sS'5'
p24
S'k'
p25
sS'4'
p26
S'i'
p27
sS'7'
p28
S'w'
p29
sS'9'
p30
S'x'
p31
sS'8'
p32
S'v'
p33
sS'pbhgS'
p34
S'p'
p35
sS'VsXnc'
p36
S'n'
p37
sS'OQtSq'
p38
S'g'
p39
sS'LRKdJ'
p40
S'z'
p41
sS'NhnnS'
p42
S'j'
p43
sS'11'
p44
S'q'
p45
sS'zkgew'
p46
S'b'
p47
sS'31'
p48
S'o'
p49
sS'GYCva'
p50
S'y'
p51
sS'34'
p52
S'r'
p53
sS'124'
p54
S'f'
p55
ssS'cset'
p56
c__builtin__
set
p57
((lp58
g44
ag8
ag12
ag14
ag48
ag54
ag52
ag16
ag18
ag20
ag22
ag24
ag26
ag28
ag30
ag32
atp59
Rp60
sS'annealevel'
p61
F0.1
sS'strng'
p62
(lp63
g16
ag32
ag24
ag18
ag16
ag22
ag16
ag26
ag16
ag16
ag16
ag16
ag16
ag16
ag16
ag22
ag24
ag16
ag16
ag22
ag18
ag16
ag22
ag28
ag20
ag26
ag20
ag16
ag18
ag16
ag16
ag22
ag26
ag26
ag26
ag18
ag16
ag16
ag30
ag26
ag20
ag16
ag16
ag22
ag26
ag18
ag18
ag22
ag16
ag28
ag18
ag24
ag30
ag18
ag16
ag22
ag26
ag22
ag24
ag16
ag22
ag16
ag16
ag28
ag24
ag16
ag22
ag26
ag18
ag16
ag22
ag16
ag16
ag16
aS'6'
p64
ag24
ag26
asS'csplit'
p65
(lp66
I0
aI1
aI0
aI1
aI0
aI1
aI0
aI1
aI0
aI1
aI0
aI1
aI0
aI1
aI0
aI1
aI1
aI1
aI1
aI0
aI1
aI1
aI1
aI1
aI0
aI1
aI0
aI1
aI1
aI1
aI0
aI0
aI1
aI1
aI0
aI1
aI1
aI1
aI1
aI1
aI1
aI1
aI1
aI0
aI1
aI1
aI1
aI1
aI1
aI1
aI1
aI1
aI1
aI1
aI1
aI1
aI1
aI1
aI1
aI1
aI1
aI1
aI1
aI1
aI1
aI1
aI1
aI1
aI1
aI1
aI1
aI1
aI1
aI1
aI0
aI0
asS'spl'
p67
(lp68
g16
ag32
ag24
ag18
ag16
ag22
ag16
ag26
ag16
ag16
ag44
ag16
ag16
ag16
ag22
ag24
ag16
ag16
ag12
ag16
ag22
ag28
ag52
ag48
ag18
ag16
ag54
ag26
ag14
ag16
ag16
ag30
ag26
ag20
ag16
ag16
ag8
ag18
ag18
ag22
ag16
ag28
ag18
ag24
ag30
ag18
ag16
ag22
ag26
ag22
ag24
ag16
ag22
ag16
ag16
ag28
ag24
ag16
ag22
ag26
ag18
ag16
ag22
ag16
ag16
ag16
asS'ls'
p69
I76
sS'cscore'
p70
F0.3138787138787138
sb.
(i__main__
annealpoint
p0
(dp1
S'ccode'
p2
(dp3
S'NIWKY'
p4
S'w'
p5
sS'ggPNo'
p6
S'm'
p7
sS'01'
p8
S'g'
p9
sS'20'
p10
S'b'
p11
sS'21'
p12
S'l'
p13
sS'40'
p14
S'v'
p15
sS'1'
p16
S'e'
p17
sS'0'
p18
S'd'
p19
sS'3'
p20
S't'
p21
sS'2'
p22
S's'
p23
sS'5'
p24
S'n'
p25
sS'4'
p26
S'k'
p27
sS'7'
p28
S'i'
p29
sS'6'
p30
S'j'
p31
sS'9'
p32
S'o'
p33
sS'8'
p34
S'f'
p35
sS'Nirrv'
p36
S'c'
p37
sS'pyloD'
p38
S'q'
p39
sS'fzDXa'
p40
S'y'
p41
sS'xEogH'
p42
S'a'
p43
sS'umQUT'
p44
S'p'
p45
sS'73'
p46
S'z'
p47
sS'11'
p48
S'h'
p49
sS'51'
p50
S'x'
p51
sS'TegNj'
p52
S'u'
p53
sS'sYnsT'
p54
S'r'
p55
ssS'cset'
p56
c__builtin__
set
p57
((lp58
g48
ag8
ag10
ag12
ag50
ag14
ag16
ag18
ag20
ag22
ag24
ag26
ag28
ag30
ag32
ag34
ag46
atp59
Rp60
sS'annealevel'
p61
F0.6
sS'strng'
p62
(lp63
g16
ag34
ag24
ag18
ag16
ag22
ag16
ag26
ag16
ag16
ag16
ag16
ag16
ag16
ag16
ag22
ag24
ag16
ag16
ag22
ag18
ag16
ag22
ag28
ag20
ag26
ag20
ag16
ag18
ag16
ag16
ag22
ag26
ag26
ag26
ag18
ag16
ag16
ag32
ag26
ag20
ag16
ag16
ag22
ag26
ag18
ag18
ag22
ag16
ag28
ag18
ag24
ag32
ag18
ag16
ag22
ag26
ag22
ag24
ag16
ag22
ag16
ag16
ag28
ag24
ag16
ag22
ag26
ag18
ag16
ag22
ag16
ag16
ag16
ag30
ag24
ag26
asS'csplit'
p64
(lp65
I0
aI1
aI0
aI1
aI0
aI1
aI0
aI1
aI0
aI1
aI0
aI1
aI0
aI1
aI0
aI1
aI1
aI1
aI1
aI0
aI1
aI1
aI1
aI0
aI1
aI1
aI1
aI1
aI0
aI1
aI1
aI1
aI1
aI1
aI1
aI1
aI0
aI1
aI1
aI1
aI1
aI1
aI1
aI1
aI0
aI1
aI1
aI0
aI1
aI1
aI1
aI1
aI1
aI1
aI1
aI1
aI1
aI1
aI0
aI1
aI1
aI1
aI1
aI1
aI1
aI1
aI1
aI1
aI1
aI1
aI1
aI1
aI1
aI1
aI1
aI1
asS'spl'
p66
(lp67
g16
ag34
ag24
ag18
ag16
ag12
ag26
ag16
ag16
ag48
ag16
ag16
ag16
ag22
ag24
ag16
ag16
ag10
ag16
ag22
ag46
ag26
ag20
ag16
ag8
ag16
ag22
ag26
ag26
ag26
ag18
aS'11'
p68
ag32
ag26
ag20
ag16
ag16
ag22
ag14
ag18
aS'21'
p69
ag28
ag18
ag24
ag32
ag18
ag16
ag22
ag26
ag22
ag50
ag22
ag16
ag16
ag28
ag24
ag16
ag22
ag26
ag18
ag16
ag22
ag16
ag16
ag16
ag30
ag24
asS'ls'
p70
I76
sS'cscore'
p71
F0.3236208236208235
sb.
(i__main__
annealpoint
p0
(dp1
S'ccode'
p2
(dp3
S'65'
p4
S'y'
p5
sS'24'
p6
S'f'
p7
sS'00'
p8
S'w'
p9
sS'44'
p10
S'u'
p11
sS'94'
p12
S'x'
p13
sS'1'
p14
S'e'
p15
sS'0'
p16
S'i'
p17
sS'3'
p18
S'c'
p19
sS'2'
p20
S'd'
p21
sS'5'
p22
S'l'
p23
sS'xCdcT'
p24
S's'
p25
sS'7'
p26
S'k'
p27
sS'9'
p28
S't'
p29
sS'8'
p30
S'v'
p31
sS'4'
p32
S'r'
p33
sS'VfXpF'
p34
S'z'
p35
sS'cDujE'
p36
S'a'
p37
sS'amtSM'
p38
S'q'
p39
sS'SqPMg'
p40
S'g'
p41
sS'11'
p42
S'j'
p43
sS'mHbVP'
p44
S'o'
p45
sS'51'
p46
S'h'
p47
sS'50'
p48
S'b'
p49
sS'uZjtd'
p50
S'n'
p51
sS'MZkoA'
p52
S'p'
p53
sS'ZwiPx'
p54
S'm'
p55
ssS'cset'
p56
c__builtin__
set
p57
((lp58
g42
ag6
ag8
ag10
ag46
ag48
ag14
ag16
ag18
ag20
ag22
ag32
ag26
ag28
ag30
ag12
ag4
atp59
Rp60
sS'annealevel'
p61
F0.9999999999999999
sS'strng'
p62
(lp63
g14
ag30
ag22
ag16
ag14
ag20
ag14
ag32
ag14
ag14
ag14
ag14
ag14
ag14
ag14
ag20
ag22
ag14
ag14
ag20
ag16
ag14
ag20
ag26
ag18
ag32
ag18
ag14
ag16
ag14
ag14
ag20
ag32
ag32
ag32
ag16
ag14
ag14
ag28
ag32
ag18
ag14
ag14
ag20
ag32
ag16
ag16
ag20
ag14
ag26
ag16
ag22
ag28
ag16
ag14
ag20
ag32
ag20
ag22
ag14
ag20
ag14
ag14
ag26
ag22
ag14
ag20
ag32
ag16
ag14
ag20
ag14
ag14
ag14
aS'6'
p64
ag22
ag32
asS'csplit'
p65
(lp66
I0
aI1
aI0
aI1
aI0
aI1
aI0
aI1
aI0
aI1
aI0
aI1
aI0
aI1
aI0
aI1
aI0
aI1
aI1
aI1
aI1
aI1
aI1
aI1
aI1
aI1
aI1
aI1
aI1
aI1
aI1
aI1
aI0
aI1
aI1
aI1
aI1
aI1
aI0
aI1
aI1
aI1
aI1
aI1
aI1
aI0
aI1
aI1
aI1
aI1
aI1
aI1
aI1
aI1
aI1
aI0
aI1
aI1
aI1
aI1
aI1
aI1
aI1
aI1
aI1
aI1
aI1
aI1
aI1
aI1
aI1
aI1
aI1
aI1
aI0
aI1
asS'spl'
p67
(lp68
g14
ag30
ag48
ag14
ag20
ag14
ag32
ag42
aS'11'
p69
ag14
ag14
ag14
ag20
ag46
ag14
ag20
ag16
ag14
ag20
ag26
ag18
ag32
ag18
ag14
ag16
ag14
ag14
ag20
ag10
ag32
ag16
ag14
ag14
ag12
ag18
ag14
ag14
ag20
ag32
ag8
ag20
ag14
ag26
ag16
ag22
ag28
ag16
ag14
ag6
ag20
ag22
ag14
ag20
ag14
ag14
ag26
ag22
ag14
ag20
ag32
ag16
ag14
ag20
ag14
ag14
ag14
ag4
asS'ls'
p70
I76
sS'cscore'
p71
F0.3352499352499352
sb.
