(i__main__
annealpoint
p0
(dp1
S'ccode'
p2
(dp3
S'RtpFh'
p4
S'd'
p5
sS'ItiLI'
p6
S'x'
p7
sS'PbeyI'
p8
S's'
p9
sS'ZFFgj'
p10
S'w'
p11
sS'LgGXN'
p12
S'q'
p13
sS'1'
p14
S'm'
p15
sS'bJuwN'
p16
S'j'
p17
sS'42'
p18
S'g'
p19
sS'QZZtp'
p20
S'r'
p21
sS'0'
p22
S'o'
p23
sS'3'
p24
S'y'
p25
sS'2'
p26
S'p'
p27
sS'5'
p28
S'k'
p29
sS'4'
p30
S'i'
p31
sS'7'
p32
S'a'
p33
sS'6'
p34
S'h'
p35
sS'9'
p36
S'c'
p37
sS'8'
p38
S'n'
p39
sS'gryib'
p40
S'u'
p41
sS'lMDTI'
p42
S'b'
p43
sS'11'
p44
S'e'
p45
sS'17'
p46
S'l'
p47
sS'54'
p48
S'z'
p49
sS'51'
p50
S'f'
p51
sS'FwOip'
p52
S'v'
p53
sS'52'
p54
S't'
p55
ssS'cset'
p56
c__builtin__
set
p57
((lp58
g44
ag50
ag46
ag48
ag18
ag54
ag14
ag22
ag24
ag26
ag28
ag30
ag32
ag34
ag36
ag38
atp59
Rp60
sS'annealevel'
p61
F0.1
sS'strng'
p62
(lp63
g14
ag14
ag26
ag14
ag14
ag14
ag32
ag26
ag36
ag28
ag26
ag22
ag22
ag14
ag30
ag22
ag14
ag14
ag32
ag14
ag14
ag14
ag14
ag14
ag14
ag30
ag38
ag14
ag14
ag32
ag28
ag30
ag28
ag14
ag24
ag14
ag36
ag34
ag30
ag14
ag36
ag30
ag26
ag26
ag28
ag14
ag14
ag14
ag28
ag26
ag14
ag14
ag14
ag14
ag14
ag14
ag24
ag14
ag28
ag14
ag28
ag28
ag26
ag28
ag28
ag14
ag14
ag24
ag14
ag14
ag14
ag36
ag28
ag26
ag22
ag14
ag24
asS'csplit'
p64
(lp65
I0
aI1
aI0
aI1
aI0
aI1
aI0
aI1
aI0
aI1
aI0
aI1
aI0
aI1
aI0
aI1
aI1
aI1
aI1
aI1
aI1
aI0
aI1
aI1
aI1
aI1
aI1
aI1
aI0
aI1
aI0
aI1
aI1
aI1
aI1
aI1
aI1
aI1
aI1
aI1
aI1
aI0
aI1
aI1
aI1
aI1
aI1
aI1
aI1
aI1
aI0
aI1
aI1
aI1
aI1
aI1
aI1
aI1
aI0
aI1
aI1
aI0
aI1
aI1
aI1
aI1
aI1
aI1
aI1
aI1
aI1
aI1
aI1
aI1
aI1
aI1
asS'spl'
p66
(lp67
g14
ag14
ag26
ag14
ag44
ag32
ag26
ag36
ag54
ag22
ag22
ag14
ag30
ag22
ag14
ag14
ag32
ag14
ag14
aS'11'
p68
ag14
ag14
ag30
ag38
ag14
ag46
ag48
ag28
ag14
ag24
ag14
ag36
ag34
ag30
ag14
ag36
ag18
ag26
ag28
ag14
ag14
ag14
ag28
ag26
aS'11'
p69
ag14
ag14
ag14
ag14
ag24
ag14
ag50
ag28
aS'52'
p70
ag28
ag28
ag14
ag14
ag24
ag14
ag14
ag14
ag36
ag28
ag26
ag22
ag14
asS'ls'
p71
I76
sS'cscore'
p72
F0.23925148925148923
sb.
(i__main__
annealpoint
p0
(dp1
S'ccode'
p2
(dp3
S'155'
p4
S'p'
p5
sS'GjoNo'
p6
S's'
p7
sS'00'
p8
S't'
p9
sS'20'
p10
S'l'
p11
sS'1'
p12
S'o'
p13
sS'0'
p14
S'r'
p15
sS'3'
p16
S'd'
p17
sS'2'
p18
S'x'
p19
sS'5'
p20
S'y'
p21
sS'4'
p22
S'n'
p23
sS'7'
p24
S'b'
p25
sS'9'
p26
S'v'
p27
sS'8'
p28
S'i'
p29
sS'MqPtA'
p30
S'z'
p31
sS'WXJvm'
p32
S'k'
p33
sS'95'
p34
S'w'
p35
sS'96'
p36
S'h'
p37
sS'11'
p38
S'u'
p39
sS'kWfLD'
p40
S'a'
p41
sS'12'
p42
S'm'
p43
sS'egwJv'
p44
S'g'
p45
sS'VXtGS'
p46
S'e'
p47
sS'52'
p48
S'f'
p49
sS'nUwCF'
p50
S'j'
p51
sS'PQDyW'
p52
S'q'
p53
sS'iuqJh'
p54
S'c'
p55
ssS'cset'
p56
c__builtin__
set
p57
((lp58
g38
ag8
ag42
ag4
ag48
ag12
ag14
ag16
ag18
ag20
ag22
ag24
ag26
ag28
ag10
ag34
ag36
atp59
Rp60
sS'annealevel'
p61
F0.2
sS'strng'
p62
(lp63
g12
ag12
ag18
ag12
ag12
ag12
ag24
ag18
ag26
ag20
ag18
ag14
ag14
ag12
ag22
ag14
ag12
ag12
ag24
ag12
ag12
ag12
ag12
ag12
ag12
ag22
ag28
ag12
ag12
ag24
ag20
ag22
ag20
ag12
ag16
ag12
ag26
aS'6'
p64
ag22
ag12
ag26
ag22
ag18
ag18
ag20
ag12
ag12
ag12
ag20
ag18
ag12
ag12
ag12
ag12
ag12
ag12
ag16
ag12
ag20
ag12
ag20
ag20
ag18
ag20
ag20
ag12
ag12
ag16
ag12
ag12
ag12
ag26
ag20
ag18
ag14
ag12
ag16
asS'csplit'
p65
(lp66
I0
aI1
aI0
aI1
aI0
aI1
aI0
aI1
aI0
aI1
aI0
aI1
aI0
aI1
aI0
aI1
aI1
aI1
aI1
aI1
aI0
aI1
aI1
aI1
aI1
aI1
aI1
aI1
aI1
aI1
aI1
aI1
aI1
aI1
aI1
aI1
aI0
aI1
aI1
aI1
aI1
aI1
aI1
aI1
aI1
aI1
aI1
aI1
aI0
aI1
aI1
aI1
aI1
aI1
aI1
aI1
aI1
aI1
aI1
aI0
aI0
aI1
aI1
aI1
aI1
aI1
aI1
aI1
aI1
aI1
aI1
aI1
aI1
aI0
aI1
aI0
asS'spl'
p67
(lp68
g12
ag42
ag12
ag12
ag12
ag24
ag18
ag34
ag18
ag8
ag12
ag22
ag14
ag12
ag12
ag24
ag12
ag38
ag12
ag12
ag12
ag22
ag28
ag12
ag12
ag24
ag20
ag22
ag20
ag12
ag16
ag12
ag36
ag22
ag12
ag26
ag22
ag18
ag18
ag20
ag12
ag12
ag12
ag48
ag12
ag12
ag12
ag12
ag12
ag12
ag16
ag12
ag20
ag4
ag18
ag20
ag20
ag12
ag12
ag16
ag12
ag12
ag12
ag26
ag20
ag10
asS'ls'
p69
I76
sS'cscore'
p70
F0.28933658933658934
sb.
(i__main__
annealpoint
p0
(dp1
S'ccode'
p2
(dp3
S'PNFuM'
p4
S'a'
p5
sS'edkIL'
p6
S'r'
p7
sS'117'
p8
S'u'
p9
sS'111'
p10
S's'
p11
sS'jtpST'
p12
S'z'
p13
sS'ZAeIj'
p14
S'q'
p15
sS'171'
p16
S'k'
p17
sS'zvNnS'
p18
S'w'
p19
sS'21'
p20
S'g'
p21
sS'952'
p22
S'n'
p23
sS'sUVMx'
p24
S'j'
p25
sS'1'
p26
S'e'
p27
sS'0'
p28
S'x'
p29
sS'3'
p30
S'y'
p31
sS'2'
p32
S'b'
p33
sS'5'
p34
S'd'
p35
sS'4'
p36
S'm'
p37
sS'7'
p38
S'l'
p39
sS'6'
p40
S'v'
p41
sS'9'
p42
S'i'
p43
sS'SgvsY'
p44
S'h'
p45
sS'IcfBu'
p46
S't'
p47
sS'TdMPU'
p48
S'p'
p49
sS'8'
p50
S'o'
p51
sS'11'
p52
S'c'
p53
sS'gyHSw'
p54
S'f'
p55
ssS'cset'
p56
c__builtin__
set
p57
((lp58
g52
ag22
ag20
ag40
ag30
ag26
ag28
ag8
ag32
ag34
ag36
ag38
ag50
ag42
ag10
ag16
atp59
Rp60
sS'annealevel'
p61
F0.6
sS'strng'
p62
(lp63
g26
ag26
ag32
ag26
ag26
ag26
ag38
ag32
ag42
ag34
ag32
ag28
ag28
ag26
ag36
ag28
ag26
ag26
ag38
ag26
ag26
ag26
ag26
ag26
ag26
ag36
ag50
ag26
ag26
ag38
ag34
ag36
ag34
ag26
ag30
ag26
ag42
ag40
ag36
ag26
ag42
ag36
ag32
ag32
ag34
ag26
ag26
ag26
ag34
ag32
ag26
ag26
ag26
ag26
ag26
ag26
ag30
ag26
ag34
ag26
ag34
ag34
ag32
ag34
ag34
ag26
ag26
ag30
ag26
ag26
ag26
ag42
ag34
ag32
ag28
ag26
ag30
asS'csplit'
p64
(lp65
I0
aI1
aI0
aI1
aI0
aI1
aI0
aI1
aI0
aI1
aI0
aI1
aI0
aI1
aI0
aI1
aI1
aI0
aI0
aI1
aI1
aI0
aI0
aI1
aI1
aI1
aI1
aI1
aI1
aI1
aI1
aI1
aI1
aI1
aI1
aI1
aI1
aI1
aI1
aI1
aI1
aI1
aI1
aI1
aI1
aI1
aI1
aI1
aI1
aI1
aI1
aI1
aI0
aI1
aI1
aI1
aI1
aI1
aI1
aI1
aI1
aI1
aI1
aI1
aI1
aI1
aI1
aI1
aI1
aI1
aI1
aI0
aI0
aI1
aI1
aI1
asS'spl'
p66
(lp67
g26
ag26
ag20
ag8
ag32
ag42
ag34
ag32
ag28
ag28
ag26
ag36
ag28
ag26
ag16
ag26
ag10
ag26
ag36
ag50
ag26
ag26
ag38
ag34
ag36
ag34
ag26
ag30
ag26
ag42
ag40
ag36
ag26
ag42
ag36
ag32
ag32
ag34
ag26
ag26
ag26
ag34
ag32
ag26
ag26
ag52
ag26
ag26
ag30
ag26
ag34
ag26
ag34
ag34
ag32
ag34
ag34
ag26
ag26
ag30
ag26
ag26
ag26
ag22
ag28
ag26
asS'ls'
p68
I76
sS'cscore'
p69
F0.3017653642653642
sb.
(i__main__
annealpoint
p0
(dp1
S'ccode'
p2
(dp3
S'JzsqP'
p4
S'w'
p5
sS'gdTyw'
p6
S'o'
p7
sS'odplz'
p8
S'm'
p9
sS'21'
p10
S'r'
p11
sS'4'
p12
S't'
p13
sS'1'
p14
S'e'
p15
sS'0'
p16
S'n'
p17
sS'3'
p18
S'v'
p19
sS'2'
p20
S'p'
p21
sS'5'
p22
S'g'
p23
sS'BfWds'
p24
S'z'
p25
sS'7'
p26
S'q'
p27
sS'6'
p28
S'b'
p29
sS'9'
p30
S'c'
p31
sS'8'
p32
S'f'
p33
sS'MdGyC'
p34
S'h'
p35
sS'75'
p36
S's'
p37
sS'72'
p38
S'k'
p39
sS'VtnmG'
p40
S'a'
p41
sS'94'
p42
S'd'
p43
sS'11'
p44
S'x'
p45
sS'15'
p46
S'y'
p47
sS'001'
p48
S'u'
p49
sS'TuCDR'
p50
S'l'
p51
sS'zEhFK'
p52
S'i'
p53
sS'iQrEY'
p54
S'j'
p55
ssS'cset'
p56
c__builtin__
set
p57
((lp58
g44
ag46
ag10
ag18
ag36
ag14
ag16
ag48
ag20
ag22
ag38
ag26
ag28
ag30
ag32
ag42
ag12
atp59
Rp60
sS'annealevel'
p61
F0.4
sS'strng'
p62
(lp63
g14
ag14
ag20
ag14
ag14
ag14
ag26
ag20
ag30
ag22
ag20
ag16
ag16
ag14
ag12
ag16
ag14
ag14
ag26
ag14
ag14
ag14
ag14
ag14
ag14
ag12
ag32
ag14
ag14
ag26
ag22
ag12
ag22
ag14
ag18
ag14
ag30
ag28
ag12
ag14
ag30
ag12
ag20
ag20
ag22
ag14
ag14
ag14
ag22
ag20
ag14
ag14
ag14
ag14
ag14
ag14
ag18
ag14
ag22
ag14
ag22
ag22
ag20
ag22
ag22
ag14
ag14
ag18
ag14
ag14
ag14
ag30
ag22
ag20
ag16
ag14
ag18
asS'csplit'
p64
(lp65
I0
aI1
aI0
aI1
aI0
aI1
aI0
aI1
aI0
aI1
aI0
aI1
aI0
aI1
aI0
aI1
aI1
aI1
aI1
aI1
aI1
aI1
aI0
aI1
aI1
aI1
aI1
aI1
aI1
aI0
aI1
aI1
aI1
aI1
aI1
aI1
aI1
aI1
aI1
aI1
aI0
aI1
aI1
aI1
aI1
aI1
aI1
aI0
aI1
aI0
aI1
aI1
aI1
aI1
aI1
aI1
aI1
aI1
aI1
aI1
aI1
aI1
aI1
aI1
aI1
aI1
aI1
aI1
aI0
aI1
aI1
aI1
aI1
aI1
aI1
aI1
asS'spl'
p66
(lp67
g14
ag14
ag20
ag14
ag14
ag14
ag38
ag30
ag22
ag20
ag48
ag12
ag16
ag14
ag14
ag26
ag14
ag14
ag14
ag44
ag14
ag12
ag32
ag14
ag14
ag36
ag12
ag22
ag14
ag18
ag14
ag30
ag28
ag12
ag14
ag42
ag20
ag20
ag22
ag14
ag14
ag46
ag10
ag14
ag14
ag14
ag14
ag14
ag18
ag14
ag22
ag14
ag22
ag22
ag20
ag22
ag22
ag14
ag14
ag18
aS'11'
p68
ag14
ag30
ag22
ag20
ag16
ag14
asS'ls'
p69
I76
sS'cscore'
p70
F0.3195804195804196
sb.
(i__main__
annealpoint
p0
(dp1
S'ccode'
p2
(dp3
S'45'
p4
S'p'
p5
sS'rVWHd'
p6
S'i'
p7
sS'IUjau'
p8
S'u'
p9
sS'64'
p10
S'f'
p11
sS'81'
p12
S'h'
p13
sS'XlPCK'
p14
S'z'
p15
sS'29'
p16
S'e'
p17
sS'1'
p18
S'o'
p19
sS'0'
p20
S'y'
p21
sS'3'
p22
S's'
p23
sS'2'
p24
S'n'
p25
sS'5'
p26
S't'
p27
sS'4'
p28
S'a'
p29
sS'7'
p30
S'b'
p31
sS'9'
p32
S'g'
p33
sS'MlXLL'
p34
S'x'
p35
sS'gMUpR'
p36
S'k'
p37
sS'RaIhg'
p38
S'j'
p39
sS'fHSxZ'
p40
S'm'
p41
sS'95'
p42
S'r'
p43
sS'94'
p44
S'q'
p45
sS'cbyfP'
p46
S'c'
p47
sS'hMvZJ'
p48
S'd'
p49
sS'52'
p50
S'v'
p51
sS'vusqo'
p52
S'l'
p53
sS'EHtYT'
p54
S'w'
p55
ssS'cset'
p56
c__builtin__
set
p57
((lp58
g4
ag16
ag50
ag18
ag20
ag22
ag24
ag26
ag28
ag30
ag32
ag10
ag12
ag42
ag44
atp59
Rp60
sS'annealevel'
p61
F1.6000000000000003
sS'strng'
p62
(lp63
g18
ag18
ag24
ag18
ag18
ag18
ag30
ag24
ag32
ag26
ag24
ag20
ag20
ag18
ag28
ag20
ag18
ag18
ag30
ag18
ag18
ag18
ag18
ag18
ag18
ag28
aS'8'
p64
ag18
ag18
ag30
ag26
ag28
ag26
ag18
ag22
ag18
ag32
aS'6'
p65
ag28
ag18
ag32
ag28
ag24
ag24
ag26
ag18
ag18
ag18
ag26
ag24
ag18
ag18
ag18
ag18
ag18
ag18
ag22
ag18
ag26
ag18
ag26
ag26
ag24
ag26
ag26
ag18
ag18
ag22
ag18
ag18
ag18
ag32
ag26
ag24
ag20
ag18
ag22
asS'csplit'
p66
(lp67
I0
aI1
aI0
aI1
aI0
aI1
aI0
aI1
aI0
aI1
aI0
aI1
aI0
aI1
aI0
aI1
aI1
aI1
aI1
aI1
aI1
aI1
aI1
aI1
aI1
aI1
aI0
aI1
aI1
aI1
aI1
aI0
aI1
aI1
aI1
aI1
aI1
aI0
aI1
aI1
aI0
aI1
aI1
aI1
aI1
aI1
aI1
aI1
aI0
aI1
aI1
aI1
aI1
aI1
aI1
aI1
aI1
aI1
aI1
aI1
aI1
aI0
aI1
aI1
aI1
aI1
aI1
aI1
aI1
aI1
aI1
aI0
aI1
aI1
aI1
aI1
asS'spl'
p68
(lp69
g18
ag18
ag24
ag18
ag18
ag18
ag30
ag16
ag26
ag24
ag20
ag20
ag18
ag28
ag20
ag18
ag18
ag30
ag18
ag18
ag18
ag18
ag18
ag18
ag28
ag12
ag18
ag30
ag26
ag4
ag18
ag22
ag18
ag32
ag10
ag18
ag44
ag24
ag24
ag26
ag18
ag18
ag18
ag50
ag18
ag18
ag18
ag18
ag18
ag18
ag22
ag18
ag26
ag18
ag26
aS'52'
p70
ag26
ag26
ag18
ag18
ag22
ag18
ag18
ag18
ag42
ag24
ag20
ag18
asS'ls'
p71
I76
sS'cscore'
p72
F0.33358370025036693
sb.
(i__main__
annealpoint
p0
(dp1
S'ccode'
p2
(dp3
S'jQhRy'
p4
S'y'
p5
sS'111'
p6
S'b'
p7
sS'21'
p8
S'f'
p9
sS'esQQw'
p10
S'h'
p11
sS'1'
p12
S'n'
p13
sS'0'
p14
S'a'
p15
sS'3'
p16
S'e'
p17
sS'2'
p18
S't'
p19
sS'5'
p20
S'o'
p21
sS'4'
p22
S'i'
p23
sS'7'
p24
S'd'
p25
sS'pBVnX'
p26
S'k'
p27
sS'9'
p28
S'l'
p29
sS'8'
p30
S'z'
p31
sS'200'
p32
S'u'
p33
sS'NnkTl'
p34
S'w'
p35
sS'6'
p36
S'g'
p37
sS'bwuvQ'
p38
S's'
p39
sS'Bpamt'
p40
S'c'
p41
sS'11'
p42
S'v'
p43
sS'14'
p44
S'm'
p45
sS'17'
p46
S'q'
p47
sS'54'
p48
S'j'
p49
sS'nZGyb'
p50
S'x'
p51
sS'yhVmm'
p52
S'p'
p53
sS'PWdvv'
p54
S'r'
p55
ssS'cset'
p56
c__builtin__
set
p57
((lp58
g42
ag32
ag8
ag46
ag48
ag36
ag12
ag14
ag16
ag18
ag20
ag22
ag24
ag30
ag28
ag6
ag44
atp59
Rp60
sS'annealevel'
p61
F1.8000000000000005
sS'strng'
p62
(lp63
g12
ag12
ag18
ag12
ag12
ag12
ag24
ag18
ag28
ag20
ag18
ag14
ag14
ag12
ag22
ag14
ag12
ag12
ag24
ag12
ag12
ag12
ag12
ag12
ag12
ag22
ag30
ag12
ag12
ag24
ag20
ag22
ag20
ag12
ag16
ag12
ag28
ag36
ag22
ag12
ag28
ag22
ag18
ag18
ag20
ag12
ag12
ag12
ag20
ag18
ag12
ag12
ag12
ag12
ag12
ag12
ag16
ag12
ag20
ag12
ag20
ag20
ag18
ag20
ag20
ag12
ag12
ag16
ag12
ag12
ag12
ag28
ag20
ag18
ag14
ag12
ag16
asS'csplit'
p64
(lp65
I0
aI1
aI0
aI1
aI0
aI1
aI0
aI1
aI0
aI1
aI0
aI1
aI0
aI1
aI0
aI1
aI1
aI1
aI1
aI1
aI0
aI0
aI1
aI1
aI0
aI1
aI1
aI1
aI1
aI1
aI0
aI1
aI1
aI1
aI1
aI1
aI1
aI1
aI1
aI1
aI1
aI1
aI1
aI1
aI1
aI1
aI1
aI1
aI1
aI1
aI1
aI0
aI1
aI1
aI1
aI1
aI1
aI1
aI1
aI1
aI1
aI1
aI1
aI1
aI1
aI1
aI1
aI1
aI1
aI1
aI1
aI1
aI1
aI1
aI1
aI1
asS'spl'
p66
(lp67
g42
ag8
ag12
ag46
ag18
ag28
ag20
ag32
ag12
ag22
ag14
ag12
ag12
ag24
ag12
ag6
ag12
ag44
ag30
ag12
ag12
ag24
ag48
ag20
ag12
ag16
ag12
ag28
ag36
ag22
ag12
ag28
ag22
ag18
ag18
ag20
ag12
ag12
ag12
ag20
ag18
ag12
aS'11'
p68
ag12
ag12
ag12
ag16
ag12
ag20
ag12
ag20
ag20
ag18
ag20
ag20
ag12
ag12
ag16
ag12
ag12
ag12
ag28
ag20
ag18
ag14
ag12
asS'ls'
p69
I76
sS'cscore'
p70
F0.33483923483923483
sb.
(i__main__
annealpoint
p0
(dp1
S'ccode'
p2
(dp3
S'fUJLP'
p4
S'b'
p5
sS'BASFl'
p6
S'j'
p7
sS'zjhNz'
p8
S'v'
p9
sS'00'
p10
S'k'
p11
sS'48'
p12
S'd'
p13
sS'29'
p14
S'w'
p15
sS'41'
p16
S'm'
p17
sS'1'
p18
S's'
p19
sS'0'
p20
S'x'
p21
sS'3'
p22
S'h'
p23
sS'2'
p24
S'n'
p25
sS'5'
p26
S'e'
p27
sS'4'
p28
S'o'
p29
sS'7'
p30
S't'
p31
sS'6'
p32
S'c'
p33
sS'9'
p34
S'u'
p35
sS'etrHd'
p36
S'y'
p37
sS'WsyMs'
p38
S'z'
p39
sS'lxQxY'
p40
S'f'
p41
sS'11'
p42
S'l'
p43
sS'12'
p44
S'r'
p45
sS'14'
p46
S'i'
p47
sS'ScLFm'
p48
S'q'
p49
sS'SVRDg'
p50
S'p'
p51
sS'31'
p52
S'g'
p53
sS'mYIJp'
p54
S'a'
p55
ssS'cset'
p56
c__builtin__
set
p57
((lp58
g42
ag10
ag44
ag46
ag12
ag52
ag14
ag16
ag18
ag20
ag22
ag24
ag26
ag28
ag30
ag32
ag34
atp59
Rp60
sS'annealevel'
p61
F3.1000000000000014
sS'strng'
p62
(lp63
g18
ag18
ag24
ag18
ag18
ag18
ag30
ag24
ag34
ag26
ag24
ag20
ag20
ag18
ag28
ag20
ag18
ag18
ag30
ag18
ag18
ag18
ag18
ag18
ag18
ag28
aS'8'
p64
ag18
ag18
ag30
ag26
ag28
ag26
ag18
ag22
ag18
ag34
ag32
ag28
ag18
ag34
ag28
ag24
ag24
ag26
ag18
ag18
ag18
ag26
ag24
ag18
ag18
ag18
ag18
ag18
ag18
ag22
ag18
ag26
ag18
ag26
ag26
ag24
ag26
ag26
ag18
ag18
ag22
ag18
ag18
ag18
ag34
ag26
ag24
ag20
ag18
ag22
asS'csplit'
p65
(lp66
I0
aI1
aI0
aI1
aI0
aI1
aI0
aI1
aI0
aI1
aI0
aI1
aI0
aI1
aI0
aI1
aI1
aI1
aI1
aI1
aI1
aI1
aI1
aI0
aI1
aI0
aI1
aI1
aI1
aI1
aI1
aI1
aI1
aI1
aI1
aI1
aI1
aI1
aI0
aI1
aI1
aI1
aI1
aI1
aI1
aI1
aI1
aI1
aI1
aI1
aI1
aI0
aI1
aI1
aI1
aI1
aI1
aI1
aI1
aI1
aI1
aI1
aI1
aI1
aI1
aI1
aI1
aI0
aI1
aI1
aI1
aI1
aI1
aI1
aI1
aI1
asS'spl'
p67
(lp68
g18
ag44
ag18
ag18
ag18
ag30
ag14
ag26
ag24
ag10
ag46
ag20
ag18
ag18
ag30
ag18
ag18
ag18
ag18
ag42
ag12
ag18
ag18
ag30
ag26
ag28
ag26
ag18
ag22
ag18
ag34
ag32
ag16
ag34
ag28
ag24
ag24
ag26
ag18
ag18
ag18
ag26
ag24
ag18
aS'11'
p69
ag18
ag18
ag18
ag22
ag18
ag26
ag18
ag26
ag26
ag24
ag26
ag26
ag18
ag18
ag52
ag18
ag18
ag34
ag26
ag24
ag20
ag18
asS'ls'
p70
I76
sS'cscore'
p71
F0.3443408443408443
sb.
(i__main__
annealpoint
p0
(dp1
S'ccode'
p2
(dp3
S'KwByi'
p4
S'h'
p5
sS'qOKvS'
p6
S'k'
p7
sS'XiJsE'
p8
S'd'
p9
sS'81'
p10
S'i'
p11
sS'25'
p12
S'c'
p13
sS'01'
p14
S'g'
p15
sS'20'
p16
S'f'
p17
sS'XKfdQ'
p18
S'w'
p19
sS'1'
p20
S'e'
p21
sS'0'
p22
S'p'
p23
sS'3'
p24
S'b'
p25
sS'2'
p26
S'o'
p27
sS'5'
p28
S'r'
p29
sS'4'
p30
S'n'
p31
sS'7'
p32
S'z'
p33
sS'6'
p34
S'v'
p35
sS'9'
p36
S'q'
p37
sS'tcIwA'
p38
S'j'
p39
sS'xIlCl'
p40
S'y'
p41
sS'72'
p42
S't'
p43
sS'95'
p44
S'l'
p45
sS'11'
p46
S'm'
p47
sS'13'
p48
S'x'
p49
sS'eHaPd'
p50
S'u'
p51
sS'aOdUp'
p52
S's'
p53
sS'UltXT'
p54
S'a'
p55
ssS'cset'
p56
c__builtin__
set
p57
((lp58
g46
ag12
ag48
ag14
ag16
ag20
ag22
ag24
ag26
ag28
ag42
ag32
ag34
ag36
ag10
ag44
ag30
atp59
Rp60
sS'annealevel'
p61
F0.2
sS'strng'
p62
(lp63
g20
ag20
ag26
ag20
ag20
ag20
ag32
ag26
ag36
ag28
ag26
ag22
ag22
ag20
ag30
ag22
ag20
ag20
ag32
ag20
ag20
ag20
ag20
ag20
ag20
ag30
aS'8'
p64
ag20
ag20
ag32
ag28
ag30
ag28
ag20
ag24
ag20
ag36
ag34
ag30
ag20
ag36
ag30
ag26
ag26
ag28
ag20
ag20
ag20
ag28
ag26
ag20
ag20
ag20
ag20
ag20
ag20
ag24
ag20
ag28
ag20
ag28
ag28
ag26
ag28
ag28
ag20
ag20
ag24
ag20
ag20
ag20
ag36
ag28
ag26
ag22
ag20
ag24
asS'csplit'
p65
(lp66
I0
aI1
aI0
aI1
aI0
aI1
aI0
aI1
aI0
aI1
aI0
aI1
aI0
aI1
aI0
aI1
aI1
aI1
aI1
aI1
aI1
aI1
aI0
aI1
aI1
aI1
aI0
aI1
aI1
aI1
aI1
aI1
aI1
aI0
aI1
aI1
aI1
aI1
aI1
aI1
aI1
aI1
aI1
aI0
aI1
aI1
aI1
aI1
aI1
aI1
aI1
aI1
aI1
aI1
aI0
aI1
aI1
aI1
aI1
aI1
aI1
aI1
aI1
aI1
aI1
aI1
aI1
aI1
aI1
aI1
aI1
aI1
aI1
aI1
aI1
aI1
asS'spl'
p67
(lp68
g20
ag20
ag26
ag20
ag46
ag42
ag44
ag16
ag22
ag20
ag30
ag14
ag20
ag32
ag20
ag20
ag20
aS'11'
p69
ag20
ag30
ag10
ag20
ag32
ag28
ag30
ag28
ag48
ag20
ag36
ag34
ag30
ag20
ag36
ag30
ag26
ag12
ag20
ag20
ag20
ag28
ag26
ag20
ag20
ag20
ag20
aS'11'
p70
ag24
ag20
ag28
ag20
ag28
ag28
ag26
ag28
ag28
ag20
ag20
ag24
ag20
ag20
ag20
ag36
ag28
ag26
ag22
ag20
asS'ls'
p71
I76
sS'cscore'
p72
F0.34667277167277166
sb.
(i__main__
annealpoint
p0
(dp1
S'ccode'
p2
(dp3
S'sIYuy'
p4
S'b'
p5
sS'vedxM'
p6
S'n'
p7
sS'113'
p8
S'i'
p9
sS'BAZMs'
p10
S'k'
p11
sS'YeZCD'
p12
S'r'
p13
sS'eENMr'
p14
S'x'
p15
sS'npWpv'
p16
S'd'
p17
sS'01'
p18
S'j'
p19
sS'21'
p20
S'y'
p21
sS'AOUwB'
p22
S'f'
p23
sS'1'
p24
S's'
p25
sS'0'
p26
S'g'
p27
sS'3'
p28
S'o'
p29
sS'2'
p30
S'c'
p31
sS'5'
p32
S'u'
p33
sS'4'
p34
S'e'
p35
sS'7'
p36
S'z'
p37
sS'6'
p38
S'a'
p39
sS'9'
p40
S'h'
p41
sS'8'
p42
S't'
p43
sS'BteFg'
p44
S'v'
p45
sS'gfqMi'
p46
S'w'
p47
sS'11'
p48
S'm'
p49
sS'55'
p50
S'p'
p51
sS'54'
p52
S'l'
p53
sS'51'
p54
S'q'
p55
ssS'cset'
p56
c__builtin__
set
p57
((lp58
g48
ag18
ag20
ag50
ag52
ag54
ag8
ag24
ag26
ag28
ag30
ag32
ag34
ag36
ag38
ag40
ag42
atp59
Rp60
sS'annealevel'
p61
F7.099999999999991
sS'strng'
p62
(lp63
g24
ag24
ag30
ag24
ag24
ag24
ag36
ag30
ag40
ag32
ag30
ag26
ag26
ag24
ag34
ag26
ag24
ag24
ag36
ag24
ag24
ag24
ag24
ag24
ag24
ag34
ag42
ag24
ag24
ag36
ag32
ag34
ag32
ag24
ag28
ag24
ag40
ag38
ag34
ag24
ag40
ag34
ag30
ag30
ag32
ag24
ag24
ag24
ag32
ag30
ag24
ag24
ag24
ag24
ag24
ag24
ag28
ag24
ag32
ag24
ag32
ag32
ag30
ag32
ag32
ag24
ag24
ag28
ag24
ag24
ag24
ag40
ag32
ag30
ag26
ag24
ag28
asS'csplit'
p64
(lp65
I0
aI1
aI0
aI1
aI0
aI1
aI0
aI1
aI0
aI1
aI0
aI1
aI0
aI1
aI0
aI1
aI1
aI1
aI1
aI1
aI1
aI1
aI1
aI1
aI1
aI1
aI1
aI1
aI1
aI1
aI0
aI1
aI1
aI1
aI1
aI1
aI1
aI1
aI1
aI1
aI1
aI1
aI1
aI1
aI1
aI1
aI1
aI1
aI1
aI0
aI1
aI1
aI1
aI1
aI0
aI0
aI1
aI1
aI1
aI1
aI0
aI1
aI1
aI1
aI0
aI1
aI1
aI1
aI1
aI1
aI1
aI1
aI1
aI1
aI1
aI1
asS'spl'
p66
(lp67
g24
ag24
ag30
ag24
ag48
ag36
ag30
ag40
ag32
ag30
ag26
ag18
ag34
ag26
ag24
ag24
ag36
ag24
ag24
ag24
ag24
ag24
ag24
ag34
ag42
ag24
ag24
ag36
ag52
ag32
ag24
ag28
ag24
ag40
ag38
ag34
ag24
ag40
ag34
ag30
ag30
ag32
ag24
ag24
ag24
ag32
ag20
ag24
ag24
ag24
ag8
ag24
ag32
ag24
ag50
ag30
ag32
ag54
ag24
ag28
ag24
ag24
ag24
ag40
ag32
ag30
ag26
ag24
asS'ls'
p68
I76
sS'cscore'
p69
F0.35091945091945087
sb.
(i__main__
annealpoint
p0
(dp1
S'ccode'
p2
(dp3
S'LQvOX'
p4
S'x'
p5
sS'yJOxr'
p6
S'o'
p7
sS'fmaxk'
p8
S'l'
p9
sS'01'
p10
S'f'
p11
sS'VxJku'
p12
S'm'
p13
sS'gBHvp'
p14
S'v'
p15
sS'Mfgdt'
p16
S'c'
p17
sS'1'
p18
S'e'
p19
sS'0'
p20
S'q'
p21
sS'3'
p22
S'd'
p23
sS'2'
p24
S's'
p25
sS'5'
p26
S'n'
p27
sS'4'
p28
S'i'
p29
sS'7'
p30
S'b'
p31
sS'6'
p32
S'y'
p33
sS'9'
p34
S'h'
p35
sS'8'
p36
S't'
p37
sS'75'
p38
S'w'
p39
sS'GLdaU'
p40
S'j'
p41
sS'11'
p42
S'r'
p43
sS'dHvAJ'
p44
S'u'
p45
sS'55'
p46
S'a'
p47
sS'31'
p48
S'k'
p49
sS'ulKNC'
p50
S'z'
p51
sS'bzMyj'
p52
S'g'
p53
sS'gJeVk'
p54
S'p'
p55
ssS'cset'
p56
c__builtin__
set
p57
((lp58
g42
ag10
ag46
ag48
ag22
ag18
ag20
ag38
ag24
ag26
ag28
ag30
ag32
ag34
ag36
atp59
Rp60
sS'annealevel'
p61
F8.699999999999985
sS'strng'
p62
(lp63
g18
ag18
ag24
ag18
ag18
ag18
ag30
ag24
ag34
ag26
ag24
ag20
ag20
ag18
ag28
ag20
ag18
ag18
ag30
ag18
ag18
ag18
ag18
ag18
ag18
ag28
ag36
ag18
ag18
ag30
ag26
ag28
ag26
ag18
ag22
ag18
ag34
ag32
ag28
ag18
ag34
ag28
ag24
ag24
ag26
ag18
ag18
ag18
ag26
ag24
ag18
ag18
ag18
ag18
ag18
ag18
ag22
ag18
ag26
ag18
ag26
ag26
ag24
ag26
ag26
ag18
ag18
ag22
ag18
ag18
ag18
ag34
ag26
ag24
ag20
ag18
ag22
asS'csplit'
p64
(lp65
I0
aI1
aI0
aI1
aI0
aI1
aI0
aI1
aI0
aI1
aI0
aI1
aI0
aI1
aI0
aI1
aI0
aI1
aI1
aI0
aI1
aI0
aI1
aI1
aI1
aI1
aI1
aI1
aI1
aI0
aI1
aI1
aI1
aI1
aI1
aI1
aI1
aI1
aI1
aI1
aI1
aI1
aI1
aI1
aI1
aI1
aI1
aI1
aI1
aI1
aI1
aI1
aI1
aI0
aI1
aI1
aI1
aI1
aI1
aI1
aI0
aI1
aI1
aI1
aI1
aI1
aI1
aI0
aI1
aI1
aI1
aI1
aI1
aI1
aI0
aI1
asS'spl'
p66
(lp67
g18
ag18
ag24
ag18
ag42
ag30
ag24
ag34
ag26
ag24
ag20
ag20
ag18
ag28
ag20
aS'11'
p68
ag30
aS'11'
p69
aS'11'
p70
ag18
ag18
ag28
ag36
ag18
ag18
ag38
ag28
ag26
ag18
ag22
ag18
ag34
ag32
ag28
ag18
ag34
ag28
ag24
ag24
ag26
ag18
ag18
ag18
ag26
ag24
ag18
ag18
ag18
aS'11'
p71
ag18
ag22
ag18
ag26
ag18
ag46
ag24
ag26
ag26
ag18
ag18
ag48
ag18
ag18
ag34
ag26
ag24
ag10
asS'ls'
p72
I76
sS'cscore'
p73
F0.3856729690063023
sb.
(i__main__
annealpoint
p0
(dp1
S'ccode'
p2
(dp3
S'WSHRj'
p4
S'u'
p5
sS'rxnqD'
p6
S'j'
p7
sS'cFaNC'
p8
S'b'
p9
sS'20'
p10
S'r'
p11
sS'ZyjQT'
p12
S'v'
p13
sS'1'
p14
S'e'
p15
sS'0'
p16
S'i'
p17
sS'3'
p18
S'n'
p19
sS'MAvsK'
p20
S'k'
p21
sS'5'
p22
S'o'
p23
sS'4'
p24
S'f'
p25
sS'7'
p26
S'a'
p27
sS'6'
p28
S'z'
p29
sS'9'
p30
S't'
p31
sS'8'
p32
S'c'
p33
sS'4194'
p34
S'l'
p35
sS'EDIWX'
p36
S'y'
p37
sS'2'
p38
S's'
p39
sS'qVgyY'
p40
S'h'
p41
sS'11'
p42
S'm'
p43
sS'uqLQn'
p44
S'g'
p45
sS'15'
p46
S'q'
p47
sS'55'
p48
S'w'
p49
sS'KGsDy'
p50
S'p'
p51
sS'51'
p52
S'd'
p53
sS'rouHJ'
p54
S'x'
p55
ssS'cset'
p56
c__builtin__
set
p57
((lp58
g42
ag10
ag48
ag34
ag52
ag46
ag14
ag16
ag18
ag38
ag22
ag24
ag26
ag28
ag30
ag32
atp59
Rp60
sS'annealevel'
p61
F20.800000000000026
sS'strng'
p62
(lp63
g14
ag14
ag38
ag14
ag14
ag14
ag26
ag38
ag30
ag22
ag38
ag16
ag16
ag14
ag24
ag16
ag14
ag14
ag26
ag14
ag14
ag14
ag14
ag14
ag14
ag24
ag32
ag14
ag14
ag26
ag22
ag24
ag22
ag14
ag18
ag14
ag30
ag28
ag24
ag14
ag30
ag24
ag38
ag38
ag22
ag14
ag14
ag14
ag22
ag38
ag14
ag14
ag14
ag14
ag14
ag14
ag18
ag14
ag22
ag14
ag22
ag22
ag38
ag22
ag22
ag14
ag14
ag18
ag14
ag14
ag14
ag30
ag22
ag38
ag16
ag14
ag18
asS'csplit'
p64
(lp65
I0
aI1
aI0
aI1
aI0
aI1
aI0
aI1
aI0
aI1
aI0
aI1
aI0
aI1
aI0
aI1
aI1
aI1
aI1
aI1
aI0
aI1
aI1
aI1
aI1
aI1
aI1
aI1
aI1
aI1
aI1
aI1
aI0
aI1
aI1
aI1
aI1
aI1
aI0
aI0
aI0
aI1
aI1
aI1
aI1
aI0
aI1
aI1
aI1
aI1
aI1
aI1
aI1
aI1
aI1
aI1
aI1
aI0
aI1
aI1
aI1
aI1
aI1
aI0
aI1
aI1
aI1
aI1
aI1
aI1
aI1
aI1
aI1
aI1
aI1
aI1
asS'spl'
p66
(lp67
g14
ag14
ag38
ag14
ag14
ag14
ag26
ag38
ag30
ag22
ag10
ag16
ag14
ag24
ag16
ag14
ag14
ag26
ag14
ag42
ag14
ag14
ag14
ag24
ag32
ag14
ag14
ag26
ag22
ag24
ag52
ag18
ag14
ag30
ag28
ag34
ag38
ag38
ag22
aS'11'
p68
ag14
ag22
ag38
ag14
ag14
ag14
ag14
ag14
ag14
ag18
ag46
ag14
ag22
ag22
ag38
ag48
ag14
ag14
ag18
ag14
ag14
ag14
ag30
ag22
ag38
ag16
ag14
asS'ls'
p69
I76
sS'cscore'
p70
F0.4247129413796081
sb.
(i__main__
annealpoint
p0
(dp1
S'ccode'
p2
(dp3
S'RtpFh'
p4
S'o'
p5
sS'ItiLI'
p6
S'j'
p7
sS'PbeyI'
p8
S'w'
p9
sS'ZFFgj'
p10
S'y'
p11
sS'LgGXN'
p12
S'q'
p13
sS'1'
p14
S'e'
p15
sS'bJuwN'
p16
S'c'
p17
sS'42'
p18
S'i'
p19
sS'QZZtp'
p20
S't'
p21
sS'0'
p22
S'h'
p23
sS'3'
p24
S'v'
p25
sS'2'
p26
S's'
p27
sS'5'
p28
S'd'
p29
sS'4'
p30
S'm'
p31
sS'7'
p32
S'r'
p33
sS'6'
p34
S'f'
p35
sS'9'
p36
S'n'
p37
sS'8'
p38
S'p'
p39
sS'gryib'
p40
S'b'
p41
sS'lMDTI'
p42
S'z'
p43
sS'11'
p44
S'a'
p45
sS'17'
p46
S'x'
p47
sS'54'
p48
S'u'
p49
sS'51'
p50
S'k'
p51
sS'FwOip'
p52
S'l'
p53
sS'52'
p54
S'g'
p55
ssS'cset'
p56
c__builtin__
set
p57
((lp58
g44
ag50
ag46
ag48
ag18
ag54
ag14
ag22
ag24
ag26
ag28
ag30
ag32
ag34
ag36
ag38
atp59
Rp60
sS'annealevel'
p61
F26.300000000000104
sS'strng'
p62
(lp63
g14
ag14
ag26
ag14
ag14
ag14
ag32
ag26
ag36
ag28
ag26
ag22
ag22
ag14
ag30
ag22
ag14
ag14
ag32
ag14
ag14
ag14
ag14
ag14
ag14
ag30
ag38
ag14
ag14
ag32
ag28
ag30
ag28
ag14
ag24
ag14
ag36
ag34
ag30
ag14
ag36
ag30
ag26
ag26
ag28
ag14
ag14
ag14
ag28
ag26
ag14
ag14
ag14
ag14
ag14
ag14
ag24
ag14
ag28
ag14
ag28
ag28
ag26
ag28
ag28
ag14
ag14
ag24
ag14
ag14
ag14
ag36
ag28
ag26
ag22
ag14
ag24
asS'csplit'
p64
(lp65
I0
aI1
aI0
aI1
aI0
aI1
aI0
aI1
aI0
aI1
aI0
aI1
aI0
aI1
aI0
aI1
aI1
aI1
aI1
aI1
aI1
aI0
aI1
aI1
aI1
aI1
aI1
aI1
aI0
aI1
aI0
aI1
aI1
aI1
aI1
aI1
aI1
aI1
aI1
aI1
aI1
aI0
aI1
aI1
aI1
aI1
aI1
aI1
aI1
aI1
aI0
aI1
aI1
aI1
aI1
aI1
aI1
aI1
aI0
aI1
aI1
aI0
aI1
aI1
aI1
aI1
aI1
aI1
aI1
aI1
aI1
aI1
aI1
aI1
aI1
aI1
asS'spl'
p66
(lp67
g14
ag14
ag26
ag14
ag44
ag32
ag26
ag36
ag54
ag22
ag22
ag14
ag30
ag22
ag14
ag14
ag32
ag14
ag14
aS'11'
p68
ag14
ag14
ag30
ag38
ag14
ag46
ag48
ag28
ag14
ag24
ag14
ag36
ag34
ag30
ag14
ag36
ag18
ag26
ag28
ag14
ag14
ag14
ag28
ag26
aS'11'
p69
ag14
ag14
ag14
ag14
ag24
ag14
ag50
ag28
aS'52'
p70
ag28
ag28
ag14
ag14
ag24
ag14
ag14
ag14
ag36
ag28
ag26
ag22
ag14
asS'ls'
p71
I76
sS'cscore'
p72
F0.4418414918414918
sb.
(i__main__
annealpoint
p0
(dp1
S'ccode'
p2
(dp3
S'5111'
p4
S'p'
p5
sS'KgJTV'
p6
S'y'
p7
sS'RMbpN'
p8
S'v'
p9
sS'117'
p10
S'z'
p11
sS'64'
p12
S't'
p13
sS'25'
p14
S'o'
p15
sS'LAxoX'
p16
S'b'
p17
sS'mFygx'
p18
S'd'
p19
sS'MHXfi'
p20
S'c'
p21
sS'FYSdz'
p22
S'q'
p23
sS'42'
p24
S'a'
p25
sS'1'
p26
S'e'
p27
sS'0'
p28
S's'
p29
sS'3'
p30
S'w'
p31
sS'yFXpq'
p32
S'j'
p33
sS'5'
p34
S'r'
p35
sS'4'
p36
S'l'
p37
sS'7'
p38
S'n'
p39
sS'9'
p40
S'i'
p41
sS'8'
p42
S'f'
p43
sS'jXNvc'
p44
S'u'
p45
sS'2'
p46
S'm'
p47
sS'xHYrR'
p48
S'x'
p49
sS'11'
p50
S'g'
p51
sS'UFgvY'
p52
S'h'
p53
sS'zkjhh'
p54
S'k'
p55
ssS'cset'
p56
c__builtin__
set
p57
((lp58
g50
ag14
ag4
ag12
ag24
ag30
ag26
ag28
ag10
ag46
ag34
ag36
ag38
ag40
ag42
atp59
Rp60
sS'annealevel'
p61
F33.90000000000021
sS'strng'
p62
(lp63
g26
ag26
ag46
ag26
ag26
ag26
ag38
ag46
ag40
ag34
ag46
ag28
ag28
ag26
ag36
ag28
ag26
ag26
ag38
ag26
ag26
ag26
ag26
ag26
ag26
ag36
ag42
ag26
ag26
ag38
ag34
ag36
ag34
ag26
ag30
ag26
ag40
aS'6'
p64
ag36
ag26
ag40
ag36
ag46
ag46
ag34
ag26
ag26
ag26
ag34
ag46
ag26
ag26
ag26
ag26
ag26
ag26
ag30
ag26
ag34
ag26
ag34
ag34
ag46
ag34
ag34
ag26
ag26
ag30
ag26
ag26
ag26
ag40
ag34
ag46
ag28
ag26
ag30
asS'csplit'
p65
(lp66
I0
aI1
aI0
aI1
aI0
aI1
aI0
aI1
aI0
aI1
aI0
aI1
aI0
aI1
aI0
aI1
aI1
aI1
aI1
aI1
aI0
aI1
aI1
aI1
aI1
aI1
aI1
aI0
aI0
aI1
aI1
aI1
aI1
aI1
aI1
aI1
aI1
aI0
aI1
aI1
aI1
aI0
aI1
aI1
aI0
aI0
aI0
aI1
aI1
aI1
aI1
aI1
aI1
aI0
aI1
aI1
aI1
aI1
aI1
aI1
aI1
aI1
aI0
aI1
aI1
aI1
aI1
aI1
aI1
aI1
aI1
aI1
aI1
aI1
aI1
aI1
asS'spl'
p67
(lp68
g26
ag26
ag46
ag26
ag26
ag26
ag38
ag46
ag40
ag34
ag46
ag28
ag28
ag26
ag36
ag28
ag26
ag26
ag38
ag26
ag50
ag26
ag26
ag26
ag36
ag42
ag10
ag34
ag36
ag34
ag26
ag30
ag26
ag40
ag12
ag26
ag40
ag24
ag46
ag4
ag34
ag46
ag26
ag26
ag26
aS'11'
p69
ag26
ag30
ag26
ag34
ag26
ag34
ag34
ag14
ag34
ag26
ag26
ag30
ag26
ag26
ag26
ag40
ag34
ag46
ag28
ag26
asS'ls'
p70
I76
sS'cscore'
p71
F0.4435490435490435
sb.
(i__main__
annealpoint
p0
(dp1
S'ccode'
p2
(dp3
S'pzANP'
p4
S'o'
p5
sS'XvEkT'
p6
S'q'
p7
sS'111'
p8
S'p'
p9
sS'frBve'
p10
S'r'
p11
sS'rXtAw'
p12
S'u'
p13
sS'wQZPi'
p14
S'x'
p15
sS'1'
p16
S'e'
p17
sS'0'
p18
S's'
p19
sS'3'
p20
S'v'
p21
sS'2'
p22
S't'
p23
sS'5'
p24
S'i'
p25
sS'4'
p26
S'd'
p27
sS'7'
p28
S'm'
p29
sS'6'
p30
S'h'
p31
sS'9'
p32
S'b'
p33
sS'8'
p34
S'k'
p35
sS'MeUTw'
p36
S'g'
p37
sS'fjMSW'
p38
S'f'
p39
sS'BfRnL'
p40
S'z'
p41
sS'75'
p42
S'a'
p43
sS'72'
p44
S'w'
p45
sS'94'
p46
S'c'
p47
sS'11'
p48
S'y'
p49
sS'14'
p50
S'l'
p51
sS'jiCAM'
p52
S'j'
p53
sS'Mynpt'
p54
S'n'
p55
ssS'cset'
p56
c__builtin__
set
p57
((lp58
g48
ag50
ag20
ag16
ag18
ag42
ag22
ag24
ag44
ag28
ag30
ag32
ag34
ag8
ag46
ag26
atp59
Rp60
sS'annealevel'
p61
F15.89999999999996
sS'strng'
p62
(lp63
g16
ag16
ag22
ag16
ag16
ag16
ag28
ag22
ag32
ag24
ag22
ag18
ag18
ag16
ag26
ag18
ag16
ag16
ag28
ag16
ag16
ag16
ag16
ag16
ag16
ag26
ag34
ag16
ag16
ag28
ag24
ag26
ag24
ag16
ag20
ag16
ag32
ag30
ag26
ag16
ag32
ag26
ag22
ag22
ag24
ag16
ag16
ag16
ag24
ag22
ag16
ag16
ag16
ag16
ag16
ag16
ag20
ag16
ag24
ag16
ag24
ag24
ag22
ag24
ag24
ag16
ag16
ag20
ag16
ag16
ag16
ag32
ag24
ag22
ag18
ag16
ag20
asS'csplit'
p64
(lp65
I0
aI1
aI0
aI1
aI0
aI1
aI0
aI1
aI0
aI1
aI0
aI1
aI0
aI1
aI0
aI1
aI1
aI1
aI1
aI1
aI1
aI0
aI1
aI1
aI1
aI1
aI1
aI1
aI1
aI0
aI1
aI1
aI1
aI1
aI1
aI1
aI1
aI1
aI1
aI1
aI0
aI1
aI1
aI1
aI1
aI0
aI0
aI1
aI1
aI1
aI1
aI0
aI0
aI1
aI1
aI1
aI1
aI1
aI1
aI1
aI1
aI1
aI1
aI1
aI1
aI1
aI1
aI1
aI1
aI1
aI1
aI1
aI1
aI1
aI1
aI1
asS'spl'
p66
(lp67
g16
ag16
ag22
ag16
ag16
ag16
ag44
ag32
ag24
ag22
ag18
ag18
ag50
ag18
ag16
ag16
ag28
ag16
ag16
ag48
ag16
ag16
ag26
ag34
ag16
ag16
ag42
ag26
ag24
ag16
ag20
ag16
ag32
ag30
ag26
ag16
ag46
ag22
ag22
ag24
ag8
ag24
ag22
ag16
aS'111'
p68
ag16
ag16
ag20
ag16
ag24
ag16
ag24
ag24
ag22
ag24
ag24
ag16
ag16
ag20
ag16
ag16
ag16
ag32
ag24
ag22
ag18
ag16
asS'ls'
p69
I76
sS'cscore'
p70
F0.45549080549080545
sb.
(i__main__
annealpoint
p0
(dp1
S'ccode'
p2
(dp3
S'ejQxo'
p4
S'z'
p5
sS'01'
p6
S'a'
p7
sS'21'
p8
S'j'
p9
sS'1'
p10
S'e'
p11
sS'0'
p12
S's'
p13
sS'3'
p14
S'm'
p15
sS'2'
p16
S'o'
p17
sS'5'
p18
S'f'
p19
sS'4'
p20
S'l'
p21
sS'7'
p22
S'd'
p23
sS'6'
p24
S'i'
p25
sS'9'
p26
S'n'
p27
sS'8'
p28
S'c'
p29
sS'VLbIp'
p30
S'h'
p31
sS'PaOGH'
p32
S'v'
p33
sS'pZxco'
p34
S'w'
p35
sS'YihvN'
p36
S'u'
p37
sS'11'
p38
S'r'
p39
sS'GbXQV'
p40
S'q'
p41
sS'SkyLE'
p42
S'b'
p43
sS'19'
p44
S'k'
p45
sS'QcWxH'
p46
S'g'
p47
sS'LmVNR'
p48
S't'
p49
sS'52'
p50
S'y'
p51
sS'LuIYQ'
p52
S'x'
p53
sS'LcmJW'
p54
S'p'
p55
ssS'cset'
p56
c__builtin__
set
p57
((lp58
g38
ag6
ag8
ag44
ag50
ag10
ag12
ag14
ag16
ag18
ag20
ag22
ag24
ag26
ag28
atp59
Rp60
sS'annealevel'
p61
F29.400000000000148
sS'strng'
p62
(lp63
g10
ag10
ag16
ag10
ag10
ag10
ag22
ag16
ag26
ag18
ag16
ag12
ag12
ag10
ag20
ag12
ag10
ag10
ag22
ag10
ag10
ag10
ag10
ag10
ag10
ag20
ag28
ag10
ag10
ag22
ag18
ag20
ag18
ag10
ag14
ag10
ag26
ag24
ag20
ag10
ag26
ag20
ag16
ag16
ag18
ag10
ag10
ag10
ag18
ag16
ag10
ag10
ag10
ag10
ag10
ag10
ag14
ag10
ag18
ag10
ag18
ag18
ag16
ag18
ag18
ag10
ag10
ag14
ag10
ag10
ag10
ag26
ag18
ag16
ag12
ag10
ag14
asS'csplit'
p64
(lp65
I0
aI1
aI0
aI1
aI0
aI1
aI0
aI1
aI0
aI1
aI0
aI1
aI0
aI1
aI0
aI1
aI0
aI1
aI1
aI1
aI0
aI1
aI0
aI1
aI1
aI1
aI1
aI1
aI1
aI1
aI1
aI1
aI1
aI1
aI1
aI1
aI1
aI1
aI1
aI1
aI1
aI1
aI1
aI1
aI1
aI0
aI1
aI1
aI0
aI1
aI1
aI1
aI1
aI0
aI1
aI1
aI1
aI1
aI1
aI1
aI1
aI1
aI1
aI1
aI1
aI1
aI1
aI1
aI1
aI1
aI0
aI1
aI1
aI1
aI0
aI1
asS'spl'
p66
(lp67
g10
ag10
ag8
ag10
ag10
ag22
ag16
ag26
ag18
ag16
ag12
ag12
ag10
ag20
ag12
ag38
ag22
ag10
aS'11'
p68
aS'11'
p69
ag10
ag20
ag28
ag10
ag10
ag22
ag18
ag20
ag18
ag10
ag14
ag10
ag26
ag24
ag20
ag10
ag26
ag20
ag16
ag16
ag18
aS'11'
p70
ag10
ag50
ag10
ag10
ag10
aS'11'
p71
ag10
ag14
ag10
ag18
ag10
ag18
ag18
ag16
ag18
ag18
ag10
ag10
ag14
ag10
ag10
ag44
ag18
ag16
ag6
asS'ls'
p72
I76
sS'cscore'
p73
F0.48427868427868426
sb.
(i__main__
annealpoint
p0
(dp1
S'ccode'
p2
(dp3
S'ejQxo'
p4
S'h'
p5
sS'01'
p6
S'y'
p7
sS'21'
p8
S'd'
p9
sS'1'
p10
S'e'
p11
sS'0'
p12
S's'
p13
sS'3'
p14
S'm'
p15
sS'2'
p16
S'o'
p17
sS'5'
p18
S'f'
p19
sS'4'
p20
S'l'
p21
sS'7'
p22
S't'
p23
sS'6'
p24
S'i'
p25
sS'9'
p26
S'n'
p27
sS'8'
p28
S'u'
p29
sS'VLbIp'
p30
S'a'
p31
sS'PaOGH'
p32
S'c'
p33
sS'pZxco'
p34
S'x'
p35
sS'YihvN'
p36
S'z'
p37
sS'11'
p38
S'r'
p39
sS'GbXQV'
p40
S'p'
p41
sS'SkyLE'
p42
S'b'
p43
sS'19'
p44
S'k'
p45
sS'QcWxH'
p46
S'j'
p47
sS'LmVNR'
p48
S'v'
p49
sS'52'
p50
S'w'
p51
sS'LuIYQ'
p52
S'q'
p53
sS'LcmJW'
p54
S'g'
p55
ssS'cset'
p56
c__builtin__
set
p57
((lp58
g38
ag6
ag8
ag44
ag50
ag10
ag12
ag14
ag16
ag18
ag20
ag22
ag24
ag26
ag28
atp59
Rp60
sS'annealevel'
p61
F29.50000000000015
sS'strng'
p62
(lp63
g10
ag10
ag16
ag10
ag10
ag10
ag22
ag16
ag26
ag18
ag16
ag12
ag12
ag10
ag20
ag12
ag10
ag10
ag22
ag10
ag10
ag10
ag10
ag10
ag10
ag20
ag28
ag10
ag10
ag22
ag18
ag20
ag18
ag10
ag14
ag10
ag26
ag24
ag20
ag10
ag26
ag20
ag16
ag16
ag18
ag10
ag10
ag10
ag18
ag16
ag10
ag10
ag10
ag10
ag10
ag10
ag14
ag10
ag18
ag10
ag18
ag18
ag16
ag18
ag18
ag10
ag10
ag14
ag10
ag10
ag10
ag26
ag18
ag16
ag12
ag10
ag14
asS'csplit'
p64
(lp65
I0
aI1
aI0
aI1
aI0
aI1
aI0
aI1
aI0
aI1
aI0
aI1
aI0
aI1
aI0
aI1
aI0
aI1
aI1
aI1
aI0
aI1
aI0
aI1
aI1
aI1
aI1
aI1
aI1
aI1
aI1
aI1
aI1
aI1
aI1
aI1
aI1
aI1
aI1
aI1
aI1
aI1
aI1
aI1
aI1
aI0
aI1
aI1
aI0
aI1
aI1
aI1
aI1
aI0
aI1
aI1
aI1
aI1
aI1
aI1
aI1
aI1
aI1
aI1
aI1
aI1
aI1
aI1
aI1
aI1
aI0
aI1
aI1
aI1
aI0
aI1
asS'spl'
p66
(lp67
g10
ag10
ag8
ag10
ag10
ag22
ag16
ag26
ag18
ag16
ag12
ag12
ag10
ag20
ag12
ag38
ag22
ag10
aS'11'
p68
aS'11'
p69
ag10
ag20
ag28
ag10
ag10
ag22
ag18
ag20
ag18
ag10
ag14
ag10
ag26
ag24
ag20
ag10
ag26
ag20
ag16
ag16
ag18
aS'11'
p70
ag10
ag50
ag10
ag10
ag10
aS'11'
p71
ag10
ag14
ag10
ag18
ag10
ag18
ag18
ag16
ag18
ag18
ag10
ag10
ag14
ag10
ag10
ag44
ag18
ag16
ag6
asS'ls'
p72
I76
sS'cscore'
p73
F0.4953897953897953
sb.
(i__main__
annealpoint
p0
(dp1
S'ccode'
p2
(dp3
S'51'
p4
S'k'
p5
sS'fUvxy'
p6
S'z'
p7
sS'1'
p8
S'e'
p9
sS'0'
p10
S'o'
p11
sS'3'
p12
S'f'
p13
sS'2'
p14
S's'
p15
sS'5'
p16
S'h'
p17
sS'4'
p18
S't'
p19
sS'7'
p20
S'g'
p21
sS'6'
p22
S'b'
p23
sS'9'
p24
S'c'
p25
sS'8'
p26
S'd'
p27
sS'OAcqw'
p28
S'n'
p29
sS'rGEyb'
p30
S'j'
p31
sS'CKDXN'
p32
S'p'
p33
sS'72'
p34
S'a'
p35
sS'94'
p36
S'm'
p37
sS'11'
p38
S'r'
p39
sS'sAXxy'
p40
S'w'
p41
sS'14'
p42
S'l'
p43
sS'31'
p44
S'u'
p45
sS'vvzPo'
p46
S'q'
p47
sS'PofFN'
p48
S'x'
p49
sS'52'
p50
S'i'
p51
sS'iYsrQ'
p52
S'v'
p53
sS'wDEks'
p54
S'y'
p55
ssS'cset'
p56
c__builtin__
set
p57
((lp58
g38
ag42
ag44
ag4
ag50
ag8
ag10
ag12
ag14
ag16
ag34
ag20
ag22
ag24
ag26
ag36
ag18
atp59
Rp60
sS'annealevel'
p61
F39.800000000000296
sS'strng'
p62
(lp63
g8
ag8
ag14
ag8
ag8
ag8
ag20
ag14
ag24
ag16
ag14
ag10
ag10
ag8
ag18
ag10
ag8
ag8
ag20
ag8
ag8
ag8
ag8
ag8
ag8
ag18
ag26
ag8
ag8
ag20
ag16
ag18
ag16
ag8
ag12
ag8
ag24
ag22
ag18
ag8
ag24
ag18
ag14
ag14
ag16
ag8
ag8
ag8
ag16
ag14
ag8
ag8
ag8
ag8
ag8
ag8
ag12
ag8
ag16
ag8
ag16
ag16
ag14
ag16
ag16
ag8
ag8
ag12
ag8
ag8
ag8
ag24
ag16
ag14
ag10
ag8
ag12
asS'csplit'
p64
(lp65
I0
aI1
aI0
aI1
aI0
aI1
aI0
aI1
aI0
aI1
aI0
aI1
aI0
aI1
aI0
aI1
aI1
aI1
aI1
aI1
aI0
aI1
aI1
aI1
aI1
aI1
aI1
aI1
aI1
aI1
aI1
aI1
aI1
aI1
aI0
aI1
aI1
aI1
aI1
aI1
aI0
aI1
aI1
aI1
aI0
aI1
aI1
aI1
aI0
aI1
aI0
aI1
aI1
aI1
aI1
aI1
aI1
aI1
aI1
aI1
aI1
aI1
aI1
aI1
aI1
aI1
aI1
aI1
aI1
aI1
aI1
aI1
aI1
aI1
aI1
aI1
asS'spl'
p66
(lp67
g38
ag14
aS'11'
p68
ag8
ag34
ag24
ag16
ag14
ag10
ag10
ag42
ag10
ag8
ag8
ag20
ag8
aS'11'
p69
ag8
ag8
ag8
ag18
ag26
ag8
ag8
ag20
ag16
ag18
ag16
ag8
ag44
ag24
ag22
ag18
ag8
ag36
ag14
ag14
ag4
ag8
ag8
ag50
aS'11'
p70
ag8
ag8
ag8
ag8
ag12
ag8
ag16
ag8
ag16
ag16
ag14
ag16
ag16
ag8
ag8
ag12
ag8
ag8
ag8
ag24
ag16
ag14
ag10
ag8
asS'ls'
p71
I76
sS'cscore'
p72
F0.5125803825803825
sb.
(i__main__
annealpoint
p0
(dp1
S'ccode'
p2
(dp3
S'51'
p4
S'b'
p5
sS'fUvxy'
p6
S'q'
p7
sS'1'
p8
S'e'
p9
sS'0'
p10
S'd'
p11
sS'3'
p12
S'n'
p13
sS'2'
p14
S'a'
p15
sS'5'
p16
S's'
p17
sS'4'
p18
S'm'
p19
sS'7'
p20
S'k'
p21
sS'6'
p22
S'j'
p23
sS'9'
p24
S'i'
p25
sS'8'
p26
S'c'
p27
sS'OAcqw'
p28
S'l'
p29
sS'rGEyb'
p30
S'u'
p31
sS'CKDXN'
p32
S'z'
p33
sS'72'
p34
S'p'
p35
sS'94'
p36
S'v'
p37
sS'11'
p38
S'r'
p39
sS'sAXxy'
p40
S'f'
p41
sS'14'
p42
S'h'
p43
sS'31'
p44
S't'
p45
sS'vvzPo'
p46
S'o'
p47
sS'PofFN'
p48
S'x'
p49
sS'52'
p50
S'w'
p51
sS'iYsrQ'
p52
S'y'
p53
sS'wDEks'
p54
S'g'
p55
ssS'cset'
p56
c__builtin__
set
p57
((lp58
g38
ag42
ag44
ag4
ag50
ag8
ag10
ag12
ag14
ag16
ag34
ag20
ag22
ag24
ag26
ag36
ag18
atp59
Rp60
sS'annealevel'
p61
F40.60000000000031
sS'strng'
p62
(lp63
g8
ag8
ag14
ag8
ag8
ag8
ag20
ag14
ag24
ag16
ag14
ag10
ag10
ag8
ag18
ag10
ag8
ag8
ag20
ag8
ag8
ag8
ag8
ag8
ag8
ag18
ag26
ag8
ag8
ag20
ag16
ag18
ag16
ag8
ag12
ag8
ag24
ag22
ag18
ag8
ag24
ag18
ag14
ag14
ag16
ag8
ag8
ag8
ag16
ag14
ag8
ag8
ag8
ag8
ag8
ag8
ag12
ag8
ag16
ag8
ag16
ag16
ag14
ag16
ag16
ag8
ag8
ag12
ag8
ag8
ag8
ag24
ag16
ag14
ag10
ag8
ag12
asS'csplit'
p64
(lp65
I0
aI1
aI0
aI1
aI0
aI1
aI0
aI1
aI0
aI1
aI0
aI1
aI0
aI1
aI0
aI1
aI1
aI1
aI1
aI1
aI0
aI1
aI1
aI1
aI1
aI1
aI1
aI1
aI1
aI1
aI1
aI1
aI1
aI1
aI0
aI1
aI1
aI1
aI1
aI1
aI0
aI1
aI1
aI1
aI0
aI1
aI1
aI1
aI0
aI1
aI0
aI1
aI1
aI1
aI1
aI1
aI1
aI1
aI1
aI1
aI1
aI1
aI1
aI1
aI1
aI1
aI1
aI1
aI1
aI1
aI1
aI1
aI1
aI1
aI1
aI1
asS'spl'
p66
(lp67
g38
ag14
aS'11'
p68
ag8
ag34
ag24
ag16
ag14
ag10
ag10
ag42
ag10
ag8
ag8
ag20
ag8
aS'11'
p69
ag8
ag8
ag8
ag18
ag26
ag8
ag8
ag20
ag16
ag18
ag16
ag8
ag44
ag24
ag22
ag18
ag8
ag36
ag14
ag14
ag4
ag8
ag8
ag50
aS'11'
p70
ag8
ag8
ag8
ag8
ag12
ag8
ag16
ag8
ag16
ag16
ag14
ag16
ag16
ag8
ag8
ag12
ag8
ag8
ag8
ag24
ag16
ag14
ag10
ag8
asS'ls'
p71
I76
sS'cscore'
p72
F0.5142205942205942
sb.
(i__main__
annealpoint
p0
(dp1
S'ccode'
p2
(dp3
S'51'
p4
S'p'
p5
sS'fUvxy'
p6
S'q'
p7
sS'1'
p8
S'e'
p9
sS'0'
p10
S'i'
p11
sS'3'
p12
S'n'
p13
sS'2'
p14
S'a'
p15
sS'5'
p16
S's'
p17
sS'4'
p18
S'l'
p19
sS'7'
p20
S'k'
p21
sS'6'
p22
S'u'
p23
sS'9'
p24
S'd'
p25
sS'8'
p26
S'w'
p27
sS'OAcqw'
p28
S'm'
p29
sS'rGEyb'
p30
S'c'
p31
sS'CKDXN'
p32
S'z'
p33
sS'72'
p34
S'b'
p35
sS'94'
p36
S'v'
p37
sS'11'
p38
S'r'
p39
sS'sAXxy'
p40
S'y'
p41
sS'14'
p42
S'h'
p43
sS'31'
p44
S't'
p45
sS'vvzPo'
p46
S'o'
p47
sS'PofFN'
p48
S'x'
p49
sS'52'
p50
S'g'
p51
sS'iYsrQ'
p52
S'f'
p53
sS'wDEks'
p54
S'j'
p55
ssS'cset'
p56
c__builtin__
set
p57
((lp58
g38
ag42
ag44
ag4
ag50
ag8
ag10
ag12
ag14
ag16
ag34
ag20
ag22
ag24
ag26
ag36
ag18
atp59
Rp60
sS'annealevel'
p61
F40.70000000000031
sS'strng'
p62
(lp63
g8
ag8
ag14
ag8
ag8
ag8
ag20
ag14
ag24
ag16
ag14
ag10
ag10
ag8
ag18
ag10
ag8
ag8
ag20
ag8
ag8
ag8
ag8
ag8
ag8
ag18
ag26
ag8
ag8
ag20
ag16
ag18
ag16
ag8
ag12
ag8
ag24
ag22
ag18
ag8
ag24
ag18
ag14
ag14
ag16
ag8
ag8
ag8
ag16
ag14
ag8
ag8
ag8
ag8
ag8
ag8
ag12
ag8
ag16
ag8
ag16
ag16
ag14
ag16
ag16
ag8
ag8
ag12
ag8
ag8
ag8
ag24
ag16
ag14
ag10
ag8
ag12
asS'csplit'
p64
(lp65
I0
aI1
aI0
aI1
aI0
aI1
aI0
aI1
aI0
aI1
aI0
aI1
aI0
aI1
aI0
aI1
aI1
aI1
aI1
aI1
aI0
aI1
aI1
aI1
aI1
aI1
aI1
aI1
aI1
aI1
aI1
aI1
aI1
aI1
aI0
aI1
aI1
aI1
aI1
aI1
aI0
aI1
aI1
aI1
aI0
aI1
aI1
aI1
aI0
aI1
aI0
aI1
aI1
aI1
aI1
aI1
aI1
aI1
aI1
aI1
aI1
aI1
aI1
aI1
aI1
aI1
aI1
aI1
aI1
aI1
aI1
aI1
aI1
aI1
aI1
aI1
asS'spl'
p66
(lp67
g38
ag14
aS'11'
p68
ag8
ag34
ag24
ag16
ag14
ag10
ag10
ag42
ag10
ag8
ag8
ag20
ag8
aS'11'
p69
ag8
ag8
ag8
ag18
ag26
ag8
ag8
ag20
ag16
ag18
ag16
ag8
ag44
ag24
ag22
ag18
ag8
ag36
ag14
ag14
ag4
ag8
ag8
ag50
aS'11'
p70
ag8
ag8
ag8
ag8
ag12
ag8
ag16
ag8
ag16
ag16
ag14
ag16
ag16
ag8
ag8
ag12
ag8
ag8
ag8
ag24
ag16
ag14
ag10
ag8
asS'ls'
p71
I76
sS'cscore'
p72
F0.5501994301994302
sb.
(i__main__
annealpoint
p0
(dp1
S'ccode'
p2
(dp3
S'51'
p4
S'j'
p5
sS'fUvxy'
p6
S'k'
p7
sS'1'
p8
S'e'
p9
sS'0'
p10
S't'
p11
sS'3'
p12
S'n'
p13
sS'2'
p14
S'a'
p15
sS'5'
p16
S's'
p17
sS'4'
p18
S'u'
p19
sS'7'
p20
S'w'
p21
sS'6'
p22
S'x'
p23
sS'9'
p24
S'y'
p25
sS'8'
p26
S'm'
p27
sS'OAcqw'
p28
S'h'
p29
sS'rGEyb'
p30
S'o'
p31
sS'CKDXN'
p32
S'g'
p33
sS'72'
p34
S'b'
p35
sS'94'
p36
S'p'
p37
sS'11'
p38
S'r'
p39
sS'sAXxy'
p40
S'i'
p41
sS'14'
p42
S'q'
p43
sS'31'
p44
S'l'
p45
sS'vvzPo'
p46
S'd'
p47
sS'PofFN'
p48
S'c'
p49
sS'52'
p50
S'z'
p51
sS'iYsrQ'
p52
S'f'
p53
sS'wDEks'
p54
S'v'
p55
ssS'cset'
p56
c__builtin__
set
p57
((lp58
g38
ag42
ag44
ag4
ag50
ag8
ag10
ag12
ag14
ag16
ag34
ag20
ag22
ag24
ag26
ag36
ag18
atp59
Rp60
sS'annealevel'
p61
F41.40000000000032
sS'strng'
p62
(lp63
g8
ag8
ag14
ag8
ag8
ag8
ag20
ag14
ag24
ag16
ag14
ag10
ag10
ag8
ag18
ag10
ag8
ag8
ag20
ag8
ag8
ag8
ag8
ag8
ag8
ag18
ag26
ag8
ag8
ag20
ag16
ag18
ag16
ag8
ag12
ag8
ag24
ag22
ag18
ag8
ag24
ag18
ag14
ag14
ag16
ag8
ag8
ag8
ag16
ag14
ag8
ag8
ag8
ag8
ag8
ag8
ag12
ag8
ag16
ag8
ag16
ag16
ag14
ag16
ag16
ag8
ag8
ag12
ag8
ag8
ag8
ag24
ag16
ag14
ag10
ag8
ag12
asS'csplit'
p64
(lp65
I0
aI1
aI0
aI1
aI0
aI1
aI0
aI1
aI0
aI1
aI0
aI1
aI0
aI1
aI0
aI1
aI1
aI1
aI1
aI1
aI0
aI1
aI1
aI1
aI1
aI1
aI1
aI1
aI1
aI1
aI1
aI1
aI1
aI1
aI0
aI1
aI1
aI1
aI1
aI1
aI0
aI1
aI1
aI1
aI0
aI1
aI1
aI1
aI0
aI1
aI0
aI1
aI1
aI1
aI1
aI1
aI1
aI1
aI1
aI1
aI1
aI1
aI1
aI1
aI1
aI1
aI1
aI1
aI1
aI1
aI1
aI1
aI1
aI1
aI1
aI1
asS'spl'
p66
(lp67
g38
ag14
aS'11'
p68
ag8
ag34
ag24
ag16
ag14
ag10
ag10
ag42
ag10
ag8
ag8
ag20
ag8
aS'11'
p69
ag8
ag8
ag8
ag18
ag26
ag8
ag8
ag20
ag16
ag18
ag16
ag8
ag44
ag24
ag22
ag18
ag8
ag36
ag14
ag14
ag4
ag8
ag8
ag50
aS'11'
p70
ag8
ag8
ag8
ag8
ag12
ag8
ag16
ag8
ag16
ag16
ag14
ag16
ag16
ag8
ag8
ag12
ag8
ag8
ag8
ag24
ag16
ag14
ag10
ag8
asS'ls'
p71
I76
sS'cscore'
p72
F0.5710938135938135
sb.
(i__main__
annealpoint
p0
(dp1
S'ccode'
p2
(dp3
S'51'
p4
S'f'
p5
sS'fUvxy'
p6
S'p'
p7
sS'1'
p8
S'e'
p9
sS'0'
p10
S'n'
p11
sS'3'
p12
S'y'
p13
sS'2'
p14
S'a'
p15
sS'5'
p16
S's'
p17
sS'4'
p18
S't'
p19
sS'7'
p20
S'o'
p21
sS'6'
p22
S'k'
p23
sS'9'
p24
S'u'
p25
sS'8'
p26
S'h'
p27
sS'OAcqw'
p28
S'm'
p29
sS'rGEyb'
p30
S'w'
p31
sS'CKDXN'
p32
S'q'
p33
sS'72'
p34
S'b'
p35
sS'94'
p36
S'j'
p37
sS'11'
p38
S'r'
p39
sS'sAXxy'
p40
S'i'
p41
sS'14'
p42
S'g'
p43
sS'31'
p44
S'l'
p45
sS'vvzPo'
p46
S'z'
p47
sS'PofFN'
p48
S'c'
p49
sS'52'
p50
S'd'
p51
sS'iYsrQ'
p52
S'v'
p53
sS'wDEks'
p54
S'x'
p55
ssS'cset'
p56
c__builtin__
set
p57
((lp58
g38
ag42
ag44
ag4
ag50
ag8
ag10
ag12
ag14
ag16
ag34
ag20
ag22
ag24
ag26
ag36
ag18
atp59
Rp60
sS'annealevel'
p61
F41.60000000000032
sS'strng'
p62
(lp63
g8
ag8
ag14
ag8
ag8
ag8
ag20
ag14
ag24
ag16
ag14
ag10
ag10
ag8
ag18
ag10
ag8
ag8
ag20
ag8
ag8
ag8
ag8
ag8
ag8
ag18
ag26
ag8
ag8
ag20
ag16
ag18
ag16
ag8
ag12
ag8
ag24
ag22
ag18
ag8
ag24
ag18
ag14
ag14
ag16
ag8
ag8
ag8
ag16
ag14
ag8
ag8
ag8
ag8
ag8
ag8
ag12
ag8
ag16
ag8
ag16
ag16
ag14
ag16
ag16
ag8
ag8
ag12
ag8
ag8
ag8
ag24
ag16
ag14
ag10
ag8
ag12
asS'csplit'
p64
(lp65
I0
aI1
aI0
aI1
aI0
aI1
aI0
aI1
aI0
aI1
aI0
aI1
aI0
aI1
aI0
aI1
aI1
aI1
aI1
aI1
aI0
aI1
aI1
aI1
aI1
aI1
aI1
aI1
aI1
aI1
aI1
aI1
aI1
aI1
aI0
aI1
aI1
aI1
aI1
aI1
aI0
aI1
aI1
aI1
aI0
aI1
aI1
aI1
aI0
aI1
aI0
aI1
aI1
aI1
aI1
aI1
aI1
aI1
aI1
aI1
aI1
aI1
aI1
aI1
aI1
aI1
aI1
aI1
aI1
aI1
aI1
aI1
aI1
aI1
aI1
aI1
asS'spl'
p66
(lp67
g38
ag14
aS'11'
p68
ag8
ag34
ag24
ag16
ag14
ag10
ag10
ag42
ag10
ag8
ag8
ag20
ag8
aS'11'
p69
ag8
ag8
ag8
ag18
ag26
ag8
ag8
ag20
ag16
ag18
ag16
ag8
ag44
ag24
ag22
ag18
ag8
ag36
ag14
ag14
ag4
ag8
ag8
ag50
aS'11'
p70
ag8
ag8
ag8
ag8
ag12
ag8
ag16
ag8
ag16
ag16
ag14
ag16
ag16
ag8
ag8
ag12
ag8
ag8
ag8
ag24
ag16
ag14
ag10
ag8
asS'ls'
p71
I76
sS'cscore'
p72
F0.607993487993488
sb.
(i__main__
annealpoint
p0
(dp1
S'ccode'
p2
(dp3
S'51'
p4
S'g'
p5
sS'fUvxy'
p6
S'u'
p7
sS'1'
p8
S'e'
p9
sS'0'
p10
S't'
p11
sS'3'
p12
S'n'
p13
sS'2'
p14
S'a'
p15
sS'5'
p16
S's'
p17
sS'4'
p18
S'i'
p19
sS'7'
p20
S'b'
p21
sS'6'
p22
S'c'
p23
sS'9'
p24
S'y'
p25
sS'8'
p26
S'k'
p27
sS'OAcqw'
p28
S'w'
p29
sS'rGEyb'
p30
S'm'
p31
sS'CKDXN'
p32
S'j'
p33
sS'72'
p34
S'd'
p35
sS'94'
p36
S'z'
p37
sS'11'
p38
S'r'
p39
sS'sAXxy'
p40
S'v'
p41
sS'14'
p42
S'o'
p43
sS'31'
p44
S'l'
p45
sS'vvzPo'
p46
S'f'
p47
sS'PofFN'
p48
S'q'
p49
sS'52'
p50
S'x'
p51
sS'iYsrQ'
p52
S'h'
p53
sS'wDEks'
p54
S'p'
p55
ssS'cset'
p56
c__builtin__
set
p57
((lp58
g38
ag42
ag44
ag4
ag50
ag8
ag10
ag12
ag14
ag16
ag34
ag20
ag22
ag24
ag26
ag36
ag18
atp59
Rp60
sS'annealevel'
p61
F49.50000000000043
sS'strng'
p62
(lp63
g8
ag8
ag14
ag8
ag8
ag8
ag20
ag14
ag24
ag16
ag14
ag10
ag10
ag8
ag18
ag10
ag8
ag8
ag20
ag8
ag8
ag8
ag8
ag8
ag8
ag18
ag26
ag8
ag8
ag20
ag16
ag18
ag16
ag8
ag12
ag8
ag24
ag22
ag18
ag8
ag24
ag18
ag14
ag14
ag16
ag8
ag8
ag8
ag16
ag14
ag8
ag8
ag8
ag8
ag8
ag8
ag12
ag8
ag16
ag8
ag16
ag16
ag14
ag16
ag16
ag8
ag8
ag12
ag8
ag8
ag8
ag24
ag16
ag14
ag10
ag8
ag12
asS'csplit'
p64
(lp65
I0
aI1
aI0
aI1
aI0
aI1
aI0
aI1
aI0
aI1
aI0
aI1
aI0
aI1
aI0
aI1
aI1
aI1
aI1
aI1
aI0
aI1
aI1
aI1
aI1
aI1
aI1
aI1
aI1
aI1
aI1
aI1
aI1
aI1
aI0
aI1
aI1
aI1
aI1
aI1
aI0
aI1
aI1
aI1
aI0
aI1
aI1
aI1
aI0
aI1
aI0
aI1
aI1
aI1
aI1
aI1
aI1
aI1
aI1
aI1
aI1
aI1
aI1
aI1
aI1
aI1
aI1
aI1
aI1
aI1
aI1
aI1
aI1
aI1
aI1
aI1
asS'spl'
p66
(lp67
g38
ag14
aS'11'
p68
ag8
ag34
ag24
ag16
ag14
ag10
ag10
ag42
ag10
ag8
ag8
ag20
ag8
aS'11'
p69
ag8
ag8
ag8
ag18
ag26
ag8
ag8
ag20
ag16
ag18
ag16
ag8
ag44
ag24
ag22
ag18
ag8
ag36
ag14
ag14
ag4
ag8
ag8
ag50
aS'11'
p70
ag8
ag8
ag8
ag8
ag12
ag8
ag16
ag8
ag16
ag16
ag14
ag16
ag16
ag8
ag8
ag12
ag8
ag8
ag8
ag24
ag16
ag14
ag10
ag8
asS'ls'
p71
I76
sS'cscore'
p72
F0.6514245014245015
sb.
(i__main__
annealpoint
p0
(dp1
S'ccode'
p2
(dp3
S'51'
p4
S'c'
p5
sS'fUvxy'
p6
S'g'
p7
sS'1'
p8
S'e'
p9
sS'0'
p10
S'l'
p11
sS'3'
p12
S'w'
p13
sS'2'
p14
S'a'
p15
sS'5'
p16
S's'
p17
sS'4'
p18
S'h'
p19
sS'7'
p20
S'n'
p21
sS'6'
p22
S'y'
p23
sS'9'
p24
S'm'
p25
sS'8'
p26
S'p'
p27
sS'OAcqw'
p28
S'k'
p29
sS'rGEyb'
p30
S'j'
p31
sS'CKDXN'
p32
S'q'
p33
sS'72'
p34
S'i'
p35
sS'94'
p36
S'd'
p37
sS'11'
p38
S'r'
p39
sS'sAXxy'
p40
S'v'
p41
sS'14'
p42
S'b'
p43
sS'31'
p44
S't'
p45
sS'vvzPo'
p46
S'u'
p47
sS'PofFN'
p48
S'z'
p49
sS'52'
p50
S'o'
p51
sS'iYsrQ'
p52
S'f'
p53
sS'wDEks'
p54
S'x'
p55
ssS'cset'
p56
c__builtin__
set
p57
((lp58
g38
ag42
ag44
ag4
ag50
ag8
ag10
ag12
ag14
ag16
ag34
ag20
ag22
ag24
ag26
ag36
ag18
atp59
Rp60
sS'annealevel'
p61
F56.90000000000054
sS'strng'
p62
(lp63
g8
ag8
ag14
ag8
ag8
ag8
ag20
ag14
ag24
ag16
ag14
ag10
ag10
ag8
ag18
ag10
ag8
ag8
ag20
ag8
ag8
ag8
ag8
ag8
ag8
ag18
ag26
ag8
ag8
ag20
ag16
ag18
ag16
ag8
ag12
ag8
ag24
ag22
ag18
ag8
ag24
ag18
ag14
ag14
ag16
ag8
ag8
ag8
ag16
ag14
ag8
ag8
ag8
ag8
ag8
ag8
ag12
ag8
ag16
ag8
ag16
ag16
ag14
ag16
ag16
ag8
ag8
ag12
ag8
ag8
ag8
ag24
ag16
ag14
ag10
ag8
ag12
asS'csplit'
p64
(lp65
I0
aI1
aI0
aI1
aI0
aI1
aI0
aI1
aI0
aI1
aI0
aI1
aI0
aI1
aI0
aI1
aI1
aI1
aI1
aI1
aI0
aI1
aI1
aI1
aI1
aI1
aI1
aI1
aI1
aI1
aI1
aI1
aI1
aI1
aI0
aI1
aI1
aI1
aI1
aI1
aI0
aI1
aI1
aI1
aI0
aI1
aI1
aI1
aI0
aI1
aI0
aI1
aI1
aI1
aI1
aI1
aI1
aI1
aI1
aI1
aI1
aI1
aI1
aI1
aI1
aI1
aI1
aI1
aI1
aI1
aI1
aI1
aI1
aI1
aI1
aI1
asS'spl'
p66
(lp67
g38
ag14
aS'11'
p68
ag8
ag34
ag24
ag16
ag14
ag10
ag10
ag42
ag10
ag8
ag8
ag20
ag8
aS'11'
p69
ag8
ag8
ag8
ag18
ag26
ag8
ag8
ag20
ag16
ag18
ag16
ag8
ag44
ag24
ag22
ag18
ag8
ag36
ag14
ag14
ag4
ag8
ag8
ag50
aS'11'
p70
ag8
ag8
ag8
ag8
ag12
ag8
ag16
ag8
ag16
ag16
ag14
ag16
ag16
ag8
ag8
ag12
ag8
ag8
ag8
ag24
ag16
ag14
ag10
ag8
asS'ls'
p71
I76
sS'cscore'
p72
F0.6684330484330484
sb.
(i__main__
annealpoint
p0
(dp1
S'ccode'
p2
(dp3
S'51'
p4
S'x'
p5
sS'fUvxy'
p6
S'n'
p7
sS'1'
p8
S'e'
p9
sS'0'
p10
S'v'
p11
sS'3'
p12
S'f'
p13
sS'2'
p14
S'a'
p15
sS'5'
p16
S's'
p17
sS'4'
p18
S'u'
p19
sS'7'
p20
S'p'
p21
sS'6'
p22
S'o'
p23
sS'9'
p24
S'y'
p25
sS'8'
p26
S'b'
p27
sS'OAcqw'
p28
S'q'
p29
sS'rGEyb'
p30
S'g'
p31
sS'CKDXN'
p32
S't'
p33
sS'72'
p34
S'l'
p35
sS'94'
p36
S'm'
p37
sS'11'
p38
S'r'
p39
sS'sAXxy'
p40
S'c'
p41
sS'14'
p42
S'j'
p43
sS'31'
p44
S'd'
p45
sS'vvzPo'
p46
S'w'
p47
sS'PofFN'
p48
S'i'
p49
sS'52'
p50
S'h'
p51
sS'iYsrQ'
p52
S'k'
p53
sS'wDEks'
p54
S'z'
p55
ssS'cset'
p56
c__builtin__
set
p57
((lp58
g38
ag42
ag44
ag4
ag50
ag8
ag10
ag12
ag14
ag16
ag34
ag20
ag22
ag24
ag26
ag36
ag18
atp59
Rp60
sS'annealevel'
p61
F88.59999999999924
sS'strng'
p62
(lp63
g8
ag8
ag14
ag8
ag8
ag8
ag20
ag14
ag24
ag16
ag14
ag10
ag10
ag8
ag18
ag10
ag8
ag8
ag20
ag8
ag8
ag8
ag8
ag8
ag8
ag18
ag26
ag8
ag8
ag20
ag16
ag18
ag16
ag8
ag12
ag8
ag24
ag22
ag18
ag8
ag24
ag18
ag14
ag14
ag16
ag8
ag8
ag8
ag16
ag14
ag8
ag8
ag8
ag8
ag8
ag8
ag12
ag8
ag16
ag8
ag16
ag16
ag14
ag16
ag16
ag8
ag8
ag12
ag8
ag8
ag8
ag24
ag16
ag14
ag10
ag8
ag12
asS'csplit'
p64
(lp65
I0
aI1
aI0
aI1
aI0
aI1
aI0
aI1
aI0
aI1
aI0
aI1
aI0
aI1
aI0
aI1
aI1
aI1
aI1
aI1
aI0
aI1
aI1
aI1
aI1
aI1
aI1
aI1
aI1
aI1
aI1
aI1
aI1
aI1
aI0
aI1
aI1
aI1
aI1
aI1
aI0
aI1
aI1
aI1
aI0
aI1
aI1
aI1
aI0
aI1
aI0
aI1
aI1
aI1
aI1
aI1
aI1
aI1
aI1
aI1
aI1
aI1
aI1
aI1
aI1
aI1
aI1
aI1
aI1
aI1
aI1
aI1
aI1
aI1
aI1
aI1
asS'spl'
p66
(lp67
g38
ag14
aS'11'
p68
ag8
ag34
ag24
ag16
ag14
ag10
ag10
ag42
ag10
ag8
ag8
ag20
ag8
aS'11'
p69
ag8
ag8
ag8
ag18
ag26
ag8
ag8
ag20
ag16
ag18
ag16
ag8
ag44
ag24
ag22
ag18
ag8
ag36
ag14
ag14
ag4
ag8
ag8
ag50
aS'11'
p70
ag8
ag8
ag8
ag8
ag12
ag8
ag16
ag8
ag16
ag16
ag14
ag16
ag16
ag8
ag8
ag12
ag8
ag8
ag8
ag24
ag16
ag14
ag10
ag8
asS'ls'
p71
I76
sS'cscore'
p72
F0.6722741147741149
sb.
(i__main__
annealpoint
p0
(dp1
S'ccode'
p2
(dp3
S'51'
p4
S'x'
p5
sS'fUvxy'
p6
S'w'
p7
sS'1'
p8
S'e'
p9
sS'0'
p10
S'v'
p11
sS'3'
p12
S'n'
p13
sS'2'
p14
S'a'
p15
sS'5'
p16
S's'
p17
sS'4'
p18
S'u'
p19
sS'7'
p20
S't'
p21
sS'6'
p22
S'o'
p23
sS'9'
p24
S'y'
p25
sS'8'
p26
S'g'
p27
sS'OAcqw'
p28
S'k'
p29
sS'rGEyb'
p30
S'b'
p31
sS'CKDXN'
p32
S'c'
p33
sS'72'
p34
S'l'
p35
sS'94'
p36
S'm'
p37
sS'11'
p38
S'r'
p39
sS'sAXxy'
p40
S'i'
p41
sS'14'
p42
S'z'
p43
sS'31'
p44
S'd'
p45
sS'vvzPo'
p46
S'j'
p47
sS'PofFN'
p48
S'p'
p49
sS'52'
p50
S'h'
p51
sS'iYsrQ'
p52
S'q'
p53
sS'wDEks'
p54
S'f'
p55
ssS'cset'
p56
c__builtin__
set
p57
((lp58
g38
ag42
ag44
ag4
ag50
ag8
ag10
ag12
ag14
ag16
ag34
ag20
ag22
ag24
ag26
ag36
ag18
atp59
Rp60
sS'annealevel'
p61
F88.99999999999922
sS'strng'
p62
(lp63
g8
ag8
ag14
ag8
ag8
ag8
ag20
ag14
ag24
ag16
ag14
ag10
ag10
ag8
ag18
ag10
ag8
ag8
ag20
ag8
ag8
ag8
ag8
ag8
ag8
ag18
ag26
ag8
ag8
ag20
ag16
ag18
ag16
ag8
ag12
ag8
ag24
ag22
ag18
ag8
ag24
ag18
ag14
ag14
ag16
ag8
ag8
ag8
ag16
ag14
ag8
ag8
ag8
ag8
ag8
ag8
ag12
ag8
ag16
ag8
ag16
ag16
ag14
ag16
ag16
ag8
ag8
ag12
ag8
ag8
ag8
ag24
ag16
ag14
ag10
ag8
ag12
asS'csplit'
p64
(lp65
I0
aI1
aI0
aI1
aI0
aI1
aI0
aI1
aI0
aI1
aI0
aI1
aI0
aI1
aI0
aI1
aI1
aI1
aI1
aI1
aI0
aI1
aI1
aI1
aI1
aI1
aI1
aI1
aI1
aI1
aI1
aI1
aI1
aI1
aI0
aI1
aI1
aI1
aI1
aI1
aI0
aI1
aI1
aI1
aI0
aI1
aI1
aI1
aI0
aI1
aI0
aI1
aI1
aI1
aI1
aI1
aI1
aI1
aI1
aI1
aI1
aI1
aI1
aI1
aI1
aI1
aI1
aI1
aI1
aI1
aI1
aI1
aI1
aI1
aI1
aI1
asS'spl'
p66
(lp67
g38
ag14
aS'11'
p68
ag8
ag34
ag24
ag16
ag14
ag10
ag10
ag42
ag10
ag8
ag8
ag20
ag8
aS'11'
p69
ag8
ag8
ag8
ag18
ag26
ag8
ag8
ag20
ag16
ag18
ag16
ag8
ag44
ag24
ag22
ag18
ag8
ag36
ag14
ag14
ag4
ag8
ag8
ag50
aS'11'
p70
ag8
ag8
ag8
ag8
ag12
ag8
ag16
ag8
ag16
ag16
ag14
ag16
ag16
ag8
ag8
ag12
ag8
ag8
ag8
ag24
ag16
ag14
ag10
ag8
asS'ls'
p71
I76
sS'cscore'
p72
F0.7199592999593
sb.
(i__main__
annealpoint
p0
(dp1
S'ccode'
p2
(dp3
S'51'
p4
S'k'
p5
sS'fUvxy'
p6
S'j'
p7
sS'1'
p8
S'e'
p9
sS'0'
p10
S'v'
p11
sS'3'
p12
S'n'
p13
sS'2'
p14
S'a'
p15
sS'5'
p16
S's'
p17
sS'4'
p18
S'u'
p19
sS'7'
p20
S't'
p21
sS'6'
p22
S'o'
p23
sS'9'
p24
S'y'
p25
sS'8'
p26
S'g'
p27
sS'OAcqw'
p28
S'c'
p29
sS'rGEyb'
p30
S'b'
p31
sS'CKDXN'
p32
S'f'
p33
sS'72'
p34
S'l'
p35
sS'94'
p36
S'm'
p37
sS'11'
p38
S'r'
p39
sS'sAXxy'
p40
S'w'
p41
sS'14'
p42
S'z'
p43
sS'31'
p44
S'd'
p45
sS'vvzPo'
p46
S'i'
p47
sS'PofFN'
p48
S'p'
p49
sS'52'
p50
S'h'
p51
sS'iYsrQ'
p52
S'x'
p53
sS'wDEks'
p54
S'q'
p55
ssS'cset'
p56
c__builtin__
set
p57
((lp58
g38
ag42
ag44
ag4
ag50
ag8
ag10
ag12
ag14
ag16
ag34
ag20
ag22
ag24
ag26
ag36
ag18
atp59
Rp60
sS'annealevel'
p61
F89.09999999999921
sS'strng'
p62
(lp63
g8
ag8
ag14
ag8
ag8
ag8
ag20
ag14
ag24
ag16
ag14
ag10
ag10
ag8
ag18
ag10
ag8
ag8
ag20
ag8
ag8
ag8
ag8
ag8
ag8
ag18
ag26
ag8
ag8
ag20
ag16
ag18
ag16
ag8
ag12
ag8
ag24
ag22
ag18
ag8
ag24
ag18
ag14
ag14
ag16
ag8
ag8
ag8
ag16
ag14
ag8
ag8
ag8
ag8
ag8
ag8
ag12
ag8
ag16
ag8
ag16
ag16
ag14
ag16
ag16
ag8
ag8
ag12
ag8
ag8
ag8
ag24
ag16
ag14
ag10
ag8
ag12
asS'csplit'
p64
(lp65
I0
aI1
aI0
aI1
aI0
aI1
aI0
aI1
aI0
aI1
aI0
aI1
aI0
aI1
aI0
aI1
aI1
aI1
aI1
aI1
aI0
aI1
aI1
aI1
aI1
aI1
aI1
aI1
aI1
aI1
aI1
aI1
aI1
aI1
aI0
aI1
aI1
aI1
aI1
aI1
aI0
aI1
aI1
aI1
aI0
aI1
aI1
aI1
aI0
aI1
aI0
aI1
aI1
aI1
aI1
aI1
aI1
aI1
aI1
aI1
aI1
aI1
aI1
aI1
aI1
aI1
aI1
aI1
aI1
aI1
aI1
aI1
aI1
aI1
aI1
aI1
asS'spl'
p66
(lp67
g38
ag14
aS'11'
p68
ag8
ag34
ag24
ag16
ag14
ag10
ag10
ag42
ag10
ag8
ag8
ag20
ag8
aS'11'
p69
ag8
ag8
ag8
ag18
ag26
ag8
ag8
ag20
ag16
ag18
ag16
ag8
ag44
ag24
ag22
ag18
ag8
ag36
ag14
ag14
ag4
ag8
ag8
ag50
aS'11'
p70
ag8
ag8
ag8
ag8
ag12
ag8
ag16
ag8
ag16
ag16
ag14
ag16
ag16
ag8
ag8
ag12
ag8
ag8
ag8
ag24
ag16
ag14
ag10
ag8
asS'ls'
p71
I76
sS'cscore'
p72
F0.7310704110704112
sb.
(i__main__
annealpoint
p0
(dp1
S'ccode'
p2
(dp3
S'51'
p4
S'p'
p5
sS'fUvxy'
p6
S'z'
p7
sS'1'
p8
S'e'
p9
sS'0'
p10
S'w'
p11
sS'3'
p12
S'n'
p13
sS'2'
p14
S'a'
p15
sS'5'
p16
S's'
p17
sS'4'
p18
S'u'
p19
sS'7'
p20
S't'
p21
sS'6'
p22
S'o'
p23
sS'9'
p24
S'y'
p25
sS'8'
p26
S'b'
p27
sS'OAcqw'
p28
S'v'
p29
sS'rGEyb'
p30
S'j'
p31
sS'CKDXN'
p32
S'f'
p33
sS'72'
p34
S'l'
p35
sS'94'
p36
S'm'
p37
sS'11'
p38
S'r'
p39
sS'sAXxy'
p40
S'k'
p41
sS'14'
p42
S'i'
p43
sS'31'
p44
S'd'
p45
sS'vvzPo'
p46
S'q'
p47
sS'PofFN'
p48
S'x'
p49
sS'52'
p50
S'h'
p51
sS'iYsrQ'
p52
S'g'
p53
sS'wDEks'
p54
S'c'
p55
ssS'cset'
p56
c__builtin__
set
p57
((lp58
g38
ag42
ag44
ag4
ag50
ag8
ag10
ag12
ag14
ag16
ag34
ag20
ag22
ag24
ag26
ag36
ag18
atp59
Rp60
sS'annealevel'
p61
F92.69999999999901
sS'strng'
p62
(lp63
g8
ag8
ag14
ag8
ag8
ag8
ag20
ag14
ag24
ag16
ag14
ag10
ag10
ag8
ag18
ag10
ag8
ag8
ag20
ag8
ag8
ag8
ag8
ag8
ag8
ag18
ag26
ag8
ag8
ag20
ag16
ag18
ag16
ag8
ag12
ag8
ag24
ag22
ag18
ag8
ag24
ag18
ag14
ag14
ag16
ag8
ag8
ag8
ag16
ag14
ag8
ag8
ag8
ag8
ag8
ag8
ag12
ag8
ag16
ag8
ag16
ag16
ag14
ag16
ag16
ag8
ag8
ag12
ag8
ag8
ag8
ag24
ag16
ag14
ag10
ag8
ag12
asS'csplit'
p64
(lp65
I0
aI1
aI0
aI1
aI0
aI1
aI0
aI1
aI0
aI1
aI0
aI1
aI0
aI1
aI0
aI1
aI1
aI1
aI1
aI1
aI0
aI1
aI1
aI1
aI1
aI1
aI1
aI1
aI1
aI1
aI1
aI1
aI1
aI1
aI0
aI1
aI1
aI1
aI1
aI1
aI0
aI1
aI1
aI1
aI0
aI1
aI1
aI1
aI0
aI1
aI0
aI1
aI1
aI1
aI1
aI1
aI1
aI1
aI1
aI1
aI1
aI1
aI1
aI1
aI1
aI1
aI1
aI1
aI1
aI1
aI1
aI1
aI1
aI1
aI1
aI1
asS'spl'
p66
(lp67
g38
ag14
aS'11'
p68
ag8
ag34
ag24
ag16
ag14
ag10
ag10
ag42
ag10
ag8
ag8
ag20
ag8
aS'11'
p69
ag8
ag8
ag8
ag18
ag26
ag8
ag8
ag20
ag16
ag18
ag16
ag8
ag44
ag24
ag22
ag18
ag8
ag36
ag14
ag14
ag4
ag8
ag8
ag50
aS'11'
p70
ag8
ag8
ag8
ag8
ag12
ag8
ag16
ag8
ag16
ag16
ag14
ag16
ag16
ag8
ag8
ag12
ag8
ag8
ag8
ag24
ag16
ag14
ag10
ag8
asS'ls'
p71
I76
sS'cscore'
p72
F0.737948717948718
sb.
(i__main__
annealpoint
p0
(dp1
S'ccode'
p2
(dp3
S'51'
p4
S'g'
p5
sS'fUvxy'
p6
S'y'
p7
sS'1'
p8
S'e'
p9
sS'0'
p10
S'l'
p11
sS'3'
p12
S'b'
p13
sS'2'
p14
S'a'
p15
sS'5'
p16
S's'
p17
sS'4'
p18
S'u'
p19
sS'7'
p20
S't'
p21
sS'6'
p22
S'n'
p23
sS'9'
p24
S'i'
p25
sS'8'
p26
S'm'
p27
sS'OAcqw'
p28
S'z'
p29
sS'rGEyb'
p30
S'v'
p31
sS'CKDXN'
p32
S'x'
p33
sS'72'
p34
S'd'
p35
sS'94'
p36
S'j'
p37
sS'11'
p38
S'r'
p39
sS'sAXxy'
p40
S'w'
p41
sS'14'
p42
S'c'
p43
sS'31'
p44
S'o'
p45
sS'vvzPo'
p46
S'p'
p47
sS'PofFN'
p48
S'h'
p49
sS'52'
p50
S'f'
p51
sS'iYsrQ'
p52
S'k'
p53
sS'wDEks'
p54
S'q'
p55
ssS'cset'
p56
c__builtin__
set
p57
((lp58
g38
ag42
ag44
ag4
ag50
ag8
ag10
ag12
ag14
ag16
ag34
ag20
ag22
ag24
ag26
ag36
ag18
atp59
Rp60
sS'annealevel'
p61
F108.7999999999981
sS'strng'
p62
(lp63
g8
ag8
ag14
ag8
ag8
ag8
ag20
ag14
ag24
ag16
ag14
ag10
ag10
ag8
ag18
ag10
ag8
ag8
ag20
ag8
ag8
ag8
ag8
ag8
ag8
ag18
ag26
ag8
ag8
ag20
ag16
ag18
ag16
ag8
ag12
ag8
ag24
ag22
ag18
ag8
ag24
ag18
ag14
ag14
ag16
ag8
ag8
ag8
ag16
ag14
ag8
ag8
ag8
ag8
ag8
ag8
ag12
ag8
ag16
ag8
ag16
ag16
ag14
ag16
ag16
ag8
ag8
ag12
ag8
ag8
ag8
ag24
ag16
ag14
ag10
ag8
ag12
asS'csplit'
p64
(lp65
I0
aI1
aI0
aI1
aI0
aI1
aI0
aI1
aI0
aI1
aI0
aI1
aI0
aI1
aI0
aI1
aI1
aI1
aI1
aI1
aI0
aI1
aI1
aI1
aI1
aI1
aI1
aI1
aI1
aI1
aI1
aI1
aI1
aI1
aI0
aI1
aI1
aI1
aI1
aI1
aI0
aI1
aI1
aI1
aI0
aI1
aI1
aI1
aI0
aI1
aI0
aI1
aI1
aI1
aI1
aI1
aI1
aI1
aI1
aI1
aI1
aI1
aI1
aI1
aI1
aI1
aI1
aI1
aI1
aI1
aI1
aI1
aI1
aI1
aI1
aI1
asS'spl'
p66
(lp67
g38
ag14
aS'11'
p68
ag8
ag34
ag24
ag16
ag14
ag10
ag10
ag42
ag10
ag8
ag8
ag20
ag8
aS'11'
p69
ag8
ag8
ag8
ag18
ag26
ag8
ag8
ag20
ag16
ag18
ag16
ag8
ag44
ag24
ag22
ag18
ag8
ag36
ag14
ag14
ag4
ag8
ag8
ag50
aS'11'
p70
ag8
ag8
ag8
ag8
ag12
ag8
ag16
ag8
ag16
ag16
ag14
ag16
ag16
ag8
ag8
ag12
ag8
ag8
ag8
ag24
ag16
ag14
ag10
ag8
asS'ls'
p71
I76
sS'cscore'
p72
F0.7408831908831909
sb.
(i__main__
annealpoint
p0
(dp1
S'ccode'
p2
(dp3
S'51'
p4
S'z'
p5
sS'fUvxy'
p6
S'q'
p7
sS'1'
p8
S'e'
p9
sS'0'
p10
S'l'
p11
sS'3'
p12
S'y'
p13
sS'2'
p14
S'a'
p15
sS'5'
p16
S's'
p17
sS'4'
p18
S'u'
p19
sS'7'
p20
S't'
p21
sS'6'
p22
S'n'
p23
sS'9'
p24
S'i'
p25
sS'8'
p26
S'm'
p27
sS'OAcqw'
p28
S'w'
p29
sS'rGEyb'
p30
S'x'
p31
sS'CKDXN'
p32
S'k'
p33
sS'72'
p34
S'd'
p35
sS'94'
p36
S'p'
p37
sS'11'
p38
S'r'
p39
sS'sAXxy'
p40
S'g'
p41
sS'14'
p42
S'c'
p43
sS'31'
p44
S'h'
p45
sS'vvzPo'
p46
S'j'
p47
sS'PofFN'
p48
S'v'
p49
sS'52'
p50
S'o'
p51
sS'iYsrQ'
p52
S'f'
p53
sS'wDEks'
p54
S'b'
p55
ssS'cset'
p56
c__builtin__
set
p57
((lp58
g38
ag42
ag44
ag4
ag50
ag8
ag10
ag12
ag14
ag16
ag34
ag20
ag22
ag24
ag26
ag36
ag18
atp59
Rp60
sS'annealevel'
p61
F109.69999999999804
sS'strng'
p62
(lp63
g8
ag8
ag14
ag8
ag8
ag8
ag20
ag14
ag24
ag16
ag14
ag10
ag10
ag8
ag18
ag10
ag8
ag8
ag20
ag8
ag8
ag8
ag8
ag8
ag8
ag18
ag26
ag8
ag8
ag20
ag16
ag18
ag16
ag8
ag12
ag8
ag24
ag22
ag18
ag8
ag24
ag18
ag14
ag14
ag16
ag8
ag8
ag8
ag16
ag14
ag8
ag8
ag8
ag8
ag8
ag8
ag12
ag8
ag16
ag8
ag16
ag16
ag14
ag16
ag16
ag8
ag8
ag12
ag8
ag8
ag8
ag24
ag16
ag14
ag10
ag8
ag12
asS'csplit'
p64
(lp65
I0
aI1
aI0
aI1
aI0
aI1
aI0
aI1
aI0
aI1
aI0
aI1
aI0
aI1
aI0
aI1
aI1
aI1
aI1
aI1
aI0
aI1
aI1
aI1
aI1
aI1
aI1
aI1
aI1
aI1
aI1
aI1
aI1
aI1
aI0
aI1
aI1
aI1
aI1
aI1
aI0
aI1
aI1
aI1
aI0
aI1
aI1
aI1
aI0
aI1
aI0
aI1
aI1
aI1
aI1
aI1
aI1
aI1
aI1
aI1
aI1
aI1
aI1
aI1
aI1
aI1
aI1
aI1
aI1
aI1
aI1
aI1
aI1
aI1
aI1
aI1
asS'spl'
p66
(lp67
g38
ag14
aS'11'
p68
ag8
ag34
ag24
ag16
ag14
ag10
ag10
ag42
ag10
ag8
ag8
ag20
ag8
aS'11'
p69
ag8
ag8
ag8
ag18
ag26
ag8
ag8
ag20
ag16
ag18
ag16
ag8
ag44
ag24
ag22
ag18
ag8
ag36
ag14
ag14
ag4
ag8
ag8
ag50
aS'11'
p70
ag8
ag8
ag8
ag8
ag12
ag8
ag16
ag8
ag16
ag16
ag14
ag16
ag16
ag8
ag8
ag12
ag8
ag8
ag8
ag24
ag16
ag14
ag10
ag8
asS'ls'
p71
I76
sS'cscore'
p72
F0.7585470085470086
sb.
(i__main__
annealpoint
p0
(dp1
S'ccode'
p2
(dp3
S'51'
p4
S'g'
p5
sS'fUvxy'
p6
S'q'
p7
sS'1'
p8
S'e'
p9
sS'0'
p10
S'l'
p11
sS'3'
p12
S'b'
p13
sS'2'
p14
S'a'
p15
sS'5'
p16
S's'
p17
sS'4'
p18
S'u'
p19
sS'7'
p20
S't'
p21
sS'6'
p22
S'n'
p23
sS'9'
p24
S'i'
p25
sS'8'
p26
S'm'
p27
sS'OAcqw'
p28
S'v'
p29
sS'rGEyb'
p30
S'z'
p31
sS'CKDXN'
p32
S'x'
p33
sS'72'
p34
S'd'
p35
sS'94'
p36
S'p'
p37
sS'11'
p38
S'r'
p39
sS'sAXxy'
p40
S'w'
p41
sS'14'
p42
S'c'
p43
sS'31'
p44
S'h'
p45
sS'vvzPo'
p46
S'k'
p47
sS'PofFN'
p48
S'y'
p49
sS'52'
p50
S'f'
p51
sS'iYsrQ'
p52
S'j'
p53
sS'wDEks'
p54
S'o'
p55
ssS'cset'
p56
c__builtin__
set
p57
((lp58
g38
ag42
ag44
ag4
ag50
ag8
ag10
ag12
ag14
ag16
ag34
ag20
ag22
ag24
ag26
ag36
ag18
atp59
Rp60
sS'annealevel'
p61
F111.59999999999793
sS'strng'
p62
(lp63
g8
ag8
ag14
ag8
ag8
ag8
ag20
ag14
ag24
ag16
ag14
ag10
ag10
ag8
ag18
ag10
ag8
ag8
ag20
ag8
ag8
ag8
ag8
ag8
ag8
ag18
ag26
ag8
ag8
ag20
ag16
ag18
ag16
ag8
ag12
ag8
ag24
ag22
ag18
ag8
ag24
ag18
ag14
ag14
ag16
ag8
ag8
ag8
ag16
ag14
ag8
ag8
ag8
ag8
ag8
ag8
ag12
ag8
ag16
ag8
ag16
ag16
ag14
ag16
ag16
ag8
ag8
ag12
ag8
ag8
ag8
ag24
ag16
ag14
ag10
ag8
ag12
asS'csplit'
p64
(lp65
I0
aI1
aI0
aI1
aI0
aI1
aI0
aI1
aI0
aI1
aI0
aI1
aI0
aI1
aI0
aI1
aI1
aI1
aI1
aI1
aI0
aI1
aI1
aI1
aI1
aI1
aI1
aI1
aI1
aI1
aI1
aI1
aI1
aI1
aI0
aI1
aI1
aI1
aI1
aI1
aI0
aI1
aI1
aI1
aI0
aI1
aI1
aI1
aI0
aI1
aI0
aI1
aI1
aI1
aI1
aI1
aI1
aI1
aI1
aI1
aI1
aI1
aI1
aI1
aI1
aI1
aI1
aI1
aI1
aI1
aI1
aI1
aI1
aI1
aI1
aI1
asS'spl'
p66
(lp67
g38
ag14
aS'11'
p68
ag8
ag34
ag24
ag16
ag14
ag10
ag10
ag42
ag10
ag8
ag8
ag20
ag8
aS'11'
p69
ag8
ag8
ag8
ag18
ag26
ag8
ag8
ag20
ag16
ag18
ag16
ag8
ag44
ag24
ag22
ag18
ag8
ag36
ag14
ag14
ag4
ag8
ag8
ag50
aS'11'
p70
ag8
ag8
ag8
ag8
ag12
ag8
ag16
ag8
ag16
ag16
ag14
ag16
ag16
ag8
ag8
ag12
ag8
ag8
ag8
ag24
ag16
ag14
ag10
ag8
asS'ls'
p71
I76
sS'cscore'
p72
F0.7742165242165242
sb.
(i__main__
annealpoint
p0
(dp1
S'ccode'
p2
(dp3
S'51'
p4
S'z'
p5
sS'fUvxy'
p6
S'o'
p7
sS'1'
p8
S'e'
p9
sS'0'
p10
S'l'
p11
sS'3'
p12
S'w'
p13
sS'2'
p14
S'a'
p15
sS'5'
p16
S's'
p17
sS'4'
p18
S'u'
p19
sS'7'
p20
S'n'
p21
sS'6'
p22
S'g'
p23
sS'9'
p24
S'i'
p25
sS'8'
p26
S'b'
p27
sS'OAcqw'
p28
S'j'
p29
sS'rGEyb'
p30
S'c'
p31
sS'CKDXN'
p32
S'm'
p33
sS'72'
p34
S'd'
p35
sS'94'
p36
S'k'
p37
sS'11'
p38
S'r'
p39
sS'sAXxy'
p40
S'q'
p41
sS'14'
p42
S'p'
p43
sS'31'
p44
S'f'
p45
sS'vvzPo'
p46
S'y'
p47
sS'PofFN'
p48
S'x'
p49
sS'52'
p50
S'h'
p51
sS'iYsrQ'
p52
S'v'
p53
sS'wDEks'
p54
S't'
p55
ssS'cset'
p56
c__builtin__
set
p57
((lp58
g38
ag42
ag44
ag4
ag50
ag8
ag10
ag12
ag14
ag16
ag34
ag20
ag22
ag24
ag26
ag36
ag18
atp59
Rp60
sS'annealevel'
p61
F124.79999999999718
sS'strng'
p62
(lp63
g8
ag8
ag14
ag8
ag8
ag8
ag20
ag14
ag24
ag16
ag14
ag10
ag10
ag8
ag18
ag10
ag8
ag8
ag20
ag8
ag8
ag8
ag8
ag8
ag8
ag18
ag26
ag8
ag8
ag20
ag16
ag18
ag16
ag8
ag12
ag8
ag24
ag22
ag18
ag8
ag24
ag18
ag14
ag14
ag16
ag8
ag8
ag8
ag16
ag14
ag8
ag8
ag8
ag8
ag8
ag8
ag12
ag8
ag16
ag8
ag16
ag16
ag14
ag16
ag16
ag8
ag8
ag12
ag8
ag8
ag8
ag24
ag16
ag14
ag10
ag8
ag12
asS'csplit'
p64
(lp65
I0
aI1
aI0
aI1
aI0
aI1
aI0
aI1
aI0
aI1
aI0
aI1
aI0
aI1
aI0
aI1
aI1
aI1
aI1
aI1
aI0
aI1
aI1
aI1
aI1
aI1
aI1
aI1
aI1
aI1
aI1
aI1
aI1
aI1
aI0
aI1
aI1
aI1
aI1
aI1
aI0
aI1
aI1
aI1
aI0
aI1
aI1
aI1
aI0
aI1
aI0
aI1
aI1
aI1
aI1
aI1
aI1
aI1
aI1
aI1
aI1
aI1
aI1
aI1
aI1
aI1
aI1
aI1
aI1
aI1
aI1
aI1
aI1
aI1
aI1
aI1
asS'spl'
p66
(lp67
g38
ag14
aS'11'
p68
ag8
ag34
ag24
ag16
ag14
ag10
ag10
ag42
ag10
ag8
ag8
ag20
ag8
aS'11'
p69
ag8
ag8
ag8
ag18
ag26
ag8
ag8
ag20
ag16
ag18
ag16
ag8
ag44
ag24
ag22
ag18
ag8
ag36
ag14
ag14
ag4
ag8
ag8
ag50
aS'11'
p70
ag8
ag8
ag8
ag8
ag12
ag8
ag16
ag8
ag16
ag16
ag14
ag16
ag16
ag8
ag8
ag12
ag8
ag8
ag8
ag24
ag16
ag14
ag10
ag8
asS'ls'
p71
I76
sS'cscore'
p72
F0.777920227920228
sb.
(i__main__
annealpoint
p0
(dp1
S'ccode'
p2
(dp3
S'51'
p4
S'z'
p5
sS'fUvxy'
p6
S'o'
p7
sS'1'
p8
S'e'
p9
sS'0'
p10
S'l'
p11
sS'3'
p12
S'w'
p13
sS'2'
p14
S'a'
p15
sS'5'
p16
S's'
p17
sS'4'
p18
S'u'
p19
sS'7'
p20
S'n'
p21
sS'6'
p22
S'g'
p23
sS'9'
p24
S'i'
p25
sS'8'
p26
S'b'
p27
sS'OAcqw'
p28
S'j'
p29
sS'rGEyb'
p30
S'p'
p31
sS'CKDXN'
p32
S'm'
p33
sS'72'
p34
S'd'
p35
sS'94'
p36
S'k'
p37
sS'11'
p38
S'r'
p39
sS'sAXxy'
p40
S'x'
p41
sS'14'
p42
S'c'
p43
sS'31'
p44
S'f'
p45
sS'vvzPo'
p46
S't'
p47
sS'PofFN'
p48
S'q'
p49
sS'52'
p50
S'h'
p51
sS'iYsrQ'
p52
S'y'
p53
sS'wDEks'
p54
S'v'
p55
ssS'cset'
p56
c__builtin__
set
p57
((lp58
g38
ag42
ag44
ag4
ag50
ag8
ag10
ag12
ag14
ag16
ag34
ag20
ag22
ag24
ag26
ag36
ag18
atp59
Rp60
sS'annealevel'
p61
F125.29999999999715
sS'strng'
p62
(lp63
g8
ag8
ag14
ag8
ag8
ag8
ag20
ag14
ag24
ag16
ag14
ag10
ag10
ag8
ag18
ag10
ag8
ag8
ag20
ag8
ag8
ag8
ag8
ag8
ag8
ag18
ag26
ag8
ag8
ag20
ag16
ag18
ag16
ag8
ag12
ag8
ag24
ag22
ag18
ag8
ag24
ag18
ag14
ag14
ag16
ag8
ag8
ag8
ag16
ag14
ag8
ag8
ag8
ag8
ag8
ag8
ag12
ag8
ag16
ag8
ag16
ag16
ag14
ag16
ag16
ag8
ag8
ag12
ag8
ag8
ag8
ag24
ag16
ag14
ag10
ag8
ag12
asS'csplit'
p64
(lp65
I0
aI1
aI0
aI1
aI0
aI1
aI0
aI1
aI0
aI1
aI0
aI1
aI0
aI1
aI0
aI1
aI1
aI1
aI1
aI1
aI0
aI1
aI1
aI1
aI1
aI1
aI1
aI1
aI1
aI1
aI1
aI1
aI1
aI1
aI0
aI1
aI1
aI1
aI1
aI1
aI0
aI1
aI1
aI1
aI0
aI1
aI1
aI1
aI0
aI1
aI0
aI1
aI1
aI1
aI1
aI1
aI1
aI1
aI1
aI1
aI1
aI1
aI1
aI1
aI1
aI1
aI1
aI1
aI1
aI1
aI1
aI1
aI1
aI1
aI1
aI1
asS'spl'
p66
(lp67
g38
ag14
aS'11'
p68
ag8
ag34
ag24
ag16
ag14
ag10
ag10
ag42
ag10
ag8
ag8
ag20
ag8
aS'11'
p69
ag8
ag8
ag8
ag18
ag26
ag8
ag8
ag20
ag16
ag18
ag16
ag8
ag44
ag24
ag22
ag18
ag8
ag36
ag14
ag14
ag4
ag8
ag8
ag50
aS'11'
p70
ag8
ag8
ag8
ag8
ag12
ag8
ag16
ag8
ag16
ag16
ag14
ag16
ag16
ag8
ag8
ag12
ag8
ag8
ag8
ag24
ag16
ag14
ag10
ag8
asS'ls'
p71
I76
sS'cscore'
p72
F0.7844729344729345
sb.
(i__main__
annealpoint
p0
(dp1
S'ccode'
p2
(dp3
S'51'
p4
S'v'
p5
sS'fUvxy'
p6
S'g'
p7
sS'1'
p8
S'e'
p9
sS'0'
p10
S't'
p11
sS'3'
p12
S'w'
p13
sS'2'
p14
S'a'
p15
sS'5'
p16
S's'
p17
sS'4'
p18
S'u'
p19
sS'7'
p20
S'n'
p21
sS'6'
p22
S'o'
p23
sS'9'
p24
S'y'
p25
sS'8'
p26
S'b'
p27
sS'OAcqw'
p28
S'j'
p29
sS'rGEyb'
p30
S'k'
p31
sS'CKDXN'
p32
S'p'
p33
sS'72'
p34
S'l'
p35
sS'94'
p36
S'm'
p37
sS'11'
p38
S'r'
p39
sS'sAXxy'
p40
S'd'
p41
sS'14'
p42
S'i'
p43
sS'31'
p44
S'f'
p45
sS'vvzPo'
p46
S'x'
p47
sS'PofFN'
p48
S'z'
p49
sS'52'
p50
S'h'
p51
sS'iYsrQ'
p52
S'q'
p53
sS'wDEks'
p54
S'c'
p55
ssS'cset'
p56
c__builtin__
set
p57
((lp58
g38
ag42
ag44
ag4
ag50
ag8
ag10
ag12
ag14
ag16
ag34
ag20
ag22
ag24
ag26
ag36
ag18
atp59
Rp60
sS'annealevel'
p61
F144.59999999999607
sS'strng'
p62
(lp63
g8
ag8
ag14
ag8
ag8
ag8
ag20
ag14
ag24
ag16
ag14
ag10
ag10
ag8
ag18
ag10
ag8
ag8
ag20
ag8
ag8
ag8
ag8
ag8
ag8
ag18
ag26
ag8
ag8
ag20
ag16
ag18
ag16
ag8
ag12
ag8
ag24
ag22
ag18
ag8
ag24
ag18
ag14
ag14
ag16
ag8
ag8
ag8
ag16
ag14
ag8
ag8
ag8
ag8
ag8
ag8
ag12
ag8
ag16
ag8
ag16
ag16
ag14
ag16
ag16
ag8
ag8
ag12
ag8
ag8
ag8
ag24
ag16
ag14
ag10
ag8
ag12
asS'csplit'
p64
(lp65
I0
aI1
aI0
aI1
aI0
aI1
aI0
aI1
aI0
aI1
aI0
aI1
aI0
aI1
aI0
aI1
aI1
aI1
aI1
aI1
aI0
aI1
aI1
aI1
aI1
aI1
aI1
aI1
aI1
aI1
aI1
aI1
aI1
aI1
aI0
aI1
aI1
aI1
aI1
aI1
aI0
aI1
aI1
aI1
aI0
aI1
aI1
aI1
aI0
aI1
aI0
aI1
aI1
aI1
aI1
aI1
aI1
aI1
aI1
aI1
aI1
aI1
aI1
aI1
aI1
aI1
aI1
aI1
aI1
aI1
aI1
aI1
aI1
aI1
aI1
aI1
asS'spl'
p66
(lp67
g38
ag14
aS'11'
p68
ag8
ag34
ag24
ag16
ag14
ag10
ag10
ag42
ag10
ag8
ag8
ag20
ag8
aS'11'
p69
ag8
ag8
ag8
ag18
ag26
ag8
ag8
ag20
ag16
ag18
ag16
ag8
ag44
ag24
ag22
ag18
ag8
ag36
ag14
ag14
ag4
ag8
ag8
ag50
aS'11'
p70
ag8
ag8
ag8
ag8
ag12
ag8
ag16
ag8
ag16
ag16
ag14
ag16
ag16
ag8
ag8
ag12
ag8
ag8
ag8
ag24
ag16
ag14
ag10
ag8
asS'ls'
p71
I76
sS'cscore'
p72
F0.7960683760683761
sb.
(i__main__
annealpoint
p0
(dp1
S'ccode'
p2
(dp3
S'51'
p4
S'd'
p5
sS'fUvxy'
p6
S'v'
p7
sS'1'
p8
S'e'
p9
sS'0'
p10
S't'
p11
sS'3'
p12
S'w'
p13
sS'2'
p14
S'a'
p15
sS'5'
p16
S's'
p17
sS'4'
p18
S'u'
p19
sS'7'
p20
S'n'
p21
sS'6'
p22
S'o'
p23
sS'9'
p24
S'y'
p25
sS'8'
p26
S'b'
p27
sS'OAcqw'
p28
S'j'
p29
sS'rGEyb'
p30
S'q'
p31
sS'CKDXN'
p32
S'k'
p33
sS'72'
p34
S'l'
p35
sS'94'
p36
S'm'
p37
sS'11'
p38
S'r'
p39
sS'sAXxy'
p40
S'c'
p41
sS'14'
p42
S'i'
p43
sS'31'
p44
S'f'
p45
sS'vvzPo'
p46
S'x'
p47
sS'PofFN'
p48
S'h'
p49
sS'52'
p50
S'p'
p51
sS'iYsrQ'
p52
S'g'
p53
sS'wDEks'
p54
S'z'
p55
ssS'cset'
p56
c__builtin__
set
p57
((lp58
g38
ag42
ag44
ag4
ag50
ag8
ag10
ag12
ag14
ag16
ag34
ag20
ag22
ag24
ag26
ag36
ag18
atp59
Rp60
sS'annealevel'
p61
F145.19999999999604
sS'strng'
p62
(lp63
g8
ag8
ag14
ag8
ag8
ag8
ag20
ag14
ag24
ag16
ag14
ag10
ag10
ag8
ag18
ag10
ag8
ag8
ag20
ag8
ag8
ag8
ag8
ag8
ag8
ag18
ag26
ag8
ag8
ag20
ag16
ag18
ag16
ag8
ag12
ag8
ag24
ag22
ag18
ag8
ag24
ag18
ag14
ag14
ag16
ag8
ag8
ag8
ag16
ag14
ag8
ag8
ag8
ag8
ag8
ag8
ag12
ag8
ag16
ag8
ag16
ag16
ag14
ag16
ag16
ag8
ag8
ag12
ag8
ag8
ag8
ag24
ag16
ag14
ag10
ag8
ag12
asS'csplit'
p64
(lp65
I0
aI1
aI0
aI1
aI0
aI1
aI0
aI1
aI0
aI1
aI0
aI1
aI0
aI1
aI0
aI1
aI1
aI1
aI1
aI1
aI0
aI1
aI1
aI1
aI1
aI1
aI1
aI1
aI1
aI1
aI1
aI1
aI1
aI1
aI0
aI1
aI1
aI1
aI1
aI1
aI0
aI1
aI1
aI1
aI0
aI1
aI1
aI1
aI0
aI1
aI0
aI1
aI1
aI1
aI1
aI1
aI1
aI1
aI1
aI1
aI1
aI1
aI1
aI1
aI1
aI1
aI1
aI1
aI1
aI1
aI1
aI1
aI1
aI1
aI1
aI1
asS'spl'
p66
(lp67
g38
ag14
aS'11'
p68
ag8
ag34
ag24
ag16
ag14
ag10
ag10
ag42
ag10
ag8
ag8
ag20
ag8
aS'11'
p69
ag8
ag8
ag8
ag18
ag26
ag8
ag8
ag20
ag16
ag18
ag16
ag8
ag44
ag24
ag22
ag18
ag8
ag36
ag14
ag14
ag4
ag8
ag8
ag50
aS'11'
p70
ag8
ag8
ag8
ag8
ag12
ag8
ag16
ag8
ag16
ag16
ag14
ag16
ag16
ag8
ag8
ag12
ag8
ag8
ag8
ag24
ag16
ag14
ag10
ag8
asS'ls'
p71
I76
sS'cscore'
p72
F0.8026210826210827
sb.
